   1              	 .syntax unified
   2              	 .cpu cortex-m4
   3              	 .eabi_attribute 27,3
   4              	 .fpu fpv4-sp-d16
   5              	 .eabi_attribute 20,1
   6              	 .eabi_attribute 21,1
   7              	 .eabi_attribute 23,3
   8              	 .eabi_attribute 24,1
   9              	 .eabi_attribute 25,1
  10              	 .eabi_attribute 26,1
  11              	 .eabi_attribute 30,6
  12              	 .eabi_attribute 34,1
  13              	 .eabi_attribute 18,4
  14              	 .thumb
  15              	 .file "driver_pwm.c"
  16              	 .text
  17              	.Ltext0:
  18              	 .cfi_sections .debug_frame
  19              	 .comm CCU8_CC8_CR1_CR1_Value,4,4
  20              	 .global pwm_value
  21              	 .section .data.pwm_value,"aw",%progbits
  22              	 .align 1
  25              	pwm_value:
  26 0000 100E     	 .short 3600
  27              	 .global sat_pwm_max
  28              	 .section .data.sat_pwm_max,"aw",%progbits
  29              	 .align 1
  32              	sat_pwm_max:
  33 0000 3075     	 .short 30000
  34              	 .global sat_pwm_min
  35              	 .section .data.sat_pwm_min,"aw",%progbits
  36              	 .align 1
  39              	sat_pwm_min:
  40 0000 D08A     	 .short -30000
  41              	 .section .text.pwm_init,"ax",%progbits
  42              	 .align 2
  43              	 .global pwm_init
  44              	 .thumb
  45              	 .thumb_func
  47              	pwm_init:
  48              	.LFB196:
  49              	 .file 1 "../driver_pwm.c"
   1:../driver_pwm.c **** #include "driver_pwm.h"
   2:../driver_pwm.c **** #include "main.h"
   3:../driver_pwm.c **** 
   4:../driver_pwm.c **** int16_t pwm_value = 3600;			//PWM max Value
   5:../driver_pwm.c **** int16_t sat_pwm_max = 30000;		//Saturation Value for PWM
   6:../driver_pwm.c **** int16_t sat_pwm_min = -30000;		//Saturation Value for PWM
   7:../driver_pwm.c **** 
   8:../driver_pwm.c **** void pwm_init (void)
   9:../driver_pwm.c **** {
  50              	 .loc 1 9 0
  51              	 .cfi_startproc
  52              	 
  53              	 
  54              	 
  55 0000 80B4     	 push {r7}
  56              	.LCFI0:
  57              	 .cfi_def_cfa_offset 4
  58              	 .cfi_offset 7,-4
  59 0002 00AF     	 add r7,sp,#0
  60              	.LCFI1:
  61              	 .cfi_def_cfa_register 7
  10:../driver_pwm.c **** ///*
  11:../driver_pwm.c **** // * PWM pins configuration CCU80 - as alter function 3 - CCU80 OUTxy
  12:../driver_pwm.c **** // */
  13:../driver_pwm.c **** //	PORT5->IOCR8 |= (GPIO_OUTPUT_ALTER_3 << PORT5_PC11_POS); 		// A_HIGH 	- P5.11 - OUT00
  14:../driver_pwm.c **** //	PORT5->IOCR8 |= (GPIO_OUTPUT_ALTER_3 << PORT5_PC8_POS);			// A_LOW 	- P5.8  - OUT01
  15:../driver_pwm.c **** //
  16:../driver_pwm.c **** //	PORT0->IOCR4 |= (GPIO_OUTPUT_ALTER_3 << PORT0_IOCR4_PC4_Pos);	// B_HIGH 	- P5.10 - OUT10 P0.4 al
  17:../driver_pwm.c **** //	PORT2->IOCR12 |=(GPIO_OUTPUT_ALTER_3 << PORT2_PC15_POS);		// B_LOW 	- P2.15 - OUT11
  18:../driver_pwm.c **** //
  19:../driver_pwm.c **** //	PORT5->IOCR8 |= (GPIO_OUTPUT_ALTER_3 << PORT5_PC9_POS);			// C_HIGH 	- P5.9	- OUT20
  20:../driver_pwm.c **** //	PORT2->IOCR12 |=(GPIO_OUTPUT_ALTER_3 << PORT2_PC14_POS);		// C_LOW 	- P2.14	- OUT21
  21:../driver_pwm.c **** 
  22:../driver_pwm.c **** /*
  23:../driver_pwm.c ****  * CCU80 is already set up from VADC_irq
  24:../driver_pwm.c ****  */
  25:../driver_pwm.c **** //	/*  Reset CCU80*/
  26:../driver_pwm.c **** //	SCU_RESET->PRSET0 |= SCU_PRSET0_CCU80RS_MSK;
  27:../driver_pwm.c **** //
  28:../driver_pwm.c **** //	/* Clear reset of CCU80 */
  29:../driver_pwm.c **** //	SCU_RESET->PRCLR0 |= SCU_PRCLR0_CCU80RS_MSK;
  30:../driver_pwm.c **** //
  31:../driver_pwm.c **** //	/* Enable CCU8 via clkset */
  32:../driver_pwm.c **** //	SCU_CLK->CLKSET |= SCU_CLKSET_CCUCEN_MSK;
  33:../driver_pwm.c **** //
  34:../driver_pwm.c **** //	/* Enable prescaler */
  35:../driver_pwm.c **** //	CCU80->GIDLC |= CCU8_GIDLC_SPRB_MSK;
  36:../driver_pwm.c **** 
  37:../driver_pwm.c **** /*
  38:../driver_pwm.c ****  * Counting Mode - center aligned(0->max->0)
  39:../driver_pwm.c ****  */
  40:../driver_pwm.c **** 	CCU80_CC80->TC |= (uint32_t)(CCU8_CC8_TC_TCM_MSK);
  62              	 .loc 1 40 0
  63 0004 804A     	 ldr r2,.L2
  64 0006 804B     	 ldr r3,.L2
  65 0008 5B69     	 ldr r3,[r3,#20]
  66 000a 43F00103 	 orr r3,r3,#1
  67 000e 5361     	 str r3,[r2,#20]
  41:../driver_pwm.c **** 	CCU80_CC81->TC |= (uint32_t)(CCU8_CC8_TC_TCM_MSK);
  68              	 .loc 1 41 0
  69 0010 7E4A     	 ldr r2,.L2+4
  70 0012 7E4B     	 ldr r3,.L2+4
  71 0014 5B69     	 ldr r3,[r3,#20]
  72 0016 43F00103 	 orr r3,r3,#1
  73 001a 5361     	 str r3,[r2,#20]
  42:../driver_pwm.c **** 	CCU80_CC82->TC |= (uint32_t)(CCU8_CC8_TC_TCM_MSK);
  74              	 .loc 1 42 0
  75 001c 7C4A     	 ldr r2,.L2+8
  76 001e 7C4B     	 ldr r3,.L2+8
  77 0020 5B69     	 ldr r3,[r3,#20]
  78 0022 43F00103 	 orr r3,r3,#1
  79 0026 5361     	 str r3,[r2,#20]
  43:../driver_pwm.c **** 
  44:../driver_pwm.c **** /*
  45:../driver_pwm.c ****  * Period&Compare channel 1 values configuration
  46:../driver_pwm.c ****  */
  47:../driver_pwm.c **** 	CCU80_CC80->PRS |= (uint32_t)(CCU8_CC8_PRS_PR_VALUE);   //Shadow value to timer period PR
  80              	 .loc 1 47 0
  81 0028 774A     	 ldr r2,.L2
  82 002a 774B     	 ldr r3,.L2
  83 002c 5B6B     	 ldr r3,[r3,#52]
  84 002e 43F46163 	 orr r3,r3,#3600
  85 0032 5363     	 str r3,[r2,#52]
  48:../driver_pwm.c **** 	CCU80_CC80->CR1S |=(uint32_t)(CCU8_CC8_CR1_CR1_VALUE);	//Shadow value to compare channel 1
  86              	 .loc 1 48 0
  87 0034 744A     	 ldr r2,.L2
  88 0036 744B     	 ldr r3,.L2
  89 0038 DB6B     	 ldr r3,[r3,#60]
  90 003a 43F4E163 	 orr r3,r3,#1800
  91 003e D363     	 str r3,[r2,#60]
  49:../driver_pwm.c **** 
  50:../driver_pwm.c **** 	CCU80_CC81->PRS |= (uint32_t)(CCU8_CC8_PRS_PR_VALUE);
  92              	 .loc 1 50 0
  93 0040 724A     	 ldr r2,.L2+4
  94 0042 724B     	 ldr r3,.L2+4
  95 0044 5B6B     	 ldr r3,[r3,#52]
  96 0046 43F46163 	 orr r3,r3,#3600
  97 004a 5363     	 str r3,[r2,#52]
  51:../driver_pwm.c **** 	CCU80_CC81->CR1S |=(uint32_t)(CCU8_CC8_CR1_CR1_VALUE);
  98              	 .loc 1 51 0
  99 004c 6F4A     	 ldr r2,.L2+4
 100 004e 6F4B     	 ldr r3,.L2+4
 101 0050 DB6B     	 ldr r3,[r3,#60]
 102 0052 43F4E163 	 orr r3,r3,#1800
 103 0056 D363     	 str r3,[r2,#60]
  52:../driver_pwm.c **** 
  53:../driver_pwm.c **** 	CCU80_CC82->PRS |= (uint32_t)(CCU8_CC8_PRS_PR_VALUE);
 104              	 .loc 1 53 0
 105 0058 6D4A     	 ldr r2,.L2+8
 106 005a 6D4B     	 ldr r3,.L2+8
 107 005c 5B6B     	 ldr r3,[r3,#52]
 108 005e 43F46163 	 orr r3,r3,#3600
 109 0062 5363     	 str r3,[r2,#52]
  54:../driver_pwm.c **** 	CCU80_CC82->CR1S |=(uint32_t)(CCU8_CC8_CR1_CR1_VALUE);
 110              	 .loc 1 54 0
 111 0064 6A4A     	 ldr r2,.L2+8
 112 0066 6A4B     	 ldr r3,.L2+8
 113 0068 DB6B     	 ldr r3,[r3,#60]
 114 006a 43F4E163 	 orr r3,r3,#1800
 115 006e D363     	 str r3,[r2,#60]
  55:../driver_pwm.c **** 
  56:../driver_pwm.c **** 
  57:../driver_pwm.c **** /*
  58:../driver_pwm.c ****  *  Shadow transfer enable for CCU80_80/81/82    Request shadow transfer
  59:../driver_pwm.c ****  */
  60:../driver_pwm.c **** 	CCU80->GCSS |= (CCU8_GCSS_S0SE_MSK | CCU8_GCSS_S1SE_MSK | CCU8_GCSS_S2SE_MSK);
 116              	 .loc 1 60 0
 117 0070 684A     	 ldr r2,.L2+12
 118 0072 684B     	 ldr r3,.L2+12
 119 0074 1B69     	 ldr r3,[r3,#16]
 120 0076 43F48873 	 orr r3,r3,#272
 121 007a 43F00103 	 orr r3,r3,#1
 122 007e 1361     	 str r3,[r2,#16]
  61:../driver_pwm.c **** 
  62:../driver_pwm.c **** /*
  63:../driver_pwm.c ****  * Configure timers
  64:../driver_pwm.c ****  */
  65:../driver_pwm.c **** /*
  66:../driver_pwm.c ****  * Remove from IDLE 80-82
  67:../driver_pwm.c ****  */
  68:../driver_pwm.c **** 	CCU80->GIDLC |= (CCU8_GIDLC_CS0I_MSK | CCU8_GIDLC_CS1I_MSK | CCU8_GIDLC_CS2I_MSK) ;
 123              	 .loc 1 68 0
 124 0080 644A     	 ldr r2,.L2+12
 125 0082 644B     	 ldr r3,.L2+12
 126 0084 DB68     	 ldr r3,[r3,#12]
 127 0086 43F00703 	 orr r3,r3,#7
 128 008a D360     	 str r3,[r2,#12]
  69:../driver_pwm.c **** 
  70:../driver_pwm.c **** /*   Clear the timer run bit(TRBC) and timer (TCC) */
  71:../driver_pwm.c **** 	CCU80_CC80->TCCLR |= (uint32_t)(CCU8_CC8_TCCLR_TRBC_MSK);
 129              	 .loc 1 71 0
 130 008c 5E4A     	 ldr r2,.L2
 131 008e 5E4B     	 ldr r3,.L2
 132 0090 1B69     	 ldr r3,[r3,#16]
 133 0092 43F00103 	 orr r3,r3,#1
 134 0096 1361     	 str r3,[r2,#16]
  72:../driver_pwm.c **** 	CCU80_CC80->TCCLR |= (uint32_t)(CCU8_CC8_TCCLR_TCC_MSK);
 135              	 .loc 1 72 0
 136 0098 5B4A     	 ldr r2,.L2
 137 009a 5B4B     	 ldr r3,.L2
 138 009c 1B69     	 ldr r3,[r3,#16]
 139 009e 43F00203 	 orr r3,r3,#2
 140 00a2 1361     	 str r3,[r2,#16]
  73:../driver_pwm.c **** 
  74:../driver_pwm.c **** 	CCU80_CC81->TCCLR |= (uint32_t)(CCU8_CC8_TCCLR_TRBC_MSK);
 141              	 .loc 1 74 0
 142 00a4 594A     	 ldr r2,.L2+4
 143 00a6 594B     	 ldr r3,.L2+4
 144 00a8 1B69     	 ldr r3,[r3,#16]
 145 00aa 43F00103 	 orr r3,r3,#1
 146 00ae 1361     	 str r3,[r2,#16]
  75:../driver_pwm.c **** 	CCU80_CC81->TCCLR |= (uint32_t)(CCU8_CC8_TCCLR_TCC_MSK);
 147              	 .loc 1 75 0
 148 00b0 564A     	 ldr r2,.L2+4
 149 00b2 564B     	 ldr r3,.L2+4
 150 00b4 1B69     	 ldr r3,[r3,#16]
 151 00b6 43F00203 	 orr r3,r3,#2
 152 00ba 1361     	 str r3,[r2,#16]
  76:../driver_pwm.c **** 
  77:../driver_pwm.c **** 	CCU80_CC82->TCCLR |= (uint32_t)(CCU8_CC8_TCCLR_TRBC_MSK);
 153              	 .loc 1 77 0
 154 00bc 544A     	 ldr r2,.L2+8
 155 00be 544B     	 ldr r3,.L2+8
 156 00c0 1B69     	 ldr r3,[r3,#16]
 157 00c2 43F00103 	 orr r3,r3,#1
 158 00c6 1361     	 str r3,[r2,#16]
  78:../driver_pwm.c **** 	CCU80_CC82->TCCLR |= (uint32_t)(CCU8_CC8_TCCLR_TCC_MSK);
 159              	 .loc 1 78 0
 160 00c8 514A     	 ldr r2,.L2+8
 161 00ca 514B     	 ldr r3,.L2+8
 162 00cc 1B69     	 ldr r3,[r3,#16]
 163 00ce 43F00203 	 orr r3,r3,#2
 164 00d2 1361     	 str r3,[r2,#16]
  79:../driver_pwm.c **** 
  80:../driver_pwm.c **** /*
  81:../driver_pwm.c ****  * Deadband config - enable for channel 1 and ST1
  82:../driver_pwm.c ****  */
  83:../driver_pwm.c **** 	CCU80_CC80->DTC |= CCU8_CC8_DTC_DTE1_MSK | CCU8_CC8_DTC_DCEN1_MSK;
 165              	 .loc 1 83 0
 166 00d4 4C4A     	 ldr r2,.L2
 167 00d6 4C4B     	 ldr r3,.L2
 168 00d8 DB6C     	 ldr r3,[r3,#76]
 169 00da 43F00503 	 orr r3,r3,#5
 170 00de D364     	 str r3,[r2,#76]
  84:../driver_pwm.c **** 	CCU80_CC81->DTC |= CCU8_CC8_DTC_DTE1_MSK | CCU8_CC8_DTC_DCEN1_MSK;
 171              	 .loc 1 84 0
 172 00e0 4A4A     	 ldr r2,.L2+4
 173 00e2 4A4B     	 ldr r3,.L2+4
 174 00e4 DB6C     	 ldr r3,[r3,#76]
 175 00e6 43F00503 	 orr r3,r3,#5
 176 00ea D364     	 str r3,[r2,#76]
  85:../driver_pwm.c **** 	CCU80_CC82->DTC |= CCU8_CC8_DTC_DTE1_MSK | CCU8_CC8_DTC_DCEN1_MSK;
 177              	 .loc 1 85 0
 178 00ec 484A     	 ldr r2,.L2+8
 179 00ee 484B     	 ldr r3,.L2+8
 180 00f0 DB6C     	 ldr r3,[r3,#76]
 181 00f2 43F00503 	 orr r3,r3,#5
 182 00f6 D364     	 str r3,[r2,#76]
  86:../driver_pwm.c **** 
  87:../driver_pwm.c **** /*
  88:../driver_pwm.c ****  * Deadband value rising config - rising 50ns
  89:../driver_pwm.c ****  */
  90:../driver_pwm.c **** 	CCU80_CC80->DC1R |= CCU8_CC8_DC1R_Value << CCU8_CC8_DC1R_DT1R_POS;
 183              	 .loc 1 90 0
 184 00f8 434A     	 ldr r2,.L2
 185 00fa 434B     	 ldr r3,.L2
 186 00fc 1B6D     	 ldr r3,[r3,#80]
 187 00fe 43F00803 	 orr r3,r3,#8
 188 0102 1365     	 str r3,[r2,#80]
  91:../driver_pwm.c **** 	CCU80_CC81->DC1R |= CCU8_CC8_DC1R_Value << CCU8_CC8_DC1R_DT1R_POS;
 189              	 .loc 1 91 0
 190 0104 414A     	 ldr r2,.L2+4
 191 0106 414B     	 ldr r3,.L2+4
 192 0108 1B6D     	 ldr r3,[r3,#80]
 193 010a 43F00803 	 orr r3,r3,#8
 194 010e 1365     	 str r3,[r2,#80]
  92:../driver_pwm.c **** 	CCU80_CC82->DC1R |= CCU8_CC8_DC1R_Value << CCU8_CC8_DC1R_DT1R_POS;
 195              	 .loc 1 92 0
 196 0110 3F4A     	 ldr r2,.L2+8
 197 0112 3F4B     	 ldr r3,.L2+8
 198 0114 1B6D     	 ldr r3,[r3,#80]
 199 0116 43F00803 	 orr r3,r3,#8
 200 011a 1365     	 str r3,[r2,#80]
  93:../driver_pwm.c **** 
  94:../driver_pwm.c **** /*
  95:../driver_pwm.c ****  * Input selector & matrix
  96:../driver_pwm.c ****  * Use IN_H for Event 0 on Rising edge
  97:../driver_pwm.c ****  * Set start on EVENT 0 on Rising edge
  98:../driver_pwm.c ****  * Set stop on Event 1 on Falling edge
  99:../driver_pwm.c ****  */
 100:../driver_pwm.c **** 	CCU80_CC80->INS |= CCU8_IN_H << CCU8_CC8_INS_EV0IS_POS;		//Set Event 0(system control) as rising e
 201              	 .loc 1 100 0
 202 011c 3A4A     	 ldr r2,.L2
 203 011e 3A4B     	 ldr r3,.L2
 204 0120 1B68     	 ldr r3,[r3]
 205 0122 43F00703 	 orr r3,r3,#7
 206 0126 1360     	 str r3,[r2]
 101:../driver_pwm.c **** 	CCU80_CC80->INS |= RISING_EDGE << CCU8_CC8_INS_EV0EM_POS;
 207              	 .loc 1 101 0
 208 0128 374A     	 ldr r2,.L2
 209 012a 374B     	 ldr r3,.L2
 210 012c 1B68     	 ldr r3,[r3]
 211 012e 43F48033 	 orr r3,r3,#65536
 212 0132 1360     	 str r3,[r2]
 102:../driver_pwm.c **** 	CCU80_CC80->INS |= CCU8_IN_H << CCU8_CC8_INS_EV1IS_POS;		//Set Event 1(system control) as falling 
 213              	 .loc 1 102 0
 214 0134 344A     	 ldr r2,.L2
 215 0136 344B     	 ldr r3,.L2
 216 0138 1B68     	 ldr r3,[r3]
 217 013a 43F07003 	 orr r3,r3,#112
 218 013e 1360     	 str r3,[r2]
 103:../driver_pwm.c **** 	CCU80_CC80->INS |= FALLING_EDGE << CCU8_CC8_INS_EV1EM_POS;
 219              	 .loc 1 103 0
 220 0140 314A     	 ldr r2,.L2
 221 0142 314B     	 ldr r3,.L2
 222 0144 1B68     	 ldr r3,[r3]
 223 0146 43F40023 	 orr r3,r3,#524288
 224 014a 1360     	 str r3,[r2]
 104:../driver_pwm.c **** 
 105:../driver_pwm.c **** 	CCU80_CC81->INS |= CCU8_IN_H << CCU8_CC8_INS_EV0IS_POS;
 225              	 .loc 1 105 0
 226 014c 2F4A     	 ldr r2,.L2+4
 227 014e 2F4B     	 ldr r3,.L2+4
 228 0150 1B68     	 ldr r3,[r3]
 229 0152 43F00703 	 orr r3,r3,#7
 230 0156 1360     	 str r3,[r2]
 106:../driver_pwm.c **** 	CCU80_CC81->INS |= RISING_EDGE << CCU8_CC8_INS_EV0EM_POS;
 231              	 .loc 1 106 0
 232 0158 2C4A     	 ldr r2,.L2+4
 233 015a 2C4B     	 ldr r3,.L2+4
 234 015c 1B68     	 ldr r3,[r3]
 235 015e 43F48033 	 orr r3,r3,#65536
 236 0162 1360     	 str r3,[r2]
 107:../driver_pwm.c **** 	CCU80_CC81->INS |= CCU8_IN_H << CCU8_CC8_INS_EV1IS_POS;
 237              	 .loc 1 107 0
 238 0164 294A     	 ldr r2,.L2+4
 239 0166 294B     	 ldr r3,.L2+4
 240 0168 1B68     	 ldr r3,[r3]
 241 016a 43F07003 	 orr r3,r3,#112
 242 016e 1360     	 str r3,[r2]
 108:../driver_pwm.c **** 	CCU80_CC81->INS |= FALLING_EDGE << CCU8_CC8_INS_EV1EM_POS;
 243              	 .loc 1 108 0
 244 0170 264A     	 ldr r2,.L2+4
 245 0172 264B     	 ldr r3,.L2+4
 246 0174 1B68     	 ldr r3,[r3]
 247 0176 43F40023 	 orr r3,r3,#524288
 248 017a 1360     	 str r3,[r2]
 109:../driver_pwm.c **** 
 110:../driver_pwm.c **** 	CCU80_CC82->INS |= CCU8_IN_H << CCU8_CC8_INS_EV0IS_POS;
 249              	 .loc 1 110 0
 250 017c 244A     	 ldr r2,.L2+8
 251 017e 244B     	 ldr r3,.L2+8
 252 0180 1B68     	 ldr r3,[r3]
 253 0182 43F00703 	 orr r3,r3,#7
 254 0186 1360     	 str r3,[r2]
 111:../driver_pwm.c **** 	CCU80_CC82->INS |= RISING_EDGE << CCU8_CC8_INS_EV0EM_POS;
 255              	 .loc 1 111 0
 256 0188 214A     	 ldr r2,.L2+8
 257 018a 214B     	 ldr r3,.L2+8
 258 018c 1B68     	 ldr r3,[r3]
 259 018e 43F48033 	 orr r3,r3,#65536
 260 0192 1360     	 str r3,[r2]
 112:../driver_pwm.c **** 	CCU80_CC82->INS |= CCU8_IN_H << CCU8_CC8_INS_EV1IS_POS;
 261              	 .loc 1 112 0
 262 0194 1E4A     	 ldr r2,.L2+8
 263 0196 1E4B     	 ldr r3,.L2+8
 264 0198 1B68     	 ldr r3,[r3]
 265 019a 43F07003 	 orr r3,r3,#112
 266 019e 1360     	 str r3,[r2]
 113:../driver_pwm.c **** 	CCU80_CC82->INS |= FALLING_EDGE << CCU8_CC8_INS_EV1EM_POS;
 267              	 .loc 1 113 0
 268 01a0 1B4A     	 ldr r2,.L2+8
 269 01a2 1B4B     	 ldr r3,.L2+8
 270 01a4 1B68     	 ldr r3,[r3]
 271 01a6 43F40023 	 orr r3,r3,#524288
 272 01aa 1360     	 str r3,[r2]
 114:../driver_pwm.c **** 
 115:../driver_pwm.c **** 	CCU80_CC80->CMC |= CCU8_CC8_CMC_STRTS_EV0_MSK << CCU8_CC8_CMC_STRTS_POS;	//Set Event 0 for start
 273              	 .loc 1 115 0
 274 01ac 164A     	 ldr r2,.L2
 275 01ae 164B     	 ldr r3,.L2
 276 01b0 5B68     	 ldr r3,[r3,#4]
 277 01b2 43F00103 	 orr r3,r3,#1
 278 01b6 5360     	 str r3,[r2,#4]
 116:../driver_pwm.c **** 	CCU80_CC81->CMC |= CCU8_CC8_CMC_STRTS_EV0_MSK << CCU8_CC8_CMC_STRTS_POS;
 279              	 .loc 1 116 0
 280 01b8 144A     	 ldr r2,.L2+4
 281 01ba 144B     	 ldr r3,.L2+4
 282 01bc 5B68     	 ldr r3,[r3,#4]
 283 01be 43F00103 	 orr r3,r3,#1
 284 01c2 5360     	 str r3,[r2,#4]
 117:../driver_pwm.c **** 	CCU80_CC82->CMC |= CCU8_CC8_CMC_STRTS_EV0_MSK << CCU8_CC8_CMC_STRTS_POS;
 285              	 .loc 1 117 0
 286 01c4 124A     	 ldr r2,.L2+8
 287 01c6 124B     	 ldr r3,.L2+8
 288 01c8 5B68     	 ldr r3,[r3,#4]
 289 01ca 43F00103 	 orr r3,r3,#1
 290 01ce 5360     	 str r3,[r2,#4]
 118:../driver_pwm.c **** 
 119:../driver_pwm.c **** 
 120:../driver_pwm.c **** 	CCU80_CC80->CMC |= CCU8_CC8_CMC_ENDS_EV1_MSK << CCU8_CC8_CMC_ENDS_POS;		//Set Event 1 for end
 291              	 .loc 1 120 0
 292 01d0 0D4A     	 ldr r2,.L2
 293 01d2 0D4B     	 ldr r3,.L2
 294 01d4 5B68     	 ldr r3,[r3,#4]
 295 01d6 43F00803 	 orr r3,r3,#8
 296 01da 5360     	 str r3,[r2,#4]
 121:../driver_pwm.c **** 	CCU80_CC81->CMC |= CCU8_CC8_CMC_ENDS_EV1_MSK << CCU8_CC8_CMC_ENDS_POS;
 297              	 .loc 1 121 0
 298 01dc 0B4A     	 ldr r2,.L2+4
 299 01de 0B4B     	 ldr r3,.L2+4
 300 01e0 5B68     	 ldr r3,[r3,#4]
 301 01e2 43F00803 	 orr r3,r3,#8
 302 01e6 5360     	 str r3,[r2,#4]
 122:../driver_pwm.c **** 	CCU80_CC82->CMC |= CCU8_CC8_CMC_ENDS_EV1_MSK << CCU8_CC8_CMC_ENDS_POS;
 303              	 .loc 1 122 0
 304 01e8 094A     	 ldr r2,.L2+8
 305 01ea 094B     	 ldr r3,.L2+8
 306 01ec 5B68     	 ldr r3,[r3,#4]
 307 01ee 43F00803 	 orr r3,r3,#8
 308 01f2 5360     	 str r3,[r2,#4]
 123:../driver_pwm.c **** 
 124:../driver_pwm.c **** /*
 125:../driver_pwm.c ****  * Enable CCUCON Module
 126:../driver_pwm.c ****  */
 127:../driver_pwm.c **** 	SCU_GENERAL->CCUCON |= SCU_GENERAL_CCUCON_GSC80_MSK;
 309              	 .loc 1 127 0
 310 01f4 084A     	 ldr r2,.L2+16
 311 01f6 084B     	 ldr r3,.L2+16
 312 01f8 DB6C     	 ldr r3,[r3,#76]
 313 01fa 43F48073 	 orr r3,r3,#256
 314 01fe D364     	 str r3,[r2,#76]
 128:../driver_pwm.c **** //	SCU_GENERAL->CCUCON &= ~SCU_GENERAL_CCUCON_GSC80_MSK; 		//Reset back to 0 if it needs to be re-e
 129:../driver_pwm.c **** }
 315              	 .loc 1 129 0
 316 0200 BD46     	 mov sp,r7
 317              	.LCFI2:
 318              	 .cfi_def_cfa_register 13
 319              	 
 320 0202 5DF8047B 	 ldr r7,[sp],#4
 321              	.LCFI3:
 322              	 .cfi_restore 7
 323              	 .cfi_def_cfa_offset 0
 324 0206 7047     	 bx lr
 325              	.L3:
 326              	 .align 2
 327              	.L2:
 328 0208 00010240 	 .word 1073873152
 329 020c 00020240 	 .word 1073873408
 330 0210 00030240 	 .word 1073873664
 331 0214 00000240 	 .word 1073872896
 332 0218 00400050 	 .word 1342193664
 333              	 .cfi_endproc
 334              	.LFE196:
 336              	 .section .text.pwm_timer_start,"ax",%progbits
 337              	 .align 2
 338              	 .global pwm_timer_start
 339              	 .thumb
 340              	 .thumb_func
 342              	pwm_timer_start:
 343              	.LFB197:
 130:../driver_pwm.c **** /*
 131:../driver_pwm.c ****  * Sets CCUCON to 1 which enables the 0->1 transition (Rising Edge)
 132:../driver_pwm.c ****  */
 133:../driver_pwm.c **** void pwm_timer_start (void)
 134:../driver_pwm.c **** {
 344              	 .loc 1 134 0
 345              	 .cfi_startproc
 346              	 
 347              	 
 348              	 
 349 0000 80B4     	 push {r7}
 350              	.LCFI4:
 351              	 .cfi_def_cfa_offset 4
 352              	 .cfi_offset 7,-4
 353 0002 00AF     	 add r7,sp,#0
 354              	.LCFI5:
 355              	 .cfi_def_cfa_register 7
 135:../driver_pwm.c **** 	SCU_GENERAL->CCUCON |= SCU_GENERAL_CCUCON_GSC80_MSK;
 356              	 .loc 1 135 0
 357 0004 044A     	 ldr r2,.L5
 358 0006 044B     	 ldr r3,.L5
 359 0008 DB6C     	 ldr r3,[r3,#76]
 360 000a 43F48073 	 orr r3,r3,#256
 361 000e D364     	 str r3,[r2,#76]
 136:../driver_pwm.c **** }
 362              	 .loc 1 136 0
 363 0010 BD46     	 mov sp,r7
 364              	.LCFI6:
 365              	 .cfi_def_cfa_register 13
 366              	 
 367 0012 5DF8047B 	 ldr r7,[sp],#4
 368              	.LCFI7:
 369              	 .cfi_restore 7
 370              	 .cfi_def_cfa_offset 0
 371 0016 7047     	 bx lr
 372              	.L6:
 373              	 .align 2
 374              	.L5:
 375 0018 00400050 	 .word 1342193664
 376              	 .cfi_endproc
 377              	.LFE197:
 379              	 .section .text.pwm_timer_stop,"ax",%progbits
 380              	 .align 2
 381              	 .global pwm_timer_stop
 382              	 .thumb
 383              	 .thumb_func
 385              	pwm_timer_stop:
 386              	.LFB198:
 137:../driver_pwm.c **** /*
 138:../driver_pwm.c ****  * Sets CCUCON to 0 which enables the 1->0 transition (Falling Edge)
 139:../driver_pwm.c ****  */
 140:../driver_pwm.c **** void pwm_timer_stop (void)
 141:../driver_pwm.c **** {
 387              	 .loc 1 141 0
 388              	 .cfi_startproc
 389              	 
 390              	 
 391              	 
 392 0000 80B4     	 push {r7}
 393              	.LCFI8:
 394              	 .cfi_def_cfa_offset 4
 395              	 .cfi_offset 7,-4
 396 0002 00AF     	 add r7,sp,#0
 397              	.LCFI9:
 398              	 .cfi_def_cfa_register 7
 142:../driver_pwm.c **** 	SCU_GENERAL->CCUCON &= ~SCU_GENERAL_CCUCON_GSC80_MSK;
 399              	 .loc 1 142 0
 400 0004 044A     	 ldr r2,.L8
 401 0006 044B     	 ldr r3,.L8
 402 0008 DB6C     	 ldr r3,[r3,#76]
 403 000a 23F48073 	 bic r3,r3,#256
 404 000e D364     	 str r3,[r2,#76]
 143:../driver_pwm.c **** }
 405              	 .loc 1 143 0
 406 0010 BD46     	 mov sp,r7
 407              	.LCFI10:
 408              	 .cfi_def_cfa_register 13
 409              	 
 410 0012 5DF8047B 	 ldr r7,[sp],#4
 411              	.LCFI11:
 412              	 .cfi_restore 7
 413              	 .cfi_def_cfa_offset 0
 414 0016 7047     	 bx lr
 415              	.L9:
 416              	 .align 2
 417              	.L8:
 418 0018 00400050 	 .word 1342193664
 419              	 .cfi_endproc
 420              	.LFE198:
 422              	 .section .text.pwm_update,"ax",%progbits
 423              	 .align 2
 424              	 .global pwm_update
 425              	 .thumb
 426              	 .thumb_func
 428              	pwm_update:
 429              	.LFB199:
 144:../driver_pwm.c **** /*
 145:../driver_pwm.c ****  * Functions that updates the compare values in the PWM
 146:../driver_pwm.c ****  * Input type: int16_t
 147:../driver_pwm.c ****  */
 148:../driver_pwm.c **** void pwm_update (int16_t uaref,int16_t ubref,int16_t ucref)
 149:../driver_pwm.c **** {
 430              	 .loc 1 149 0
 431              	 .cfi_startproc
 432              	 
 433              	 
 434 0000 80B5     	 push {r7,lr}
 435              	.LCFI12:
 436              	 .cfi_def_cfa_offset 8
 437              	 .cfi_offset 7,-8
 438              	 .cfi_offset 14,-4
 439 0002 82B0     	 sub sp,sp,#8
 440              	.LCFI13:
 441              	 .cfi_def_cfa_offset 16
 442 0004 00AF     	 add r7,sp,#0
 443              	.LCFI14:
 444              	 .cfi_def_cfa_register 7
 445 0006 0346     	 mov r3,r0
 446 0008 FB80     	 strh r3,[r7,#6]
 447 000a 0B46     	 mov r3,r1
 448 000c BB80     	 strh r3,[r7,#4]
 449 000e 1346     	 mov r3,r2
 450 0010 7B80     	 strh r3,[r7,#2]
 150:../driver_pwm.c **** 	/*
 151:../driver_pwm.c **** 	 * Keeps the voltage values between a range of max/min saturation
 152:../driver_pwm.c **** 	 * We don't want the resulted PWM to be 0 or MAX
 153:../driver_pwm.c **** 	 */
 154:../driver_pwm.c **** 	if (uaref > sat_pwm_max)
 451              	 .loc 1 154 0
 452 0012 4A4B     	 ldr r3,.L17
 453 0014 1B88     	 ldrh r3,[r3]
 454 0016 B7F90620 	 ldrsh r2,[r7,#6]
 455 001a 1BB2     	 sxth r3,r3
 456 001c 9A42     	 cmp r2,r3
 457 001e 03DD     	 ble .L11
 155:../driver_pwm.c **** 	{
 156:../driver_pwm.c **** 		uaref = sat_pwm_max;
 458              	 .loc 1 156 0
 459 0020 464B     	 ldr r3,.L17
 460 0022 1B88     	 ldrh r3,[r3]
 461 0024 FB80     	 strh r3,[r7,#6]
 462 0026 09E0     	 b .L12
 463              	.L11:
 157:../driver_pwm.c **** 	}
 158:../driver_pwm.c **** 	else if (uaref < sat_pwm_min)
 464              	 .loc 1 158 0
 465 0028 454B     	 ldr r3,.L17+4
 466 002a 1B88     	 ldrh r3,[r3]
 467 002c B7F90620 	 ldrsh r2,[r7,#6]
 468 0030 1BB2     	 sxth r3,r3
 469 0032 9A42     	 cmp r2,r3
 470 0034 02DA     	 bge .L12
 159:../driver_pwm.c **** 	{
 160:../driver_pwm.c **** 		uaref = sat_pwm_min;
 471              	 .loc 1 160 0
 472 0036 424B     	 ldr r3,.L17+4
 473 0038 1B88     	 ldrh r3,[r3]
 474 003a FB80     	 strh r3,[r7,#6]
 475              	.L12:
 161:../driver_pwm.c **** 	}
 162:../driver_pwm.c **** 
 163:../driver_pwm.c **** 	if (ubref > sat_pwm_max)
 476              	 .loc 1 163 0
 477 003c 3F4B     	 ldr r3,.L17
 478 003e 1B88     	 ldrh r3,[r3]
 479 0040 B7F90420 	 ldrsh r2,[r7,#4]
 480 0044 1BB2     	 sxth r3,r3
 481 0046 9A42     	 cmp r2,r3
 482 0048 03DD     	 ble .L13
 164:../driver_pwm.c **** 	{
 165:../driver_pwm.c **** 		ubref = sat_pwm_max;
 483              	 .loc 1 165 0
 484 004a 3C4B     	 ldr r3,.L17
 485 004c 1B88     	 ldrh r3,[r3]
 486 004e BB80     	 strh r3,[r7,#4]
 487 0050 09E0     	 b .L14
 488              	.L13:
 166:../driver_pwm.c **** 	}
 167:../driver_pwm.c **** 	else if (ubref < sat_pwm_min)
 489              	 .loc 1 167 0
 490 0052 3B4B     	 ldr r3,.L17+4
 491 0054 1B88     	 ldrh r3,[r3]
 492 0056 B7F90420 	 ldrsh r2,[r7,#4]
 493 005a 1BB2     	 sxth r3,r3
 494 005c 9A42     	 cmp r2,r3
 495 005e 02DA     	 bge .L14
 168:../driver_pwm.c **** 	{
 169:../driver_pwm.c **** 		ubref = sat_pwm_min;
 496              	 .loc 1 169 0
 497 0060 374B     	 ldr r3,.L17+4
 498 0062 1B88     	 ldrh r3,[r3]
 499 0064 BB80     	 strh r3,[r7,#4]
 500              	.L14:
 170:../driver_pwm.c **** 	}
 171:../driver_pwm.c **** 
 172:../driver_pwm.c **** 	if (ucref > sat_pwm_max)
 501              	 .loc 1 172 0
 502 0066 354B     	 ldr r3,.L17
 503 0068 1B88     	 ldrh r3,[r3]
 504 006a B7F90220 	 ldrsh r2,[r7,#2]
 505 006e 1BB2     	 sxth r3,r3
 506 0070 9A42     	 cmp r2,r3
 507 0072 03DD     	 ble .L15
 173:../driver_pwm.c **** 	{
 174:../driver_pwm.c **** 		ucref = sat_pwm_max;
 508              	 .loc 1 174 0
 509 0074 314B     	 ldr r3,.L17
 510 0076 1B88     	 ldrh r3,[r3]
 511 0078 7B80     	 strh r3,[r7,#2]
 512 007a 09E0     	 b .L16
 513              	.L15:
 175:../driver_pwm.c **** 	}
 176:../driver_pwm.c **** 	else if (ucref < sat_pwm_min)
 514              	 .loc 1 176 0
 515 007c 304B     	 ldr r3,.L17+4
 516 007e 1B88     	 ldrh r3,[r3]
 517 0080 B7F90220 	 ldrsh r2,[r7,#2]
 518 0084 1BB2     	 sxth r3,r3
 519 0086 9A42     	 cmp r2,r3
 520 0088 02DA     	 bge .L16
 177:../driver_pwm.c **** 	{
 178:../driver_pwm.c **** 		ucref = sat_pwm_min;
 521              	 .loc 1 178 0
 522 008a 2D4B     	 ldr r3,.L17+4
 523 008c 1B88     	 ldrh r3,[r3]
 524 008e 7B80     	 strh r3,[r7,#2]
 525              	.L16:
 179:../driver_pwm.c **** 	}
 180:../driver_pwm.c **** 
 181:../driver_pwm.c **** 	//New compare value
 182:../driver_pwm.c **** 	CCU80_CC80->CR1S = (pwm_value/2 - pwm_value * uaref/65535);
 526              	 .loc 1 182 0
 527 0090 2C48     	 ldr r0,.L17+8
 528 0092 2D4B     	 ldr r3,.L17+12
 529 0094 1B88     	 ldrh r3,[r3]
 530 0096 1BB2     	 sxth r3,r3
 531 0098 DA0F     	 lsrs r2,r3,#31
 532 009a 1344     	 add r3,r3,r2
 533 009c 5B10     	 asrs r3,r3,#1
 534 009e 9BB2     	 uxth r3,r3
 535 00a0 1AB2     	 sxth r2,r3
 536 00a2 294B     	 ldr r3,.L17+12
 537 00a4 1B88     	 ldrh r3,[r3]
 538 00a6 1BB2     	 sxth r3,r3
 539 00a8 B7F90610 	 ldrsh r1,[r7,#6]
 540 00ac 01FB03F3 	 mul r3,r1,r3
 541 00b0 2649     	 ldr r1,.L17+16
 542 00b2 81FB03E1 	 smull lr,r1,r1,r3
 543 00b6 1944     	 add r1,r1,r3
 544 00b8 C913     	 asrs r1,r1,#15
 545 00ba DB17     	 asrs r3,r3,#31
 546 00bc CB1A     	 subs r3,r1,r3
 547 00be D31A     	 subs r3,r2,r3
 548 00c0 C363     	 str r3,[r0,#60]
 183:../driver_pwm.c **** 	CCU80_CC81->CR1S = (pwm_value/2 - pwm_value * ubref/65535);
 549              	 .loc 1 183 0
 550 00c2 2348     	 ldr r0,.L17+20
 551 00c4 204B     	 ldr r3,.L17+12
 552 00c6 1B88     	 ldrh r3,[r3]
 553 00c8 1BB2     	 sxth r3,r3
 554 00ca DA0F     	 lsrs r2,r3,#31
 555 00cc 1344     	 add r3,r3,r2
 556 00ce 5B10     	 asrs r3,r3,#1
 557 00d0 9BB2     	 uxth r3,r3
 558 00d2 1AB2     	 sxth r2,r3
 559 00d4 1C4B     	 ldr r3,.L17+12
 560 00d6 1B88     	 ldrh r3,[r3]
 561 00d8 1BB2     	 sxth r3,r3
 562 00da B7F90410 	 ldrsh r1,[r7,#4]
 563 00de 01FB03F3 	 mul r3,r1,r3
 564 00e2 1A49     	 ldr r1,.L17+16
 565 00e4 81FB03E1 	 smull lr,r1,r1,r3
 566 00e8 1944     	 add r1,r1,r3
 567 00ea C913     	 asrs r1,r1,#15
 568 00ec DB17     	 asrs r3,r3,#31
 569 00ee CB1A     	 subs r3,r1,r3
 570 00f0 D31A     	 subs r3,r2,r3
 571 00f2 C363     	 str r3,[r0,#60]
 184:../driver_pwm.c **** 	CCU80_CC82->CR1S = (pwm_value/2 - pwm_value * ucref/65535);
 572              	 .loc 1 184 0
 573 00f4 1748     	 ldr r0,.L17+24
 574 00f6 144B     	 ldr r3,.L17+12
 575 00f8 1B88     	 ldrh r3,[r3]
 576 00fa 1BB2     	 sxth r3,r3
 577 00fc DA0F     	 lsrs r2,r3,#31
 578 00fe 1344     	 add r3,r3,r2
 579 0100 5B10     	 asrs r3,r3,#1
 580 0102 9BB2     	 uxth r3,r3
 581 0104 1AB2     	 sxth r2,r3
 582 0106 104B     	 ldr r3,.L17+12
 583 0108 1B88     	 ldrh r3,[r3]
 584 010a 1BB2     	 sxth r3,r3
 585 010c B7F90210 	 ldrsh r1,[r7,#2]
 586 0110 01FB03F3 	 mul r3,r1,r3
 587 0114 0D49     	 ldr r1,.L17+16
 588 0116 81FB03E1 	 smull lr,r1,r1,r3
 589 011a 1944     	 add r1,r1,r3
 590 011c C913     	 asrs r1,r1,#15
 591 011e DB17     	 asrs r3,r3,#31
 592 0120 CB1A     	 subs r3,r1,r3
 593 0122 D31A     	 subs r3,r2,r3
 594 0124 C363     	 str r3,[r0,#60]
 185:../driver_pwm.c **** 
 186:../driver_pwm.c **** 	//Shadow transfer enabled for new compare value
 187:../driver_pwm.c **** 	CCU80->GCSS |= (CCU8_GCSS_S0SE_MSK | CCU8_GCSS_S1SE_MSK | CCU8_GCSS_S2SE_MSK);
 595              	 .loc 1 187 0
 596 0126 0C4A     	 ldr r2,.L17+28
 597 0128 0B4B     	 ldr r3,.L17+28
 598 012a 1B69     	 ldr r3,[r3,#16]
 599 012c 43F48873 	 orr r3,r3,#272
 600 0130 43F00103 	 orr r3,r3,#1
 601 0134 1361     	 str r3,[r2,#16]
 188:../driver_pwm.c **** }
 602              	 .loc 1 188 0
 603 0136 0837     	 adds r7,r7,#8
 604              	.LCFI15:
 605              	 .cfi_def_cfa_offset 8
 606 0138 BD46     	 mov sp,r7
 607              	.LCFI16:
 608              	 .cfi_def_cfa_register 13
 609              	 
 610 013a 80BD     	 pop {r7,pc}
 611              	.L18:
 612              	 .align 2
 613              	.L17:
 614 013c 00000000 	 .word sat_pwm_max
 615 0140 00000000 	 .word sat_pwm_min
 616 0144 00010240 	 .word 1073873152
 617 0148 00000000 	 .word pwm_value
 618 014c 01800080 	 .word -2147450879
 619 0150 00020240 	 .word 1073873408
 620 0154 00030240 	 .word 1073873664
 621 0158 00000240 	 .word 1073872896
 622              	 .cfi_endproc
 623              	.LFE199:
 625              	 .section .text.motion_on,"ax",%progbits
 626              	 .align 2
 627              	 .global motion_on
 628              	 .thumb
 629              	 .thumb_func
 631              	motion_on:
 632              	.LFB200:
 189:../driver_pwm.c **** 
 190:../driver_pwm.c **** void motion_on (void)
 191:../driver_pwm.c **** {
 633              	 .loc 1 191 0
 634              	 .cfi_startproc
 635              	 
 636              	 
 637              	 
 638 0000 80B4     	 push {r7}
 639              	.LCFI17:
 640              	 .cfi_def_cfa_offset 4
 641              	 .cfi_offset 7,-4
 642 0002 00AF     	 add r7,sp,#0
 643              	.LCFI18:
 644              	 .cfi_def_cfa_register 7
 192:../driver_pwm.c **** /*
 193:../driver_pwm.c ****  * PWM pins configuration CCU80 - as alter function 3 - CCU80 OUTxy
 194:../driver_pwm.c ****  */
 195:../driver_pwm.c **** 	PORT5->IOCR8 |= (GPIO_OUTPUT_ALTER_3 << PORT5_PC11_POS); 		// A_HIGH 	- P5.11 - OUT00
 645              	 .loc 1 195 0
 646 0004 134A     	 ldr r2,.L20
 647 0006 134B     	 ldr r3,.L20
 648 0008 9B69     	 ldr r3,[r3,#24]
 649 000a 43F01843 	 orr r3,r3,#-1744830464
 650 000e 9361     	 str r3,[r2,#24]
 196:../driver_pwm.c **** 	PORT5->IOCR8 |= (GPIO_OUTPUT_ALTER_3 << PORT5_PC8_POS);			// A_LOW 	- P5.8  - OUT01
 651              	 .loc 1 196 0
 652 0010 104A     	 ldr r2,.L20
 653 0012 104B     	 ldr r3,.L20
 654 0014 9B69     	 ldr r3,[r3,#24]
 655 0016 43F09803 	 orr r3,r3,#152
 656 001a 9361     	 str r3,[r2,#24]
 197:../driver_pwm.c **** 
 198:../driver_pwm.c **** 	PORT0->IOCR4 |= (GPIO_OUTPUT_ALTER_3 << PORT0_IOCR4_PC4_Pos);	// B_HIGH 	- P5.10 - OUT10 P0.4 alte
 657              	 .loc 1 198 0
 658 001c 0E4A     	 ldr r2,.L20+4
 659 001e 0E4B     	 ldr r3,.L20+4
 660 0020 5B69     	 ldr r3,[r3,#20]
 661 0022 43F09803 	 orr r3,r3,#152
 662 0026 5361     	 str r3,[r2,#20]
 199:../driver_pwm.c **** 	PORT2->IOCR12 |=(GPIO_OUTPUT_ALTER_3 << PORT2_PC15_POS);		// B_LOW 	- P2.15 - OUT11
 663              	 .loc 1 199 0
 664 0028 0C4A     	 ldr r2,.L20+8
 665 002a 0C4B     	 ldr r3,.L20+8
 666 002c DB69     	 ldr r3,[r3,#28]
 667 002e 43F01843 	 orr r3,r3,#-1744830464
 668 0032 D361     	 str r3,[r2,#28]
 200:../driver_pwm.c **** 
 201:../driver_pwm.c **** 	PORT5->IOCR8 |= (GPIO_OUTPUT_ALTER_3 << PORT5_PC9_POS);			// C_HIGH 	- P5.9	- OUT20
 669              	 .loc 1 201 0
 670 0034 074A     	 ldr r2,.L20
 671 0036 074B     	 ldr r3,.L20
 672 0038 9B69     	 ldr r3,[r3,#24]
 673 003a 43F41843 	 orr r3,r3,#38912
 674 003e 9361     	 str r3,[r2,#24]
 202:../driver_pwm.c **** 	PORT2->IOCR12 |=(GPIO_OUTPUT_ALTER_3 << PORT2_PC14_POS);		// C_LOW 	- P2.14	- OUT21
 675              	 .loc 1 202 0
 676 0040 064A     	 ldr r2,.L20+8
 677 0042 064B     	 ldr r3,.L20+8
 678 0044 DB69     	 ldr r3,[r3,#28]
 679 0046 43F41803 	 orr r3,r3,#9961472
 680 004a D361     	 str r3,[r2,#28]
 203:../driver_pwm.c **** }
 681              	 .loc 1 203 0
 682 004c BD46     	 mov sp,r7
 683              	.LCFI19:
 684              	 .cfi_def_cfa_register 13
 685              	 
 686 004e 5DF8047B 	 ldr r7,[sp],#4
 687              	.LCFI20:
 688              	 .cfi_restore 7
 689              	 .cfi_def_cfa_offset 0
 690 0052 7047     	 bx lr
 691              	.L21:
 692              	 .align 2
 693              	.L20:
 694 0054 00850248 	 .word 1208124672
 695 0058 00800248 	 .word 1208123392
 696 005c 00820248 	 .word 1208123904
 697              	 .cfi_endproc
 698              	.LFE200:
 700              	 .section .text.motion_off,"ax",%progbits
 701              	 .align 2
 702              	 .global motion_off
 703              	 .thumb
 704              	 .thumb_func
 706              	motion_off:
 707              	.LFB201:
 204:../driver_pwm.c **** 
 205:../driver_pwm.c **** void motion_off(void)
 206:../driver_pwm.c **** {
 708              	 .loc 1 206 0
 709              	 .cfi_startproc
 710              	 
 711              	 
 712              	 
 713 0000 80B4     	 push {r7}
 714              	.LCFI21:
 715              	 .cfi_def_cfa_offset 4
 716              	 .cfi_offset 7,-4
 717 0002 00AF     	 add r7,sp,#0
 718              	.LCFI22:
 719              	 .cfi_def_cfa_register 7
 207:../driver_pwm.c **** /*
 208:../driver_pwm.c ****  * PWM pins configuration CCU80 - OFF
 209:../driver_pwm.c ****  */
 210:../driver_pwm.c **** 	PORT5->IOCR8 &= ~(DISABLE_OUTPUT << PORT5_PC11_POS); 		// A_HIGH 	- P5.11 - OUT00
 720              	 .loc 1 210 0
 721 0004 134A     	 ldr r2,.L23
 722 0006 134B     	 ldr r3,.L23
 723 0008 9B69     	 ldr r3,[r3,#24]
 724 000a 23F07843 	 bic r3,r3,#-134217728
 725 000e 9361     	 str r3,[r2,#24]
 211:../driver_pwm.c **** 	PORT5->IOCR8 &= ~(DISABLE_OUTPUT << PORT5_PC8_POS);			// A_LOW 	- P5.8  - OUT01
 726              	 .loc 1 211 0
 727 0010 104A     	 ldr r2,.L23
 728 0012 104B     	 ldr r3,.L23
 729 0014 9B69     	 ldr r3,[r3,#24]
 730 0016 23F0F803 	 bic r3,r3,#248
 731 001a 9361     	 str r3,[r2,#24]
 212:../driver_pwm.c **** 
 213:../driver_pwm.c **** 	PORT0->IOCR4 &= ~(DISABLE_OUTPUT << PORT0_IOCR4_PC4_Pos);	// B_HIGH 	- P5.10 - OUT10 P0.4 alternat
 732              	 .loc 1 213 0
 733 001c 0E4A     	 ldr r2,.L23+4
 734 001e 0E4B     	 ldr r3,.L23+4
 735 0020 5B69     	 ldr r3,[r3,#20]
 736 0022 23F0F803 	 bic r3,r3,#248
 737 0026 5361     	 str r3,[r2,#20]
 214:../driver_pwm.c **** 	PORT2->IOCR12 &=~(DISABLE_OUTPUT << PORT2_PC15_POS);		// B_LOW 	- P2.15 - OUT11
 738              	 .loc 1 214 0
 739 0028 0C4A     	 ldr r2,.L23+8
 740 002a 0C4B     	 ldr r3,.L23+8
 741 002c DB69     	 ldr r3,[r3,#28]
 742 002e 23F07843 	 bic r3,r3,#-134217728
 743 0032 D361     	 str r3,[r2,#28]
 215:../driver_pwm.c **** 
 216:../driver_pwm.c **** 	PORT5->IOCR8 &= ~(DISABLE_OUTPUT << PORT5_PC9_POS);			// C_HIGH 	- P5.9	- OUT20
 744              	 .loc 1 216 0
 745 0034 074A     	 ldr r2,.L23
 746 0036 074B     	 ldr r3,.L23
 747 0038 9B69     	 ldr r3,[r3,#24]
 748 003a 23F47843 	 bic r3,r3,#63488
 749 003e 9361     	 str r3,[r2,#24]
 217:../driver_pwm.c **** 	PORT2->IOCR12 &=~(DISABLE_OUTPUT << PORT2_PC14_POS);		// C_LOW 	- P2.14	- OUT21
 750              	 .loc 1 217 0
 751 0040 064A     	 ldr r2,.L23+8
 752 0042 064B     	 ldr r3,.L23+8
 753 0044 DB69     	 ldr r3,[r3,#28]
 754 0046 23F47803 	 bic r3,r3,#16252928
 755 004a D361     	 str r3,[r2,#28]
 218:../driver_pwm.c **** 
 219:../driver_pwm.c **** }
 756              	 .loc 1 219 0
 757 004c BD46     	 mov sp,r7
 758              	.LCFI23:
 759              	 .cfi_def_cfa_register 13
 760              	 
 761 004e 5DF8047B 	 ldr r7,[sp],#4
 762              	.LCFI24:
 763              	 .cfi_restore 7
 764              	 .cfi_def_cfa_offset 0
 765 0052 7047     	 bx lr
 766              	.L24:
 767              	 .align 2
 768              	.L23:
 769 0054 00850248 	 .word 1208124672
 770 0058 00800248 	 .word 1208123392
 771 005c 00820248 	 .word 1208123904
 772              	 .cfi_endproc
 773              	.LFE201:
 775              	 .text
 776              	.Letext0:
 777              	 .file 2 "c:\\dave-ide-4.4.2-64bit\\eclipse\\arm-gcc-49\\arm-none-eabi\\include\\machine\\_default_types.h"
 778              	 .file 3 "c:\\dave-ide-4.4.2-64bit\\eclipse\\arm-gcc-49\\arm-none-eabi\\include\\stdint.h"
 779              	 .file 4 "C:/CODE/Licenta/Libraries/CMSIS/Infineon/XMC4800_series/Include/XMC4800.h"
 780              	 .file 5 "C:/CODE/Licenta/Libraries/CMSIS/Include/core_cm4.h"
 781              	 .file 6 "../main.h"