   1              	 .syntax unified
   2              	 .cpu cortex-m4
   3              	 .eabi_attribute 27,3
   4              	 .fpu fpv4-sp-d16
   5              	 .eabi_attribute 20,1
   6              	 .eabi_attribute 21,1
   7              	 .eabi_attribute 23,3
   8              	 .eabi_attribute 24,1
   9              	 .eabi_attribute 25,1
  10              	 .eabi_attribute 26,1
  11              	 .eabi_attribute 30,6
  12              	 .eabi_attribute 34,1
  13              	 .eabi_attribute 18,4
  14              	 .thumb
  15              	 .file "kernel_interrupt.c"
  16              	 .text
  17              	.Ltext0:
  18              	 .cfi_sections .debug_frame
  19              	 .comm CCU8_CC8_CR1_CR1_Value,4,4
  20              	 .global interrupt_counter_slow_loop
  21              	 .section .bss.interrupt_counter_slow_loop,"aw",%nobits
  22              	 .align 1
  25              	interrupt_counter_slow_loop:
  26 0000 0000     	 .space 2
  27              	 .global interrupt_counter_fast_loop
  28              	 .section .bss.interrupt_counter_fast_loop,"aw",%nobits
  29              	 .align 1
  32              	interrupt_counter_fast_loop:
  33 0000 0000     	 .space 2
  34              	 .global interrupt_counter_timer
  35              	 .section .bss.interrupt_counter_timer,"aw",%nobits
  36              	 .align 2
  39              	interrupt_counter_timer:
  40 0000 00000000 	 .space 4
  41              	 .global test
  42              	 .section .data.test,"aw",%progbits
  45              	test:
  46 0000 01       	 .byte 1
  47              	 .section .text.VADC0_G0_2_IRQHandler,"ax",%progbits
  48              	 .align 2
  49              	 .global VADC0_G0_2_IRQHandler
  50              	 .thumb
  51              	 .thumb_func
  53              	VADC0_G0_2_IRQHandler:
  54              	.LFB196:
  55              	 .file 1 "../kernel_interrupt.c"
   1:../kernel_interrupt.c **** #include <stdint.h>
   2:../kernel_interrupt.c **** #include <stdbool.h>
   3:../kernel_interrupt.c **** #include <xmc_common.h> // includes stdint stdbool stdef stdstring
   4:../kernel_interrupt.c **** #include "driver_pwm.h"
   5:../kernel_interrupt.c **** #include "main.h"
   6:../kernel_interrupt.c **** #include "motor_data_update.h"
   7:../kernel_interrupt.c **** #include "driver_adc.h"
   8:../kernel_interrupt.c **** #include "transform.h"
   9:../kernel_interrupt.c **** #include "io.h"
  10:../kernel_interrupt.c **** #include <probe_scope.h>
  11:../kernel_interrupt.c **** #include "Encoder.h"
  12:../kernel_interrupt.c **** #include "timer.h"
  13:../kernel_interrupt.c **** #include "motor_data_update.h"
  14:../kernel_interrupt.c **** #include "state_machine.h"
  15:../kernel_interrupt.c **** #include "pi_regulator.h"
  16:../kernel_interrupt.c **** #include "reference_generator.h"
  17:../kernel_interrupt.c **** #include "current_protection.h"
  18:../kernel_interrupt.c **** #include "kernel_interrupt.h"
  19:../kernel_interrupt.c **** 
  20:../kernel_interrupt.c **** uint16_t interrupt_counter_slow_loop = 0; // Slow Loop counter
  21:../kernel_interrupt.c **** uint16_t interrupt_counter_fast_loop = 0; // Fast Loop couner
  22:../kernel_interrupt.c **** uint32_t interrupt_counter_timer = 0;	  // Timer Counter
  23:../kernel_interrupt.c **** uint8_t test = 1;
  24:../kernel_interrupt.c **** 
  25:../kernel_interrupt.c **** /********************************************************************/
  26:../kernel_interrupt.c **** //// FOR TESTING
  27:../kernel_interrupt.c **** //  float_t signal_ia_test = 0, signal_ib_test = 0, signal_ic_test = 0;
  28:../kernel_interrupt.c **** //  float_t increment_2_pi = 0;
  29:../kernel_interrupt.c **** //  float_t sin_increment_2_pi, cos_increment_2_pi;
  30:../kernel_interrupt.c **** //  float_t sin_plus_cos;
  31:../kernel_interrupt.c **** /********************************************************************/
  32:../kernel_interrupt.c **** 
  33:../kernel_interrupt.c **** void VADC0_G0_2_IRQHandler(void)
  34:../kernel_interrupt.c **** {
  56              	 .loc 1 34 0
  57              	 .cfi_startproc
  58              	 
  59              	 
  60 0000 80B5     	 push {r7,lr}
  61              	.LCFI0:
  62              	 .cfi_def_cfa_offset 8
  63              	 .cfi_offset 7,-8
  64              	 .cfi_offset 14,-4
  65 0002 82B0     	 sub sp,sp,#8
  66              	.LCFI1:
  67              	 .cfi_def_cfa_offset 16
  68 0004 00AF     	 add r7,sp,#0
  69              	.LCFI2:
  70              	 .cfi_def_cfa_register 7
  35:../kernel_interrupt.c **** 	interrupt_counter_slow_loop++;
  71              	 .loc 1 35 0
  72 0006 4A4B     	 ldr r3,.L11
  73 0008 1B88     	 ldrh r3,[r3]
  74 000a 0133     	 adds r3,r3,#1
  75 000c 9AB2     	 uxth r2,r3
  76 000e 484B     	 ldr r3,.L11
  77 0010 1A80     	 strh r2,[r3]
  36:../kernel_interrupt.c **** 	interrupt_counter_fast_loop++;
  78              	 .loc 1 36 0
  79 0012 484B     	 ldr r3,.L11+4
  80 0014 1B88     	 ldrh r3,[r3]
  81 0016 0133     	 adds r3,r3,#1
  82 0018 9AB2     	 uxth r2,r3
  83 001a 464B     	 ldr r3,.L11+4
  84 001c 1A80     	 strh r2,[r3]
  37:../kernel_interrupt.c **** 	interrupt_counter_timer++;
  85              	 .loc 1 37 0
  86 001e 464B     	 ldr r3,.L11+8
  87 0020 1B68     	 ldr r3,[r3]
  88 0022 0133     	 adds r3,r3,#1
  89 0024 444A     	 ldr r2,.L11+8
  90 0026 1360     	 str r3,[r2]
  38:../kernel_interrupt.c **** 	/*
  39:../kernel_interrupt.c **** 	 * Fast compute "loop"
  40:../kernel_interrupt.c **** 	 * Every 100us compute speed,mechanical/electrical position, field, dq_abc transformation
  41:../kernel_interrupt.c **** 	 */
  42:../kernel_interrupt.c **** 	if (TIME_100_us == interrupt_counter_fast_loop)
  91              	 .loc 1 42 0
  92 0028 424B     	 ldr r3,.L11+4
  93 002a 1B88     	 ldrh r3,[r3]
  94 002c 022B     	 cmp r3,#2
  95 002e 54D1     	 bne .L2
  43:../kernel_interrupt.c **** 	{
  44:../kernel_interrupt.c **** 
  45:../kernel_interrupt.c **** 		// Read and compute into [SI] all currents
  46:../kernel_interrupt.c **** 		read_currents();
  96              	 .loc 1 46 0
  97 0030 FFF7FEFF 	 bl read_currents
  47:../kernel_interrupt.c **** 		compute_currents();
  98              	 .loc 1 47 0
  99 0034 FFF7FEFF 	 bl compute_currents
  48:../kernel_interrupt.c **** 		compute_u_mot();
 100              	 .loc 1 48 0
 101 0038 FFF7FEFF 	 bl compute_u_mot
  49:../kernel_interrupt.c **** 		compute_u_log();
 102              	 .loc 1 49 0
 103 003c FFF7FEFF 	 bl compute_u_log
  50:../kernel_interrupt.c **** 
  51:../kernel_interrupt.c **** 		// Compute all data for motor movement in Operation Enable
  52:../kernel_interrupt.c **** 		if (motion_config)
 104              	 .loc 1 52 0
 105 0040 3E4B     	 ldr r3,.L11+12
 106 0042 1B78     	 ldrb r3,[r3]
 107 0044 002B     	 cmp r3,#0
 108 0046 17D0     	 beq .L3
  53:../kernel_interrupt.c **** 		{
  54:../kernel_interrupt.c **** 			compute_fast_speed();
 109              	 .loc 1 54 0
 110 0048 FFF7FEFF 	 bl compute_fast_speed
  55:../kernel_interrupt.c **** 			compute_fast_mechanical_position();
 111              	 .loc 1 55 0
 112 004c FFF7FEFF 	 bl compute_fast_mechanical_position
  56:../kernel_interrupt.c **** 			compute_fast_electrical_position();
 113              	 .loc 1 56 0
 114 0050 FFF7FEFF 	 bl compute_fast_electrical_position
  57:../kernel_interrupt.c **** 			compute_fast_field();
 115              	 .loc 1 57 0
 116 0054 FFF7FEFF 	 bl compute_fast_field
  58:../kernel_interrupt.c **** 			abc_dq();
 117              	 .loc 1 58 0
 118 0058 FFF7FEFF 	 bl abc_dq
  59:../kernel_interrupt.c **** 
  60:../kernel_interrupt.c **** 			// Add Fast Loop regulators
  61:../kernel_interrupt.c **** 			if (loop_control & I_REF_LOOP_MSK)
 119              	 .loc 1 61 0
 120 005c 384B     	 ldr r3,.L11+16
 121 005e 1B78     	 ldrb r3,[r3]
 122 0060 03F00103 	 and r3,r3,#1
 123 0064 002B     	 cmp r3,#0
 124 0066 03D0     	 beq .L4
  62:../kernel_interrupt.c **** 			{
  63:../kernel_interrupt.c **** 				pi_regulator_i_d();
 125              	 .loc 1 63 0
 126 0068 FFF7FEFF 	 bl pi_regulator_i_d
  64:../kernel_interrupt.c **** 				pi_regulator_i_q();
 127              	 .loc 1 64 0
 128 006c FFF7FEFF 	 bl pi_regulator_i_q
 129              	.L4:
  65:../kernel_interrupt.c **** 			}
  66:../kernel_interrupt.c **** 
  67:../kernel_interrupt.c **** 			dq_abc();
 130              	 .loc 1 67 0
 131 0070 FFF7FEFF 	 bl dq_abc
  68:../kernel_interrupt.c **** //			pwm_update(u_a_ref, u_b_ref, u_c_ref);
  69:../kernel_interrupt.c **** 
  70:../kernel_interrupt.c **** 			ProbeScope_Sampling(); // For Micrium Osciloscope
 132              	 .loc 1 70 0
 133 0074 FFF7FEFF 	 bl ProbeScope_Sampling
 134              	.L3:
  71:../kernel_interrupt.c **** 		}
  72:../kernel_interrupt.c **** 		//***************************************************************
  73:../kernel_interrupt.c **** 		if(test)
 135              	 .loc 1 73 0
 136 0078 324B     	 ldr r3,.L11+20
 137 007a 1B78     	 ldrb r3,[r3]
 138 007c 002B     	 cmp r3,#0
 139 007e 23D0     	 beq .L5
  74:../kernel_interrupt.c **** 		{
  75:../kernel_interrupt.c **** 			compute_fast_speed();
 140              	 .loc 1 75 0
 141 0080 FFF7FEFF 	 bl compute_fast_speed
  76:../kernel_interrupt.c **** 			compute_fast_mechanical_position();
 142              	 .loc 1 76 0
 143 0084 FFF7FEFF 	 bl compute_fast_mechanical_position
  77:../kernel_interrupt.c **** 			compute_fast_electrical_position();
 144              	 .loc 1 77 0
 145 0088 FFF7FEFF 	 bl compute_fast_electrical_position
  78:../kernel_interrupt.c **** 			compute_fast_field();
 146              	 .loc 1 78 0
 147 008c FFF7FEFF 	 bl compute_fast_field
  79:../kernel_interrupt.c **** //			abc_dq();
  80:../kernel_interrupt.c **** 
  81:../kernel_interrupt.c **** //			// Add Fast Loop regulators
  82:../kernel_interrupt.c **** //			if (loop_control & I_REF_LOOP_MSK)
  83:../kernel_interrupt.c **** //			{
  84:../kernel_interrupt.c **** //				pi_regulator_i_d();
  85:../kernel_interrupt.c **** //				pi_regulator_i_q();
  86:../kernel_interrupt.c **** //			}
  87:../kernel_interrupt.c **** 
  88:../kernel_interrupt.c **** 			dq_abc();
 148              	 .loc 1 88 0
 149 0090 FFF7FEFF 	 bl dq_abc
  89:../kernel_interrupt.c **** 			pwm_update(u_a_ref, u_b_ref);
 150              	 .loc 1 89 0
 151 0094 2C4B     	 ldr r3,.L11+24
 152 0096 D3ED007A 	 flds s15,[r3]
 153 009a FDEEE77A 	 ftosizs s15,s15
 154 009e C7ED017A 	 fsts s15,[r7,#4]
 155 00a2 BB88     	 ldrh r3,[r7,#4]
 156 00a4 9AB2     	 uxth r2,r3
 157 00a6 294B     	 ldr r3,.L11+28
 158 00a8 D3ED007A 	 flds s15,[r3]
 159 00ac FDEEE77A 	 ftosizs s15,s15
 160 00b0 C7ED017A 	 fsts s15,[r7,#4]
 161 00b4 BB88     	 ldrh r3,[r7,#4]
 162 00b6 9BB2     	 uxth r3,r3
 163 00b8 12B2     	 sxth r2,r2
 164 00ba 1BB2     	 sxth r3,r3
 165 00bc 1046     	 mov r0,r2
 166 00be 1946     	 mov r1,r3
 167 00c0 FFF7FEFF 	 bl pwm_update
  90:../kernel_interrupt.c **** 
  91:../kernel_interrupt.c **** 			ProbeScope_Sampling(); // For Micrium Osciloscope
 168              	 .loc 1 91 0
 169 00c4 FFF7FEFF 	 bl ProbeScope_Sampling
 170              	.L5:
  92:../kernel_interrupt.c **** 		}
  93:../kernel_interrupt.c **** 		//*****************************************************************
  94:../kernel_interrupt.c **** 
  95:../kernel_interrupt.c **** 		if (prot_status)
 171              	 .loc 1 95 0
 172 00c8 214B     	 ldr r3,.L11+32
 173 00ca 1B78     	 ldrb r3,[r3]
 174 00cc 002B     	 cmp r3,#0
 175 00ce 01D0     	 beq .L6
  96:../kernel_interrupt.c **** 		{
  97:../kernel_interrupt.c **** 			current_protection();
 176              	 .loc 1 97 0
 177 00d0 FFF7FEFF 	 bl current_protection
 178              	.L6:
  98:../kernel_interrupt.c **** 		}
  99:../kernel_interrupt.c **** 
 100:../kernel_interrupt.c **** 		interrupt_counter_fast_loop = 0;
 179              	 .loc 1 100 0
 180 00d4 174B     	 ldr r3,.L11+4
 181 00d6 0022     	 movs r2,#0
 182 00d8 1A80     	 strh r2,[r3]
 183              	.L2:
 101:../kernel_interrupt.c **** 	}
 102:../kernel_interrupt.c **** 	/*
 103:../kernel_interrupt.c **** 	 * Slow compute loop
 104:../kernel_interrupt.c **** 	 * Every 1ms compute speed
 105:../kernel_interrupt.c **** 	 */
 106:../kernel_interrupt.c **** 	if (TIME_1_ms == interrupt_counter_slow_loop)
 184              	 .loc 1 106 0
 185 00da 154B     	 ldr r3,.L11
 186 00dc 1B88     	 ldrh r3,[r3]
 187 00de 142B     	 cmp r3,#20
 188 00e0 23D1     	 bne .L1
 107:../kernel_interrupt.c **** 	{
 108:../kernel_interrupt.c **** 		if (motion_config)
 189              	 .loc 1 108 0
 190 00e2 164B     	 ldr r3,.L11+12
 191 00e4 1B78     	 ldrb r3,[r3]
 192 00e6 002B     	 cmp r3,#0
 193 00e8 1CD0     	 beq .L8
 109:../kernel_interrupt.c **** 		{
 110:../kernel_interrupt.c **** 			compute_speed(); // Compute motor speed and position
 194              	 .loc 1 110 0
 195 00ea FFF7FEFF 	 bl compute_speed
 111:../kernel_interrupt.c **** 
 112:../kernel_interrupt.c **** 			// Reference Generator function and timer
 113:../kernel_interrupt.c **** 			if (STATUS_0_DISABLED != ref_gen_status)
 196              	 .loc 1 113 0
 197 00ee 194B     	 ldr r3,.L11+36
 198 00f0 1B78     	 ldrb r3,[r3]
 199 00f2 002B     	 cmp r3,#0
 200 00f4 06D0     	 beq .L9
 114:../kernel_interrupt.c **** 			{
 115:../kernel_interrupt.c **** 				interrupt_counter_ref_gen++;
 201              	 .loc 1 115 0
 202 00f6 184B     	 ldr r3,.L11+40
 203 00f8 1B68     	 ldr r3,[r3]
 204 00fa 0133     	 adds r3,r3,#1
 205 00fc 164A     	 ldr r2,.L11+40
 206 00fe 1360     	 str r3,[r2]
 116:../kernel_interrupt.c **** 				reference_generator();
 207              	 .loc 1 116 0
 208 0100 FFF7FEFF 	 bl reference_generator
 209              	.L9:
 117:../kernel_interrupt.c **** 			}
 118:../kernel_interrupt.c **** 
 119:../kernel_interrupt.c **** 			// Slow loop regulators
 120:../kernel_interrupt.c **** 			if (loop_control & POS_REF_LOOP_MSK)
 210              	 .loc 1 120 0
 211 0104 0E4B     	 ldr r3,.L11+16
 212 0106 1B78     	 ldrb r3,[r3]
 213 0108 03F00403 	 and r3,r3,#4
 214 010c 002B     	 cmp r3,#0
 215 010e 01D0     	 beq .L10
 121:../kernel_interrupt.c **** 			{
 122:../kernel_interrupt.c **** 				pid_regulator_pos();
 216              	 .loc 1 122 0
 217 0110 FFF7FEFF 	 bl pid_regulator_pos
 218              	.L10:
 123:../kernel_interrupt.c **** 			}
 124:../kernel_interrupt.c **** 			if (loop_control & SPD_REF_LOOP_MSK)
 219              	 .loc 1 124 0
 220 0114 0A4B     	 ldr r3,.L11+16
 221 0116 1B78     	 ldrb r3,[r3]
 222 0118 03F00203 	 and r3,r3,#2
 223 011c 002B     	 cmp r3,#0
 224 011e 01D0     	 beq .L8
 125:../kernel_interrupt.c **** 			{
 126:../kernel_interrupt.c **** 				pi_regulator_speed();
 225              	 .loc 1 126 0
 226 0120 FFF7FEFF 	 bl pi_regulator_speed
 227              	.L8:
 127:../kernel_interrupt.c **** 			}
 128:../kernel_interrupt.c **** 		}
 129:../kernel_interrupt.c **** 
 130:../kernel_interrupt.c **** 		interrupt_counter_slow_loop = 0;
 228              	 .loc 1 130 0
 229 0124 024B     	 ldr r3,.L11
 230 0126 0022     	 movs r2,#0
 231 0128 1A80     	 strh r2,[r3]
 232              	.L1:
 131:../kernel_interrupt.c **** 	}
 132:../kernel_interrupt.c **** }
 233              	 .loc 1 132 0
 234 012a 0837     	 adds r7,r7,#8
 235              	.LCFI3:
 236              	 .cfi_def_cfa_offset 8
 237 012c BD46     	 mov sp,r7
 238              	.LCFI4:
 239              	 .cfi_def_cfa_register 13
 240              	 
 241 012e 80BD     	 pop {r7,pc}
 242              	.L12:
 243              	 .align 2
 244              	.L11:
 245 0130 00000000 	 .word interrupt_counter_slow_loop
 246 0134 00000000 	 .word interrupt_counter_fast_loop
 247 0138 00000000 	 .word interrupt_counter_timer
 248 013c 00000000 	 .word motion_config
 249 0140 00000000 	 .word loop_control
 250 0144 00000000 	 .word test
 251 0148 00000000 	 .word u_a_ref
 252 014c 00000000 	 .word u_b_ref
 253 0150 00000000 	 .word prot_status
 254 0154 00000000 	 .word ref_gen_status
 255 0158 00000000 	 .word interrupt_counter_ref_gen
 256              	 .cfi_endproc
 257              	.LFE196:
 259              	 .section .text.CCU81_0_IRQHandler,"ax",%progbits
 260              	 .align 2
 261              	 .global CCU81_0_IRQHandler
 262              	 .thumb
 263              	 .thumb_func
 265              	CCU81_0_IRQHandler:
 266              	.LFB197:
 133:../kernel_interrupt.c **** 
 134:../kernel_interrupt.c **** /*
 135:../kernel_interrupt.c ****  * Interrupt with low priority every 0.2ms
 136:../kernel_interrupt.c ****  */
 137:../kernel_interrupt.c **** void CCU81_0_IRQHandler(void)
 138:../kernel_interrupt.c **** {
 267              	 .loc 1 138 0
 268              	 .cfi_startproc
 269              	 
 270              	 
 271              	 
 272 0000 80B4     	 push {r7}
 273              	.LCFI5:
 274              	 .cfi_def_cfa_offset 4
 275              	 .cfi_offset 7,-4
 276 0002 00AF     	 add r7,sp,#0
 277              	.LCFI6:
 278              	 .cfi_def_cfa_register 7
 139:../kernel_interrupt.c **** 	// interrupt_counter_timer++;
 140:../kernel_interrupt.c **** }
 279              	 .loc 1 140 0
 280 0004 BD46     	 mov sp,r7
 281              	.LCFI7:
 282              	 .cfi_def_cfa_register 13
 283              	 
 284 0006 5DF8047B 	 ldr r7,[sp],#4
 285              	.LCFI8:
 286              	 .cfi_restore 7
 287              	 .cfi_def_cfa_offset 0
 288 000a 7047     	 bx lr
 289              	 .cfi_endproc
 290              	.LFE197:
 292              	 .text
 293              	.Letext0:
 294              	 .file 2 "c:\\dave-ide-4.4.2-64bit\\eclipse\\arm-gcc-49\\arm-none-eabi\\include\\machine\\_default_types.h"
 295              	 .file 3 "c:\\dave-ide-4.4.2-64bit\\eclipse\\arm-gcc-49\\arm-none-eabi\\include\\stdint.h"
 296              	 .file 4 "c:\\dave-ide-4.4.2-64bit\\eclipse\\arm-gcc-49\\arm-none-eabi\\include\\math.h"
 297              	 .file 5 "../reference_generator.h"
 298              	 .file 6 "C:/GitHub/Stepper_drive/Libraries/CMSIS/Include/core_cm4.h"
 299              	 .file 7 "../main.h"
 300              	 .file 8 "../driver_adc.h"
 301              	 .file 9 "../transform.h"
 302              	 .file 10 "../state_machine.h"