   1              	 .syntax unified
   2              	 .cpu cortex-m4
   3              	 .eabi_attribute 27,3
   4              	 .fpu fpv4-sp-d16
   5              	 .eabi_attribute 20,1
   6              	 .eabi_attribute 21,1
   7              	 .eabi_attribute 23,3
   8              	 .eabi_attribute 24,1
   9              	 .eabi_attribute 25,1
  10              	 .eabi_attribute 26,1
  11              	 .eabi_attribute 30,6
  12              	 .eabi_attribute 34,1
  13              	 .eabi_attribute 18,4
  14              	 .thumb
  15              	 .file "main.c"
  16              	 .text
  17              	.Ltext0:
  18              	 .cfi_sections .debug_frame
  19              	 .comm CCU8_CC8_CR1_CR1_Value,4,4
  20              	 .section .text.infinite_loop,"ax",%progbits
  21              	 .align 2
  22              	 .global infinite_loop
  23              	 .thumb
  24              	 .thumb_func
  26              	infinite_loop:
  27              	.LFB361:
  28              	 .file 1 "../main.c"
   1:../main.c     **** #include <stdint.h>
   2:../main.c     **** #include <stdbool.h>
   3:../main.c     **** #include <xmc_common.h> // includes stdint stdbool stdef stdstring
   4:../main.c     **** #include "driver_pwm.h"
   5:../main.c     **** #include "main.h"
   6:../main.c     **** #include <xmc_vadc.h>
   7:../main.c     **** #include <xmc_ccu4.h>
   8:../main.c     **** #include <kernel_interrupt.h>
   9:../main.c     **** #include "io.h"
  10:../main.c     **** #include "timer.h"
  11:../main.c     **** #include "Encoder.h"
  12:../main.c     **** #include <probe_scope.h>
  13:../main.c     **** #include "driver_adc.h"
  14:../main.c     **** #include "transform.h"
  15:../main.c     **** #include "motor_data_update.h"
  16:../main.c     **** #include "state_machine.h"
  17:../main.c     **** #include "current_protection.h"
  18:../main.c     **** #include "pi_regulator.h"
  19:../main.c     **** 
  20:../main.c     **** void infinite_loop(void)
  21:../main.c     **** {
  29              	 .loc 1 21 0
  30              	 .cfi_startproc
  31              	 
  32              	 
  33 0000 80B5     	 push {r7,lr}
  34              	.LCFI0:
  35              	 .cfi_def_cfa_offset 8
  36              	 .cfi_offset 7,-8
  37              	 .cfi_offset 14,-4
  38 0002 00AF     	 add r7,sp,#0
  39              	.LCFI1:
  40              	 .cfi_def_cfa_register 7
  22:../main.c     **** 	state_machine();
  41              	 .loc 1 22 0
  42 0004 FFF7FEFF 	 bl state_machine
  23:../main.c     **** }
  43              	 .loc 1 23 0
  44 0008 80BD     	 pop {r7,pc}
  45              	 .cfi_endproc
  46              	.LFE361:
  48 000a 00BF     	 .section .text.main,"ax",%progbits
  49              	 .align 2
  50              	 .global main
  51              	 .thumb
  52              	 .thumb_func
  54              	main:
  55              	.LFB362:
  24:../main.c     **** 
  25:../main.c     **** int main(void)
  26:../main.c     **** {
  56              	 .loc 1 26 0
  57              	 .cfi_startproc
  58              	 
  59              	 
  60 0000 80B5     	 push {r7,lr}
  61              	.LCFI2:
  62              	 .cfi_def_cfa_offset 8
  63              	 .cfi_offset 7,-8
  64              	 .cfi_offset 14,-4
  65 0002 00AF     	 add r7,sp,#0
  66              	.LCFI3:
  67              	 .cfi_def_cfa_register 7
  27:../main.c     **** 	interrupt_vadc_init();	// Interrupts generated by the VADC - sets up the CCU80 - CC83
  68              	 .loc 1 27 0
  69 0004 FFF7FEFF 	 bl interrupt_vadc_init
  28:../main.c     **** 	pwm_init();				// PWM & clock initialization - CC80/81/82
  70              	 .loc 1 28 0
  71 0008 FFF7FEFF 	 bl pwm_init
  29:../main.c     **** 	encoder_init();			// Encoder initialization
  72              	 .loc 1 29 0
  73 000c FFF7FEFF 	 bl encoder_init
  30:../main.c     **** 	adc_init();				// VADC initialization
  74              	 .loc 1 30 0
  75 0010 FFF7FEFF 	 bl adc_init
  31:../main.c     **** 	ProbeScope_Init(10000); // Initialize Oscilloscope for Micrium - imported
  76              	 .loc 1 31 0
  77 0014 42F21070 	 movw r0,#10000
  78 0018 FFF7FEFF 	 bl ProbeScope_Init
  79              	.LBB4:
  80              	.LBB5:
  81              	 .file 2 "C:/GitHub/Stepper_drive/Libraries/CMSIS/Include/cmsis_gcc.h"
   1:C:/GitHub/Stepper_drive/Libraries/CMSIS/Include\cmsis_gcc.h **** /**************************************************************************//**
   2:C:/GitHub/Stepper_drive/Libraries/CMSIS/Include\cmsis_gcc.h ****  * @file     cmsis_gcc.h
   3:C:/GitHub/Stepper_drive/Libraries/CMSIS/Include\cmsis_gcc.h ****  * @brief    CMSIS compiler GCC header file
   4:C:/GitHub/Stepper_drive/Libraries/CMSIS/Include\cmsis_gcc.h ****  * @version  V5.1.0
   5:C:/GitHub/Stepper_drive/Libraries/CMSIS/Include\cmsis_gcc.h ****  * @date     20. December 2018
   6:C:/GitHub/Stepper_drive/Libraries/CMSIS/Include\cmsis_gcc.h ****  ******************************************************************************/
   7:C:/GitHub/Stepper_drive/Libraries/CMSIS/Include\cmsis_gcc.h **** /*
   8:C:/GitHub/Stepper_drive/Libraries/CMSIS/Include\cmsis_gcc.h ****  * Copyright (c) 2009-2018 Arm Limited. All rights reserved.
   9:C:/GitHub/Stepper_drive/Libraries/CMSIS/Include\cmsis_gcc.h ****  *
  10:C:/GitHub/Stepper_drive/Libraries/CMSIS/Include\cmsis_gcc.h ****  * SPDX-License-Identifier: Apache-2.0
  11:C:/GitHub/Stepper_drive/Libraries/CMSIS/Include\cmsis_gcc.h ****  *
  12:C:/GitHub/Stepper_drive/Libraries/CMSIS/Include\cmsis_gcc.h ****  * Licensed under the Apache License, Version 2.0 (the License); you may
  13:C:/GitHub/Stepper_drive/Libraries/CMSIS/Include\cmsis_gcc.h ****  * not use this file except in compliance with the License.
  14:C:/GitHub/Stepper_drive/Libraries/CMSIS/Include\cmsis_gcc.h ****  * You may obtain a copy of the License at
  15:C:/GitHub/Stepper_drive/Libraries/CMSIS/Include\cmsis_gcc.h ****  *
  16:C:/GitHub/Stepper_drive/Libraries/CMSIS/Include\cmsis_gcc.h ****  * www.apache.org/licenses/LICENSE-2.0
  17:C:/GitHub/Stepper_drive/Libraries/CMSIS/Include\cmsis_gcc.h ****  *
  18:C:/GitHub/Stepper_drive/Libraries/CMSIS/Include\cmsis_gcc.h ****  * Unless required by applicable law or agreed to in writing, software
  19:C:/GitHub/Stepper_drive/Libraries/CMSIS/Include\cmsis_gcc.h ****  * distributed under the License is distributed on an AS IS BASIS, WITHOUT
  20:C:/GitHub/Stepper_drive/Libraries/CMSIS/Include\cmsis_gcc.h ****  * WARRANTIES OR CONDITIONS OF ANY KIND, either express or implied.
  21:C:/GitHub/Stepper_drive/Libraries/CMSIS/Include\cmsis_gcc.h ****  * See the License for the specific language governing permissions and
  22:C:/GitHub/Stepper_drive/Libraries/CMSIS/Include\cmsis_gcc.h ****  * limitations under the License.
  23:C:/GitHub/Stepper_drive/Libraries/CMSIS/Include\cmsis_gcc.h ****  */
  24:C:/GitHub/Stepper_drive/Libraries/CMSIS/Include\cmsis_gcc.h **** 
  25:C:/GitHub/Stepper_drive/Libraries/CMSIS/Include\cmsis_gcc.h **** #ifndef __CMSIS_GCC_H
  26:C:/GitHub/Stepper_drive/Libraries/CMSIS/Include\cmsis_gcc.h **** #define __CMSIS_GCC_H
  27:C:/GitHub/Stepper_drive/Libraries/CMSIS/Include\cmsis_gcc.h **** 
  28:C:/GitHub/Stepper_drive/Libraries/CMSIS/Include\cmsis_gcc.h **** /* ignore some GCC warnings */
  29:C:/GitHub/Stepper_drive/Libraries/CMSIS/Include\cmsis_gcc.h **** #pragma GCC diagnostic push
  30:C:/GitHub/Stepper_drive/Libraries/CMSIS/Include\cmsis_gcc.h **** #pragma GCC diagnostic ignored "-Wsign-conversion"
  31:C:/GitHub/Stepper_drive/Libraries/CMSIS/Include\cmsis_gcc.h **** #pragma GCC diagnostic ignored "-Wconversion"
  32:C:/GitHub/Stepper_drive/Libraries/CMSIS/Include\cmsis_gcc.h **** #pragma GCC diagnostic ignored "-Wunused-parameter"
  33:C:/GitHub/Stepper_drive/Libraries/CMSIS/Include\cmsis_gcc.h **** 
  34:C:/GitHub/Stepper_drive/Libraries/CMSIS/Include\cmsis_gcc.h **** /* Fallback for __has_builtin */
  35:C:/GitHub/Stepper_drive/Libraries/CMSIS/Include\cmsis_gcc.h **** #ifndef __has_builtin
  36:C:/GitHub/Stepper_drive/Libraries/CMSIS/Include\cmsis_gcc.h ****   #define __has_builtin(x) (0)
  37:C:/GitHub/Stepper_drive/Libraries/CMSIS/Include\cmsis_gcc.h **** #endif
  38:C:/GitHub/Stepper_drive/Libraries/CMSIS/Include\cmsis_gcc.h **** 
  39:C:/GitHub/Stepper_drive/Libraries/CMSIS/Include\cmsis_gcc.h **** /* CMSIS compiler specific defines */
  40:C:/GitHub/Stepper_drive/Libraries/CMSIS/Include\cmsis_gcc.h **** #ifndef   __ASM
  41:C:/GitHub/Stepper_drive/Libraries/CMSIS/Include\cmsis_gcc.h ****   #define __ASM                                  __asm
  42:C:/GitHub/Stepper_drive/Libraries/CMSIS/Include\cmsis_gcc.h **** #endif
  43:C:/GitHub/Stepper_drive/Libraries/CMSIS/Include\cmsis_gcc.h **** #ifndef   __INLINE
  44:C:/GitHub/Stepper_drive/Libraries/CMSIS/Include\cmsis_gcc.h ****   #define __INLINE                               inline
  45:C:/GitHub/Stepper_drive/Libraries/CMSIS/Include\cmsis_gcc.h **** #endif
  46:C:/GitHub/Stepper_drive/Libraries/CMSIS/Include\cmsis_gcc.h **** #ifndef   __STATIC_INLINE
  47:C:/GitHub/Stepper_drive/Libraries/CMSIS/Include\cmsis_gcc.h ****   #define __STATIC_INLINE                        static inline
  48:C:/GitHub/Stepper_drive/Libraries/CMSIS/Include\cmsis_gcc.h **** #endif
  49:C:/GitHub/Stepper_drive/Libraries/CMSIS/Include\cmsis_gcc.h **** #ifndef   __STATIC_FORCEINLINE                 
  50:C:/GitHub/Stepper_drive/Libraries/CMSIS/Include\cmsis_gcc.h ****   #define __STATIC_FORCEINLINE                   __attribute__((always_inline)) static inline
  51:C:/GitHub/Stepper_drive/Libraries/CMSIS/Include\cmsis_gcc.h **** #endif                                           
  52:C:/GitHub/Stepper_drive/Libraries/CMSIS/Include\cmsis_gcc.h **** #ifndef   __NO_RETURN
  53:C:/GitHub/Stepper_drive/Libraries/CMSIS/Include\cmsis_gcc.h ****   #define __NO_RETURN                            __attribute__((__noreturn__))
  54:C:/GitHub/Stepper_drive/Libraries/CMSIS/Include\cmsis_gcc.h **** #endif
  55:C:/GitHub/Stepper_drive/Libraries/CMSIS/Include\cmsis_gcc.h **** #ifndef   __USED
  56:C:/GitHub/Stepper_drive/Libraries/CMSIS/Include\cmsis_gcc.h ****   #define __USED                                 __attribute__((used))
  57:C:/GitHub/Stepper_drive/Libraries/CMSIS/Include\cmsis_gcc.h **** #endif
  58:C:/GitHub/Stepper_drive/Libraries/CMSIS/Include\cmsis_gcc.h **** #ifndef   __WEAK
  59:C:/GitHub/Stepper_drive/Libraries/CMSIS/Include\cmsis_gcc.h ****   #define __WEAK                                 __attribute__((weak))
  60:C:/GitHub/Stepper_drive/Libraries/CMSIS/Include\cmsis_gcc.h **** #endif
  61:C:/GitHub/Stepper_drive/Libraries/CMSIS/Include\cmsis_gcc.h **** #ifndef   __PACKED
  62:C:/GitHub/Stepper_drive/Libraries/CMSIS/Include\cmsis_gcc.h ****   #define __PACKED                               __attribute__((packed, aligned(1)))
  63:C:/GitHub/Stepper_drive/Libraries/CMSIS/Include\cmsis_gcc.h **** #endif
  64:C:/GitHub/Stepper_drive/Libraries/CMSIS/Include\cmsis_gcc.h **** #ifndef   __PACKED_STRUCT
  65:C:/GitHub/Stepper_drive/Libraries/CMSIS/Include\cmsis_gcc.h ****   #define __PACKED_STRUCT                        struct __attribute__((packed, aligned(1)))
  66:C:/GitHub/Stepper_drive/Libraries/CMSIS/Include\cmsis_gcc.h **** #endif
  67:C:/GitHub/Stepper_drive/Libraries/CMSIS/Include\cmsis_gcc.h **** #ifndef   __PACKED_UNION
  68:C:/GitHub/Stepper_drive/Libraries/CMSIS/Include\cmsis_gcc.h ****   #define __PACKED_UNION                         union __attribute__((packed, aligned(1)))
  69:C:/GitHub/Stepper_drive/Libraries/CMSIS/Include\cmsis_gcc.h **** #endif
  70:C:/GitHub/Stepper_drive/Libraries/CMSIS/Include\cmsis_gcc.h **** #ifndef   __UNALIGNED_UINT32        /* deprecated */
  71:C:/GitHub/Stepper_drive/Libraries/CMSIS/Include\cmsis_gcc.h ****   #pragma GCC diagnostic push
  72:C:/GitHub/Stepper_drive/Libraries/CMSIS/Include\cmsis_gcc.h ****   #pragma GCC diagnostic ignored "-Wpacked"
  73:C:/GitHub/Stepper_drive/Libraries/CMSIS/Include\cmsis_gcc.h ****   #pragma GCC diagnostic ignored "-Wattributes"
  74:C:/GitHub/Stepper_drive/Libraries/CMSIS/Include\cmsis_gcc.h ****   struct __attribute__((packed)) T_UINT32 { uint32_t v; };
  75:C:/GitHub/Stepper_drive/Libraries/CMSIS/Include\cmsis_gcc.h ****   #pragma GCC diagnostic pop
  76:C:/GitHub/Stepper_drive/Libraries/CMSIS/Include\cmsis_gcc.h ****   #define __UNALIGNED_UINT32(x)                  (((struct T_UINT32 *)(x))->v)
  77:C:/GitHub/Stepper_drive/Libraries/CMSIS/Include\cmsis_gcc.h **** #endif
  78:C:/GitHub/Stepper_drive/Libraries/CMSIS/Include\cmsis_gcc.h **** #ifndef   __UNALIGNED_UINT16_WRITE
  79:C:/GitHub/Stepper_drive/Libraries/CMSIS/Include\cmsis_gcc.h ****   #pragma GCC diagnostic push
  80:C:/GitHub/Stepper_drive/Libraries/CMSIS/Include\cmsis_gcc.h ****   #pragma GCC diagnostic ignored "-Wpacked"
  81:C:/GitHub/Stepper_drive/Libraries/CMSIS/Include\cmsis_gcc.h ****   #pragma GCC diagnostic ignored "-Wattributes"
  82:C:/GitHub/Stepper_drive/Libraries/CMSIS/Include\cmsis_gcc.h ****   __PACKED_STRUCT T_UINT16_WRITE { uint16_t v; };
  83:C:/GitHub/Stepper_drive/Libraries/CMSIS/Include\cmsis_gcc.h ****   #pragma GCC diagnostic pop
  84:C:/GitHub/Stepper_drive/Libraries/CMSIS/Include\cmsis_gcc.h ****   #define __UNALIGNED_UINT16_WRITE(addr, val)    (void)((((struct T_UINT16_WRITE *)(void *)(addr))-
  85:C:/GitHub/Stepper_drive/Libraries/CMSIS/Include\cmsis_gcc.h **** #endif
  86:C:/GitHub/Stepper_drive/Libraries/CMSIS/Include\cmsis_gcc.h **** #ifndef   __UNALIGNED_UINT16_READ
  87:C:/GitHub/Stepper_drive/Libraries/CMSIS/Include\cmsis_gcc.h ****   #pragma GCC diagnostic push
  88:C:/GitHub/Stepper_drive/Libraries/CMSIS/Include\cmsis_gcc.h ****   #pragma GCC diagnostic ignored "-Wpacked"
  89:C:/GitHub/Stepper_drive/Libraries/CMSIS/Include\cmsis_gcc.h ****   #pragma GCC diagnostic ignored "-Wattributes"
  90:C:/GitHub/Stepper_drive/Libraries/CMSIS/Include\cmsis_gcc.h ****   __PACKED_STRUCT T_UINT16_READ { uint16_t v; };
  91:C:/GitHub/Stepper_drive/Libraries/CMSIS/Include\cmsis_gcc.h ****   #pragma GCC diagnostic pop
  92:C:/GitHub/Stepper_drive/Libraries/CMSIS/Include\cmsis_gcc.h ****   #define __UNALIGNED_UINT16_READ(addr)          (((const struct T_UINT16_READ *)(const void *)(add
  93:C:/GitHub/Stepper_drive/Libraries/CMSIS/Include\cmsis_gcc.h **** #endif
  94:C:/GitHub/Stepper_drive/Libraries/CMSIS/Include\cmsis_gcc.h **** #ifndef   __UNALIGNED_UINT32_WRITE
  95:C:/GitHub/Stepper_drive/Libraries/CMSIS/Include\cmsis_gcc.h ****   #pragma GCC diagnostic push
  96:C:/GitHub/Stepper_drive/Libraries/CMSIS/Include\cmsis_gcc.h ****   #pragma GCC diagnostic ignored "-Wpacked"
  97:C:/GitHub/Stepper_drive/Libraries/CMSIS/Include\cmsis_gcc.h ****   #pragma GCC diagnostic ignored "-Wattributes"
  98:C:/GitHub/Stepper_drive/Libraries/CMSIS/Include\cmsis_gcc.h ****   __PACKED_STRUCT T_UINT32_WRITE { uint32_t v; };
  99:C:/GitHub/Stepper_drive/Libraries/CMSIS/Include\cmsis_gcc.h ****   #pragma GCC diagnostic pop
 100:C:/GitHub/Stepper_drive/Libraries/CMSIS/Include\cmsis_gcc.h ****   #define __UNALIGNED_UINT32_WRITE(addr, val)    (void)((((struct T_UINT32_WRITE *)(void *)(addr))-
 101:C:/GitHub/Stepper_drive/Libraries/CMSIS/Include\cmsis_gcc.h **** #endif
 102:C:/GitHub/Stepper_drive/Libraries/CMSIS/Include\cmsis_gcc.h **** #ifndef   __UNALIGNED_UINT32_READ
 103:C:/GitHub/Stepper_drive/Libraries/CMSIS/Include\cmsis_gcc.h ****   #pragma GCC diagnostic push
 104:C:/GitHub/Stepper_drive/Libraries/CMSIS/Include\cmsis_gcc.h ****   #pragma GCC diagnostic ignored "-Wpacked"
 105:C:/GitHub/Stepper_drive/Libraries/CMSIS/Include\cmsis_gcc.h ****   #pragma GCC diagnostic ignored "-Wattributes"
 106:C:/GitHub/Stepper_drive/Libraries/CMSIS/Include\cmsis_gcc.h ****   __PACKED_STRUCT T_UINT32_READ { uint32_t v; };
 107:C:/GitHub/Stepper_drive/Libraries/CMSIS/Include\cmsis_gcc.h ****   #pragma GCC diagnostic pop
 108:C:/GitHub/Stepper_drive/Libraries/CMSIS/Include\cmsis_gcc.h ****   #define __UNALIGNED_UINT32_READ(addr)          (((const struct T_UINT32_READ *)(const void *)(add
 109:C:/GitHub/Stepper_drive/Libraries/CMSIS/Include\cmsis_gcc.h **** #endif
 110:C:/GitHub/Stepper_drive/Libraries/CMSIS/Include\cmsis_gcc.h **** #ifndef   __ALIGNED
 111:C:/GitHub/Stepper_drive/Libraries/CMSIS/Include\cmsis_gcc.h ****   #define __ALIGNED(x)                           __attribute__((aligned(x)))
 112:C:/GitHub/Stepper_drive/Libraries/CMSIS/Include\cmsis_gcc.h **** #endif
 113:C:/GitHub/Stepper_drive/Libraries/CMSIS/Include\cmsis_gcc.h **** #ifndef   __RESTRICT
 114:C:/GitHub/Stepper_drive/Libraries/CMSIS/Include\cmsis_gcc.h ****   #define __RESTRICT                             __restrict
 115:C:/GitHub/Stepper_drive/Libraries/CMSIS/Include\cmsis_gcc.h **** #endif
 116:C:/GitHub/Stepper_drive/Libraries/CMSIS/Include\cmsis_gcc.h **** 
 117:C:/GitHub/Stepper_drive/Libraries/CMSIS/Include\cmsis_gcc.h **** 
 118:C:/GitHub/Stepper_drive/Libraries/CMSIS/Include\cmsis_gcc.h **** /* ###########################  Core Function Access  ########################### */
 119:C:/GitHub/Stepper_drive/Libraries/CMSIS/Include\cmsis_gcc.h **** /** \ingroup  CMSIS_Core_FunctionInterface
 120:C:/GitHub/Stepper_drive/Libraries/CMSIS/Include\cmsis_gcc.h ****     \defgroup CMSIS_Core_RegAccFunctions CMSIS Core Register Access Functions
 121:C:/GitHub/Stepper_drive/Libraries/CMSIS/Include\cmsis_gcc.h ****   @{
 122:C:/GitHub/Stepper_drive/Libraries/CMSIS/Include\cmsis_gcc.h ****  */
 123:C:/GitHub/Stepper_drive/Libraries/CMSIS/Include\cmsis_gcc.h **** 
 124:C:/GitHub/Stepper_drive/Libraries/CMSIS/Include\cmsis_gcc.h **** /**
 125:C:/GitHub/Stepper_drive/Libraries/CMSIS/Include\cmsis_gcc.h ****   \brief   Enable IRQ Interrupts
 126:C:/GitHub/Stepper_drive/Libraries/CMSIS/Include\cmsis_gcc.h ****   \details Enables IRQ interrupts by clearing the I-bit in the CPSR.
 127:C:/GitHub/Stepper_drive/Libraries/CMSIS/Include\cmsis_gcc.h ****            Can only be executed in Privileged modes.
 128:C:/GitHub/Stepper_drive/Libraries/CMSIS/Include\cmsis_gcc.h ****  */
 129:C:/GitHub/Stepper_drive/Libraries/CMSIS/Include\cmsis_gcc.h **** __STATIC_FORCEINLINE void __enable_irq(void)
 130:C:/GitHub/Stepper_drive/Libraries/CMSIS/Include\cmsis_gcc.h **** {
 131:C:/GitHub/Stepper_drive/Libraries/CMSIS/Include\cmsis_gcc.h ****   __ASM volatile ("cpsie i" : : : "memory");
  82              	 .loc 2 131 0
  83              	
  84 001c 62B6     	 cpsie i
  85              	
  86              	 .thumb
  87              	.LBE5:
  88              	.LBE4:
  32:../main.c     **** 	//	encoder_interrupt_init();	// Interrupt generated by Encoder
  33:../main.c     **** 	__enable_irq();			// built in interrupt enable function
  34:../main.c     **** 	pi_init();
  89              	 .loc 1 34 0
  90 001e FFF7FEFF 	 bl pi_init
  91              	.L3:
  35:../main.c     **** 
  36:../main.c     **** 
  37:../main.c     **** //	init_io();
  38:../main.c     **** 
  39:../main.c     **** 
  40:../main.c     **** 	while (1U)
  41:../main.c     **** 	{
  42:../main.c     **** 		/* Infinite loop */
  43:../main.c     **** 		infinite_loop();
  92              	 .loc 1 43 0 discriminator 1
  93 0022 FFF7FEFF 	 bl infinite_loop
  44:../main.c     **** 	}
  94              	 .loc 1 44 0 discriminator 1
  95 0026 FCE7     	 b .L3
  96              	 .cfi_endproc
  97              	.LFE362:
  99              	 .text
 100              	.Letext0:
 101              	 .file 3 "c:\\dave-ide-4.4.2-64bit\\eclipse\\arm-gcc-49\\arm-none-eabi\\include\\machine\\_default_types.h"
 102              	 .file 4 "c:\\dave-ide-4.4.2-64bit\\eclipse\\arm-gcc-49\\arm-none-eabi\\include\\stdint.h"
 103              	 .file 5 "C:/GitHub/Stepper_drive/Libraries/CMSIS/Include/core_cm4.h"
 104              	 .file 6 "C:/GitHub/Stepper_drive/Libraries/CMSIS/Infineon/XMC4800_series/Include/system_XMC4800.h"
 105              	 .file 7 "../main.h"