
Stepper_drive.elf:     file format elf32-littlearm

Sections:
Idx Name          Size      VMA       LMA       File off  Algn
  0 .text         00005828  08000000  0c000000  00008000  2**3
                  CONTENTS, ALLOC, LOAD, READONLY, CODE
  1 Stack         00000800  1ffe8000  1ffe8000  00018000  2**0
                  ALLOC
  2 .data         00000020  1ffe8800  0c005828  00010800  2**2
                  CONTENTS, ALLOC, LOAD, DATA
  3 .bss          00007fd8  1ffe8820  0c005848  00010820  2**2
                  ALLOC
  4 .no_init      00000014  2003ffc0  2003ffc0  00017fc0  2**2
                  ALLOC
  5 .debug_aranges 000003c8  00000000  00000000  00010820  2**3
                  CONTENTS, READONLY, DEBUGGING
  6 .debug_info   00007251  00000000  00000000  00010be8  2**0
                  CONTENTS, READONLY, DEBUGGING
  7 .debug_abbrev 00001080  00000000  00000000  00017e39  2**0
                  CONTENTS, READONLY, DEBUGGING
  8 .debug_line   000020d5  00000000  00000000  00018eb9  2**0
                  CONTENTS, READONLY, DEBUGGING
  9 .debug_frame  00000d60  00000000  00000000  0001af90  2**2
                  CONTENTS, READONLY, DEBUGGING
 10 .debug_str    00001ddb  00000000  00000000  0001bcf0  2**0
                  CONTENTS, READONLY, DEBUGGING
 11 .debug_loc    0000132c  00000000  00000000  0001dacb  2**0
                  CONTENTS, READONLY, DEBUGGING
 12 .debug_ranges 000002b8  00000000  00000000  0001edf7  2**0
                  CONTENTS, READONLY, DEBUGGING
 13 .build_attributes 0000061c  00000000  00000000  0001f0af  2**0
                  CONTENTS, READONLY

Disassembly of section .text:

08000000 <__Vectors>:
 8000000:	00 88 fe 1f 01 02 00 08 99 02 00 08 99 02 00 08     ................
 8000010:	99 02 00 08 99 02 00 08 99 02 00 08 00 00 00 00     ................
	...
 800002c:	99 02 00 08 99 02 00 08 00 00 00 00 99 02 00 08     ................
 800003c:	99 02 00 08 99 02 00 08 29 07 00 08 99 02 00 08     ........).......
 800004c:	99 02 00 08 99 02 00 08 99 02 00 08 99 02 00 08     ................
 800005c:	99 02 00 08 99 02 00 08 00 00 00 00 00 00 00 00     ................
 800006c:	00 00 00 00 99 02 00 08 00 00 00 00 99 02 00 08     ................
 800007c:	99 02 00 08 99 02 00 08 99 02 00 08 99 02 00 08     ................
 800008c:	99 02 00 08 89 19 00 08 99 02 00 08 99 02 00 08     ................
 800009c:	99 02 00 08 99 02 00 08 99 02 00 08 99 02 00 08     ................
 80000ac:	99 02 00 08 99 02 00 08 99 02 00 08 99 02 00 08     ................
 80000bc:	99 02 00 08 99 02 00 08 99 02 00 08 99 02 00 08     ................
 80000cc:	99 02 00 08 99 02 00 08 99 02 00 08 99 02 00 08     ................
 80000dc:	99 02 00 08 99 02 00 08 99 02 00 08 99 02 00 08     ................
 80000ec:	99 02 00 08 99 02 00 08 99 02 00 08 99 02 00 08     ................
 80000fc:	99 02 00 08 99 02 00 08 99 02 00 08 99 02 00 08     ................
 800010c:	99 02 00 08 99 02 00 08 99 02 00 08 99 02 00 08     ................
 800011c:	99 02 00 08 99 02 00 08 99 02 00 08 99 02 00 08     ................
 800012c:	99 02 00 08 99 02 00 08 99 02 00 08 99 02 00 08     ................
 800013c:	99 02 00 08 c1 1a 00 08 99 02 00 08 99 02 00 08     ................
 800014c:	99 02 00 08 99 02 00 08 99 02 00 08 99 02 00 08     ................
 800015c:	99 02 00 08 00 00 00 00 00 00 00 00 00 00 00 00     ................
 800016c:	00 00 00 00 99 02 00 08 99 02 00 08 99 02 00 08     ................
 800017c:	99 02 00 08 99 02 00 08 99 02 00 08 99 02 00 08     ................
 800018c:	99 02 00 08 99 02 00 08 99 02 00 08 99 02 00 08     ................
 800019c:	99 02 00 08 99 02 00 08 99 02 00 08 99 02 00 08     ................
 80001ac:	99 02 00 08 99 02 00 08 99 02 00 08 99 02 00 08     ................
 80001bc:	99 02 00 08 99 02 00 08 99 02 00 08 99 02 00 08     ................
 80001cc:	99 02 00 08 99 02 00 08 99 02 00 08 99 02 00 08     ................
 80001dc:	00 00 00 00 99 02 00 08 99 02 00 08 99 02 00 08     ................
 80001ec:	99 02 00 08 99 02 00 08 99 02 00 08 99 02 00 08     ................
 80001fc:	00 00 00 00                                         ....

08000200 <Reset_Handler>:
/* Reset Handler */
    .thumb_func
    .globl  Reset_Handler
    .type   Reset_Handler, %function
Reset_Handler:
    ldr sp,=__initial_sp
 8000200:	f8df d074 	ldr.w	sp, [pc, #116]	; 8000278 <__zero_table_end__>

#ifndef __SKIP_SYSTEM_INIT
    ldr  r0, =SystemInit
 8000204:	481d      	ldr	r0, [pc, #116]	; (800027c <__zero_table_end__+0x4>)
    blx  r0
 8000206:	4780      	blx	r0
 *    offset 4: VMA of start of a section to copy to
 *    offset 8: size of the section to copy. Must be multiply of 4
 *
 *  All addresses must be aligned to 4 bytes boundary.
 */
    ldr r4, =__copy_table_start__
 8000208:	4c1d      	ldr	r4, [pc, #116]	; (8000280 <__zero_table_end__+0x8>)
    ldr r5, =__copy_table_end__
 800020a:	4d1e      	ldr	r5, [pc, #120]	; (8000284 <__zero_table_end__+0xc>)

.L_loop0:
    cmp r4, r5
 800020c:	42ac      	cmp	r4, r5
    bge .L_loop0_done
 800020e:	da09      	bge.n	8000224 <Reset_Handler+0x24>
    ldr r1, [r4]
 8000210:	6821      	ldr	r1, [r4, #0]
    ldr r2, [r4, #4]
 8000212:	6862      	ldr	r2, [r4, #4]
    ldr r3, [r4, #8]
 8000214:	68a3      	ldr	r3, [r4, #8]

.L_loop0_0:
    subs    r3, #4
 8000216:	3b04      	subs	r3, #4
    ittt    ge
 8000218:	bfa2      	ittt	ge
    ldrge   r0, [r1, r3]
 800021a:	58c8      	ldrge	r0, [r1, r3]
    strge   r0, [r2, r3]
 800021c:	50d0      	strge	r0, [r2, r3]
    bge .L_loop0_0
 800021e:	e7fa      	bge.n	8000216 <Reset_Handler+0x16>

    adds    r4, #12
 8000220:	340c      	adds	r4, #12
    b   .L_loop0
 8000222:	e7f3      	b.n	800020c <Reset_Handler+0xc>
 *    offset 4: Size of this BSS section. Must be multiply of 4
 *
 *  Define __SKIP_BSS_CLEAR to disable zeroing uninitialzed data in startup.
 */    
#ifndef __SKIP_BSS_CLEAR
    ldr r3, =__zero_table_start__
 8000224:	4b18      	ldr	r3, [pc, #96]	; (8000288 <__zero_table_end__+0x10>)
    ldr r4, =__zero_table_end__
 8000226:	4c19      	ldr	r4, [pc, #100]	; (800028c <__zero_table_end__+0x14>)

.L_loop2:
    cmp r3, r4
 8000228:	42a3      	cmp	r3, r4
    bge .L_loop2_done
 800022a:	da08      	bge.n	800023e <Reset_Handler+0x3e>
    ldr r1, [r3]
 800022c:	6819      	ldr	r1, [r3, #0]
    ldr r2, [r3, #4]
 800022e:	685a      	ldr	r2, [r3, #4]
    movs    r0, 0
 8000230:	2000      	movs	r0, #0

.L_loop2_0:
    subs    r2, #4
 8000232:	3a04      	subs	r2, #4
    itt ge
 8000234:	bfa4      	itt	ge
    strge   r0, [r1, r2]
 8000236:	5088      	strge	r0, [r1, r2]
    bge .L_loop2_0
 8000238:	e7fb      	bge.n	8000232 <Reset_Handler+0x32>

    adds    r3, #8
 800023a:	3308      	adds	r3, #8
    b   .L_loop2
 800023c:	e7f4      	b.n	8000228 <Reset_Handler+0x28>
.L_loop2_done:    
#endif /* __SKIP_BSS_CLEAR */
   
#ifndef __SKIP_LIBC_INIT_ARRAY
    ldr  r0, =__libc_init_array
 800023e:	4814      	ldr	r0, [pc, #80]	; (8000290 <__zero_table_end__+0x18>)
    blx  r0
 8000240:	4780      	blx	r0
#endif

    ldr  r0, =main
 8000242:	4814      	ldr	r0, [pc, #80]	; (8000294 <__zero_table_end__+0x1c>)
    blx  r0
 8000244:	4780      	blx	r0
	...

08000248 <__copy_table_start__>:
 8000248:	0c005828 	.word	0x0c005828
 800024c:	1ffe8800 	.word	0x1ffe8800
 8000250:	00000020 	.word	0x00000020
 8000254:	0c005828 	.word	0x0c005828
 8000258:	1ffe8800 	.word	0x1ffe8800
 800025c:	00000000 	.word	0x00000000

08000260 <__copy_table_end__>:
 8000260:	1ffe8820 	.word	0x1ffe8820
 8000264:	00007fd8 	.word	0x00007fd8
 8000268:	20000000 	.word	0x20000000
 800026c:	00000000 	.word	0x00000000
 8000270:	20000000 	.word	0x20000000
 8000274:	00000000 	.word	0x00000000

08000278 <__zero_table_end__>:
/* Reset Handler */
    .thumb_func
    .globl  Reset_Handler
    .type   Reset_Handler, %function
Reset_Handler:
    ldr sp,=__initial_sp
 8000278:	1ffe8800 	.word	0x1ffe8800

#ifndef __SKIP_SYSTEM_INIT
    ldr  r0, =SystemInit
 800027c:	080002c5 	.word	0x080002c5
 *    offset 4: VMA of start of a section to copy to
 *    offset 8: size of the section to copy. Must be multiply of 4
 *
 *  All addresses must be aligned to 4 bytes boundary.
 */
    ldr r4, =__copy_table_start__
 8000280:	08000248 	.word	0x08000248
    ldr r5, =__copy_table_end__
 8000284:	08000260 	.word	0x08000260
 *    offset 4: Size of this BSS section. Must be multiply of 4
 *
 *  Define __SKIP_BSS_CLEAR to disable zeroing uninitialzed data in startup.
 */    
#ifndef __SKIP_BSS_CLEAR
    ldr r3, =__zero_table_start__
 8000288:	08000260 	.word	0x08000260
    ldr r4, =__zero_table_end__
 800028c:	08000278 	.word	0x08000278
    b   .L_loop2
.L_loop2_done:    
#endif /* __SKIP_BSS_CLEAR */
   
#ifndef __SKIP_LIBC_INIT_ARRAY
    ldr  r0, =__libc_init_array
 8000290:	08005409 	.word	0x08005409
    blx  r0
#endif

    ldr  r0, =main
 8000294:	08001ad9 	.word	0x08001ad9

08000298 <BusFault_Handler>:
    .align  1
    .thumb_func
    .weak Default_Handler
    .type Default_Handler, %function
Default_Handler:
    b .
 8000298:	e7fe      	b.n	8000298 <BusFault_Handler>
	...

0800029c <delay>:

/*******************************************************************************
 * LOCAL FUNCTIONS
 *******************************************************************************/
static void delay(uint32_t cycles)
{
 800029c:	b480      	push	{r7}
 800029e:	b085      	sub	sp, #20
 80002a0:	af00      	add	r7, sp, #0
 80002a2:	6078      	str	r0, [r7, #4]
  volatile uint32_t i;

  for(i = 0UL; i < cycles ;++i)
 80002a4:	2300      	movs	r3, #0
 80002a6:	60fb      	str	r3, [r7, #12]
 80002a8:	e003      	b.n	80002b2 <delay+0x16>
  {
    __NOP();
 80002aa:	bf00      	nop
 *******************************************************************************/
static void delay(uint32_t cycles)
{
  volatile uint32_t i;

  for(i = 0UL; i < cycles ;++i)
 80002ac:	68fb      	ldr	r3, [r7, #12]
 80002ae:	3301      	adds	r3, #1
 80002b0:	60fb      	str	r3, [r7, #12]
 80002b2:	68fa      	ldr	r2, [r7, #12]
 80002b4:	687b      	ldr	r3, [r7, #4]
 80002b6:	429a      	cmp	r2, r3
 80002b8:	d3f7      	bcc.n	80002aa <delay+0xe>
  {
    __NOP();
  }
}
 80002ba:	3714      	adds	r7, #20
 80002bc:	46bd      	mov	sp, r7
 80002be:	f85d 7b04 	ldr.w	r7, [sp], #4
 80002c2:	4770      	bx	lr

080002c4 <SystemInit>:
/*******************************************************************************
 * API IMPLEMENTATION
 *******************************************************************************/

__WEAK void SystemInit(void)
{
 80002c4:	b598      	push	{r3, r4, r7, lr}
 80002c6:	af00      	add	r7, sp, #0
  memcpy(g_chipid, CHIPID_LOC, 16);
 80002c8:	4a05      	ldr	r2, [pc, #20]	; (80002e0 <SystemInit+0x1c>)
 80002ca:	f04f 5300 	mov.w	r3, #536870912	; 0x20000000
 80002ce:	4614      	mov	r4, r2
 80002d0:	cb0f      	ldmia	r3, {r0, r1, r2, r3}
 80002d2:	e884 000f 	stmia.w	r4, {r0, r1, r2, r3}

  SystemCoreSetup();
 80002d6:	f000 f805 	bl	80002e4 <SystemCoreSetup>
  SystemCoreClockSetup();
 80002da:	f000 f83b 	bl	8000354 <SystemCoreClockSetup>
}
 80002de:	bd98      	pop	{r3, r4, r7, pc}
 80002e0:	2003ffc4 	.word	0x2003ffc4

080002e4 <SystemCoreSetup>:

__WEAK void SystemCoreSetup(void)
{
 80002e4:	b480      	push	{r7}
 80002e6:	b083      	sub	sp, #12
 80002e8:	af00      	add	r7, sp, #0
  \details Disables IRQ interrupts by setting the I-bit in the CPSR.
           Can only be executed in Privileged modes.
 */
__STATIC_FORCEINLINE void __disable_irq(void)
{
  __ASM volatile ("cpsid i" : : : "memory");
 80002ea:	b672      	cpsid	i
  uint32_t temp;

  /* relocate vector table */
  __disable_irq();
  SCB->VTOR = (uint32_t)(&__Vectors);
 80002ec:	4b16      	ldr	r3, [pc, #88]	; (8000348 <SystemCoreSetup+0x64>)
 80002ee:	4a17      	ldr	r2, [pc, #92]	; (800034c <SystemCoreSetup+0x68>)
 80002f0:	609a      	str	r2, [r3, #8]
  \details Acts as a special kind of Data Memory Barrier.
           It completes when all explicit memory accesses before this instruction complete.
 */
__STATIC_FORCEINLINE void __DSB(void)
{
  __ASM volatile ("dsb 0xF":::"memory");
 80002f2:	f3bf 8f4f 	dsb	sy
  \details Enables IRQ interrupts by clearing the I-bit in the CPSR.
           Can only be executed in Privileged modes.
 */
__STATIC_FORCEINLINE void __enable_irq(void)
{
  __ASM volatile ("cpsie i" : : : "memory");
 80002f6:	b662      	cpsie	i
  /* __FPU_USED value depends on compiler/linker options. */
  /* __FPU_USED = 0 if -mfloat-abi=soft is selected */
  /* __FPU_USED = 1 if -mfloat-abi=softfp or –mfloat-abi=hard */

#if ((__FPU_PRESENT == 1) && (__FPU_USED == 1))
  SCB->CPACR |= ((3UL << 10*2) |                 /* set CP10 Full Access */
 80002f8:	4a13      	ldr	r2, [pc, #76]	; (8000348 <SystemCoreSetup+0x64>)
 80002fa:	4b13      	ldr	r3, [pc, #76]	; (8000348 <SystemCoreSetup+0x64>)
 80002fc:	f8d3 3088 	ldr.w	r3, [r3, #136]	; 0x88
 8000300:	f443 0370 	orr.w	r3, r3, #15728640	; 0xf00000
 8000304:	f8c2 3088 	str.w	r3, [r2, #136]	; 0x88
#else
  SCB->CPACR = 0;
#endif

  /* Enable unaligned memory access - SCB_CCR.UNALIGN_TRP = 0 */
  SCB->CCR &= ~(SCB_CCR_UNALIGN_TRP_Msk);
 8000308:	4a0f      	ldr	r2, [pc, #60]	; (8000348 <SystemCoreSetup+0x64>)
 800030a:	4b0f      	ldr	r3, [pc, #60]	; (8000348 <SystemCoreSetup+0x64>)
 800030c:	695b      	ldr	r3, [r3, #20]
 800030e:	f023 0308 	bic.w	r3, r3, #8
 8000312:	6153      	str	r3, [r2, #20]

  temp = FLASH0->FCON;
 8000314:	4b0e      	ldr	r3, [pc, #56]	; (8000350 <SystemCoreSetup+0x6c>)
 8000316:	f503 5380 	add.w	r3, r3, #4096	; 0x1000
 800031a:	3314      	adds	r3, #20
 800031c:	681b      	ldr	r3, [r3, #0]
 800031e:	607b      	str	r3, [r7, #4]
  temp &= ~FLASH_FCON_WSPFLASH_Msk;
 8000320:	687b      	ldr	r3, [r7, #4]
 8000322:	f023 030f 	bic.w	r3, r3, #15
 8000326:	607b      	str	r3, [r7, #4]
  temp |= PMU_FLASH_WS;
 8000328:	687b      	ldr	r3, [r7, #4]
 800032a:	f043 0304 	orr.w	r3, r3, #4
 800032e:	607b      	str	r3, [r7, #4]
  FLASH0->FCON = temp;
 8000330:	4b07      	ldr	r3, [pc, #28]	; (8000350 <SystemCoreSetup+0x6c>)
 8000332:	f503 5380 	add.w	r3, r3, #4096	; 0x1000
 8000336:	3314      	adds	r3, #20
 8000338:	687a      	ldr	r2, [r7, #4]
 800033a:	601a      	str	r2, [r3, #0]
}
 800033c:	370c      	adds	r7, #12
 800033e:	46bd      	mov	sp, r7
 8000340:	f85d 7b04 	ldr.w	r7, [sp], #4
 8000344:	4770      	bx	lr
 8000346:	bf00      	nop
 8000348:	e000ed00 	.word	0xe000ed00
 800034c:	08000000 	.word	0x08000000
 8000350:	58001000 	.word	0x58001000

08000354 <SystemCoreClockSetup>:

__WEAK void SystemCoreClockSetup(void)
{
 8000354:	b580      	push	{r7, lr}
 8000356:	af00      	add	r7, sp, #0
#else
  /* Automatic calibration uses the fSTDBY */

  /* Enable HIB domain */
  /* Power up HIB domain if and only if it is currently powered down */
  if((SCU_POWER->PWRSTAT & SCU_POWER_PWRSTAT_HIBEN_Msk) == 0)
 8000358:	4ba4      	ldr	r3, [pc, #656]	; (80005ec <SystemCoreClockSetup+0x298>)
 800035a:	681b      	ldr	r3, [r3, #0]
 800035c:	f003 0301 	and.w	r3, r3, #1
 8000360:	2b00      	cmp	r3, #0
 8000362:	d10c      	bne.n	800037e <SystemCoreClockSetup+0x2a>
  {
    SCU_POWER->PWRSET |= SCU_POWER_PWRSET_HIB_Msk;
 8000364:	4aa1      	ldr	r2, [pc, #644]	; (80005ec <SystemCoreClockSetup+0x298>)
 8000366:	4ba1      	ldr	r3, [pc, #644]	; (80005ec <SystemCoreClockSetup+0x298>)
 8000368:	685b      	ldr	r3, [r3, #4]
 800036a:	f043 0301 	orr.w	r3, r3, #1
 800036e:	6053      	str	r3, [r2, #4]

    while((SCU_POWER->PWRSTAT & SCU_POWER_PWRSTAT_HIBEN_Msk) == 0)
 8000370:	bf00      	nop
 8000372:	4b9e      	ldr	r3, [pc, #632]	; (80005ec <SystemCoreClockSetup+0x298>)
 8000374:	681b      	ldr	r3, [r3, #0]
 8000376:	f003 0301 	and.w	r3, r3, #1
 800037a:	2b00      	cmp	r3, #0
 800037c:	d0f9      	beq.n	8000372 <SystemCoreClockSetup+0x1e>
      /* wait until HIB domain is enabled */
    }
  }

  /* Remove the reset only if HIB domain were in a state of reset */
  if((SCU_RESET->RSTSTAT) & SCU_RESET_RSTSTAT_HIBRS_Msk)
 800037e:	4b9c      	ldr	r3, [pc, #624]	; (80005f0 <SystemCoreClockSetup+0x29c>)
 8000380:	681b      	ldr	r3, [r3, #0]
 8000382:	f403 7300 	and.w	r3, r3, #512	; 0x200
 8000386:	2b00      	cmp	r3, #0
 8000388:	d009      	beq.n	800039e <SystemCoreClockSetup+0x4a>
  {
    SCU_RESET->RSTCLR |= SCU_RESET_RSTCLR_HIBRS_Msk;
 800038a:	4a99      	ldr	r2, [pc, #612]	; (80005f0 <SystemCoreClockSetup+0x29c>)
 800038c:	4b98      	ldr	r3, [pc, #608]	; (80005f0 <SystemCoreClockSetup+0x29c>)
 800038e:	689b      	ldr	r3, [r3, #8]
 8000390:	f443 7300 	orr.w	r3, r3, #512	; 0x200
 8000394:	6093      	str	r3, [r2, #8]
    delay(DELAY_CNT_150US_50MHZ);
 8000396:	f641 504c 	movw	r0, #7500	; 0x1d4c
 800039a:	f7ff ff7f 	bl	800029c <delay>
  }
  SCU_HIBERNATE->HDCR |= SCU_HIBERNATE_HDCR_RCS_Msk | SCU_HIBERNATE_HDCR_STDBYSEL_Msk;
#endif /* STDBY_CLOCK_SRC == STDBY_CLOCK_SRC_OSCULP */

  /* Enable automatic calibration of internal fast oscillator */
  SCU_PLL->PLLCON0 |= SCU_PLL_PLLCON0_AOTREN_Msk;
 800039e:	4a95      	ldr	r2, [pc, #596]	; (80005f4 <SystemCoreClockSetup+0x2a0>)
 80003a0:	4b94      	ldr	r3, [pc, #592]	; (80005f4 <SystemCoreClockSetup+0x2a0>)
 80003a2:	685b      	ldr	r3, [r3, #4]
 80003a4:	f443 2300 	orr.w	r3, r3, #524288	; 0x80000
 80003a8:	6053      	str	r3, [r2, #4]
#endif /* FOFI_CALIBRATION_MODE == FOFI_CALIBRATION_MODE_AUTOMATIC */

  delay(DELAY_CNT_50US_50MHZ);
 80003aa:	f640 10c4 	movw	r0, #2500	; 0x9c4
 80003ae:	f7ff ff75 	bl	800029c <delay>

#if ENABLE_PLL

  /* enable PLL */
  SCU_PLL->PLLCON0 &= ~(SCU_PLL_PLLCON0_VCOPWD_Msk | SCU_PLL_PLLCON0_PLLPWD_Msk);
 80003b2:	4a90      	ldr	r2, [pc, #576]	; (80005f4 <SystemCoreClockSetup+0x2a0>)
 80003b4:	4b8f      	ldr	r3, [pc, #572]	; (80005f4 <SystemCoreClockSetup+0x2a0>)
 80003b6:	685b      	ldr	r3, [r3, #4]
 80003b8:	f423 3380 	bic.w	r3, r3, #65536	; 0x10000
 80003bc:	f023 0302 	bic.w	r3, r3, #2
 80003c0:	6053      	str	r3, [r2, #4]

#if PLL_CLOCK_SRC != PLL_CLOCK_SRC_OFI
  /* enable OSC_HP */
  if ((SCU_OSC->OSCHPCTRL & SCU_OSC_OSCHPCTRL_MODE_Msk) != 0U)
 80003c2:	4b8d      	ldr	r3, [pc, #564]	; (80005f8 <SystemCoreClockSetup+0x2a4>)
 80003c4:	685b      	ldr	r3, [r3, #4]
 80003c6:	f003 0330 	and.w	r3, r3, #48	; 0x30
 80003ca:	2b00      	cmp	r3, #0
 80003cc:	d029      	beq.n	8000422 <SystemCoreClockSetup+0xce>
  {
    SCU_OSC->OSCHPCTRL &= ~(SCU_OSC_OSCHPCTRL_MODE_Msk | SCU_OSC_OSCHPCTRL_OSCVAL_Msk);
 80003ce:	4a8a      	ldr	r2, [pc, #552]	; (80005f8 <SystemCoreClockSetup+0x2a4>)
 80003d0:	4b89      	ldr	r3, [pc, #548]	; (80005f8 <SystemCoreClockSetup+0x2a4>)
 80003d2:	685b      	ldr	r3, [r3, #4]
 80003d4:	f423 2370 	bic.w	r3, r3, #983040	; 0xf0000
 80003d8:	f023 0330 	bic.w	r3, r3, #48	; 0x30
 80003dc:	6053      	str	r3, [r2, #4]
    SCU_OSC->OSCHPCTRL |= ((OSCHP_GetFrequency() / FOSCREF) - 1UL) << SCU_OSC_OSCHPCTRL_OSCVAL_Pos;
 80003de:	f000 f993 	bl	8000708 <OSCHP_GetFrequency>
 80003e2:	4602      	mov	r2, r0
 80003e4:	4b85      	ldr	r3, [pc, #532]	; (80005fc <SystemCoreClockSetup+0x2a8>)
 80003e6:	fba3 2302 	umull	r2, r3, r3, r2
 80003ea:	0d1b      	lsrs	r3, r3, #20
 80003ec:	3b01      	subs	r3, #1
 80003ee:	041b      	lsls	r3, r3, #16
 80003f0:	4981      	ldr	r1, [pc, #516]	; (80005f8 <SystemCoreClockSetup+0x2a4>)
 80003f2:	4a81      	ldr	r2, [pc, #516]	; (80005f8 <SystemCoreClockSetup+0x2a4>)
 80003f4:	6852      	ldr	r2, [r2, #4]
 80003f6:	4313      	orrs	r3, r2
 80003f8:	604b      	str	r3, [r1, #4]

    /* select OSC_HP clock as PLL input */
    SCU_PLL->PLLCON2 &= ~SCU_PLL_PLLCON2_PINSEL_Msk;
 80003fa:	4a7e      	ldr	r2, [pc, #504]	; (80005f4 <SystemCoreClockSetup+0x2a0>)
 80003fc:	4b7d      	ldr	r3, [pc, #500]	; (80005f4 <SystemCoreClockSetup+0x2a0>)
 80003fe:	68db      	ldr	r3, [r3, #12]
 8000400:	f023 0301 	bic.w	r3, r3, #1
 8000404:	60d3      	str	r3, [r2, #12]

    /* restart OSC Watchdog */
    SCU_PLL->PLLCON0 &= ~SCU_PLL_PLLCON0_OSCRES_Msk;
 8000406:	4a7b      	ldr	r2, [pc, #492]	; (80005f4 <SystemCoreClockSetup+0x2a0>)
 8000408:	4b7a      	ldr	r3, [pc, #488]	; (80005f4 <SystemCoreClockSetup+0x2a0>)
 800040a:	685b      	ldr	r3, [r3, #4]
 800040c:	f423 3300 	bic.w	r3, r3, #131072	; 0x20000
 8000410:	6053      	str	r3, [r2, #4]

    while ((SCU_PLL->PLLSTAT & SCU_PLL_PLLSTAT_OSC_USABLE) != SCU_PLL_PLLSTAT_OSC_USABLE)
 8000412:	bf00      	nop
 8000414:	4b77      	ldr	r3, [pc, #476]	; (80005f4 <SystemCoreClockSetup+0x2a0>)
 8000416:	681b      	ldr	r3, [r3, #0]
 8000418:	f403 7360 	and.w	r3, r3, #896	; 0x380
 800041c:	f5b3 7f60 	cmp.w	r3, #896	; 0x380
 8000420:	d1f8      	bne.n	8000414 <SystemCoreClockSetup+0xc0>
  /* select backup clock as PLL input */
  SCU_PLL->PLLCON2 |= SCU_PLL_PLLCON2_PINSEL_Msk;
#endif

  /* Go to bypass the Main PLL */
  SCU_PLL->PLLCON0 |= SCU_PLL_PLLCON0_VCOBYP_Msk;
 8000422:	4a74      	ldr	r2, [pc, #464]	; (80005f4 <SystemCoreClockSetup+0x2a0>)
 8000424:	4b73      	ldr	r3, [pc, #460]	; (80005f4 <SystemCoreClockSetup+0x2a0>)
 8000426:	685b      	ldr	r3, [r3, #4]
 8000428:	f043 0301 	orr.w	r3, r3, #1
 800042c:	6053      	str	r3, [r2, #4]

  /* disconnect Oscillator from PLL */
  SCU_PLL->PLLCON0 |= SCU_PLL_PLLCON0_FINDIS_Msk;
 800042e:	4a71      	ldr	r2, [pc, #452]	; (80005f4 <SystemCoreClockSetup+0x2a0>)
 8000430:	4b70      	ldr	r3, [pc, #448]	; (80005f4 <SystemCoreClockSetup+0x2a0>)
 8000432:	685b      	ldr	r3, [r3, #4]
 8000434:	f043 0310 	orr.w	r3, r3, #16
 8000438:	6053      	str	r3, [r2, #4]

  /* Setup divider settings for main PLL */
  SCU_PLL->PLLCON1 = ((PLL_NDIV << SCU_PLL_PLLCON1_NDIV_Pos) |
 800043a:	4b6e      	ldr	r3, [pc, #440]	; (80005f4 <SystemCoreClockSetup+0x2a0>)
 800043c:	4a70      	ldr	r2, [pc, #448]	; (8000600 <SystemCoreClockSetup+0x2ac>)
 800043e:	609a      	str	r2, [r3, #8]
                      (PLL_K2DIV_24MHZ << SCU_PLL_PLLCON1_K2DIV_Pos) |
                      (PLL_PDIV << SCU_PLL_PLLCON1_PDIV_Pos));

  /* Set OSCDISCDIS */
  SCU_PLL->PLLCON0 |= SCU_PLL_PLLCON0_OSCDISCDIS_Msk;
 8000440:	4a6c      	ldr	r2, [pc, #432]	; (80005f4 <SystemCoreClockSetup+0x2a0>)
 8000442:	4b6c      	ldr	r3, [pc, #432]	; (80005f4 <SystemCoreClockSetup+0x2a0>)
 8000444:	685b      	ldr	r3, [r3, #4]
 8000446:	f043 0340 	orr.w	r3, r3, #64	; 0x40
 800044a:	6053      	str	r3, [r2, #4]

  /* connect Oscillator to PLL */
  SCU_PLL->PLLCON0 &= ~SCU_PLL_PLLCON0_FINDIS_Msk;
 800044c:	4a69      	ldr	r2, [pc, #420]	; (80005f4 <SystemCoreClockSetup+0x2a0>)
 800044e:	4b69      	ldr	r3, [pc, #420]	; (80005f4 <SystemCoreClockSetup+0x2a0>)
 8000450:	685b      	ldr	r3, [r3, #4]
 8000452:	f023 0310 	bic.w	r3, r3, #16
 8000456:	6053      	str	r3, [r2, #4]

  /* restart PLL Lock detection */
  SCU_PLL->PLLCON0 |= SCU_PLL_PLLCON0_RESLD_Msk;
 8000458:	4a66      	ldr	r2, [pc, #408]	; (80005f4 <SystemCoreClockSetup+0x2a0>)
 800045a:	4b66      	ldr	r3, [pc, #408]	; (80005f4 <SystemCoreClockSetup+0x2a0>)
 800045c:	685b      	ldr	r3, [r3, #4]
 800045e:	f443 2380 	orr.w	r3, r3, #262144	; 0x40000
 8000462:	6053      	str	r3, [r2, #4]

  while ((SCU_PLL->PLLSTAT & SCU_PLL_PLLSTAT_VCOLOCK_Msk) == 0U)
 8000464:	bf00      	nop
 8000466:	4b63      	ldr	r3, [pc, #396]	; (80005f4 <SystemCoreClockSetup+0x2a0>)
 8000468:	681b      	ldr	r3, [r3, #0]
 800046a:	f003 0304 	and.w	r3, r3, #4
 800046e:	2b00      	cmp	r3, #0
 8000470:	d0f9      	beq.n	8000466 <SystemCoreClockSetup+0x112>
  {
    /* wait for PLL Lock at 24MHz*/
  }

  /* Disable bypass- put PLL clock back */
  SCU_PLL->PLLCON0 &= ~SCU_PLL_PLLCON0_VCOBYP_Msk;
 8000472:	4a60      	ldr	r2, [pc, #384]	; (80005f4 <SystemCoreClockSetup+0x2a0>)
 8000474:	4b5f      	ldr	r3, [pc, #380]	; (80005f4 <SystemCoreClockSetup+0x2a0>)
 8000476:	685b      	ldr	r3, [r3, #4]
 8000478:	f023 0301 	bic.w	r3, r3, #1
 800047c:	6053      	str	r3, [r2, #4]
  while ((SCU_PLL->PLLSTAT & SCU_PLL_PLLSTAT_VCOBYST_Msk) != 0U)
 800047e:	bf00      	nop
 8000480:	4b5c      	ldr	r3, [pc, #368]	; (80005f4 <SystemCoreClockSetup+0x2a0>)
 8000482:	681b      	ldr	r3, [r3, #0]
 8000484:	f003 0301 	and.w	r3, r3, #1
 8000488:	2b00      	cmp	r3, #0
 800048a:	d1f9      	bne.n	8000480 <SystemCoreClockSetup+0x12c>
  }

#endif /* ENABLE_PLL */

  /* Before scaling to final frequency we need to setup the clock dividers */
  SCU_CLK->SYSCLKCR = __SYSCLKCR;
 800048c:	4b5d      	ldr	r3, [pc, #372]	; (8000604 <SystemCoreClockSetup+0x2b0>)
 800048e:	f04f 1201 	mov.w	r2, #65537	; 0x10001
 8000492:	60da      	str	r2, [r3, #12]
  SCU_CLK->PBCLKCR = __PBCLKCR;
 8000494:	4b5b      	ldr	r3, [pc, #364]	; (8000604 <SystemCoreClockSetup+0x2b0>)
 8000496:	2200      	movs	r2, #0
 8000498:	615a      	str	r2, [r3, #20]
  SCU_CLK->CPUCLKCR = __CPUCLKCR;
 800049a:	4b5a      	ldr	r3, [pc, #360]	; (8000604 <SystemCoreClockSetup+0x2b0>)
 800049c:	2200      	movs	r2, #0
 800049e:	611a      	str	r2, [r3, #16]
  SCU_CLK->CCUCLKCR = __CCUCLKCR;
 80004a0:	4b58      	ldr	r3, [pc, #352]	; (8000604 <SystemCoreClockSetup+0x2b0>)
 80004a2:	2200      	movs	r2, #0
 80004a4:	621a      	str	r2, [r3, #32]
  SCU_CLK->WDTCLKCR = __WDTCLKCR;
 80004a6:	4b57      	ldr	r3, [pc, #348]	; (8000604 <SystemCoreClockSetup+0x2b0>)
 80004a8:	2200      	movs	r2, #0
 80004aa:	625a      	str	r2, [r3, #36]	; 0x24
  SCU_CLK->EBUCLKCR = __EBUCLKCR;
 80004ac:	4b55      	ldr	r3, [pc, #340]	; (8000604 <SystemCoreClockSetup+0x2b0>)
 80004ae:	2203      	movs	r2, #3
 80004b0:	61da      	str	r2, [r3, #28]
  SCU_CLK->USBCLKCR = __USBCLKCR;
 80004b2:	4b54      	ldr	r3, [pc, #336]	; (8000604 <SystemCoreClockSetup+0x2b0>)
 80004b4:	4a54      	ldr	r2, [pc, #336]	; (8000608 <SystemCoreClockSetup+0x2b4>)
 80004b6:	619a      	str	r2, [r3, #24]
  SCU_CLK->ECATCLKCR = __ECATCLKCR;
 80004b8:	4b52      	ldr	r3, [pc, #328]	; (8000604 <SystemCoreClockSetup+0x2b0>)
 80004ba:	2201      	movs	r2, #1
 80004bc:	639a      	str	r2, [r3, #56]	; 0x38
  SCU_CLK->EXTCLKCR = __EXTCLKCR;
 80004be:	4b51      	ldr	r3, [pc, #324]	; (8000604 <SystemCoreClockSetup+0x2b0>)
 80004c0:	4a52      	ldr	r2, [pc, #328]	; (800060c <SystemCoreClockSetup+0x2b8>)
 80004c2:	629a      	str	r2, [r3, #40]	; 0x28

#if ENABLE_PLL
  /* PLL frequency stepping...*/
  /* Reset OSCDISCDIS */
  SCU_PLL->PLLCON0 &= ~SCU_PLL_PLLCON0_OSCDISCDIS_Msk;
 80004c4:	4a4b      	ldr	r2, [pc, #300]	; (80005f4 <SystemCoreClockSetup+0x2a0>)
 80004c6:	4b4b      	ldr	r3, [pc, #300]	; (80005f4 <SystemCoreClockSetup+0x2a0>)
 80004c8:	685b      	ldr	r3, [r3, #4]
 80004ca:	f023 0340 	bic.w	r3, r3, #64	; 0x40
 80004ce:	6053      	str	r3, [r2, #4]

  SCU_PLL->PLLCON1 = ((PLL_NDIV << SCU_PLL_PLLCON1_NDIV_Pos) |
 80004d0:	4b48      	ldr	r3, [pc, #288]	; (80005f4 <SystemCoreClockSetup+0x2a0>)
 80004d2:	4a4f      	ldr	r2, [pc, #316]	; (8000610 <SystemCoreClockSetup+0x2bc>)
 80004d4:	609a      	str	r2, [r3, #8]
	                  (PLL_K2DIV_48MHZ << SCU_PLL_PLLCON1_K2DIV_Pos) |
	                  (PLL_PDIV << SCU_PLL_PLLCON1_PDIV_Pos));

  delay(DELAY_CNT_50US_48MHZ);
 80004d6:	f44f 6016 	mov.w	r0, #2400	; 0x960
 80004da:	f7ff fedf 	bl	800029c <delay>

  SCU_PLL->PLLCON1 = ((PLL_NDIV << SCU_PLL_PLLCON1_NDIV_Pos) |
 80004de:	4b45      	ldr	r3, [pc, #276]	; (80005f4 <SystemCoreClockSetup+0x2a0>)
 80004e0:	4a4c      	ldr	r2, [pc, #304]	; (8000614 <SystemCoreClockSetup+0x2c0>)
 80004e2:	609a      	str	r2, [r3, #8]
	                  (PLL_K2DIV_72MHZ << SCU_PLL_PLLCON1_K2DIV_Pos) |
	                  (PLL_PDIV << SCU_PLL_PLLCON1_PDIV_Pos));

  delay(DELAY_CNT_50US_72MHZ);
 80004e4:	f44f 6061 	mov.w	r0, #3600	; 0xe10
 80004e8:	f7ff fed8 	bl	800029c <delay>

  SCU_PLL->PLLCON1 = ((PLL_NDIV << SCU_PLL_PLLCON1_NDIV_Pos) |
 80004ec:	4b41      	ldr	r3, [pc, #260]	; (80005f4 <SystemCoreClockSetup+0x2a0>)
 80004ee:	4a4a      	ldr	r2, [pc, #296]	; (8000618 <SystemCoreClockSetup+0x2c4>)
 80004f0:	609a      	str	r2, [r3, #8]
	                  (PLL_K2DIV_96MHZ << SCU_PLL_PLLCON1_K2DIV_Pos) |
	                  (PLL_PDIV << SCU_PLL_PLLCON1_PDIV_Pos));

  delay(DELAY_CNT_50US_96MHZ);
 80004f2:	f44f 5096 	mov.w	r0, #4800	; 0x12c0
 80004f6:	f7ff fed1 	bl	800029c <delay>

  SCU_PLL->PLLCON1 = ((PLL_NDIV << SCU_PLL_PLLCON1_NDIV_Pos) |
 80004fa:	4b3e      	ldr	r3, [pc, #248]	; (80005f4 <SystemCoreClockSetup+0x2a0>)
 80004fc:	4a47      	ldr	r2, [pc, #284]	; (800061c <SystemCoreClockSetup+0x2c8>)
 80004fe:	609a      	str	r2, [r3, #8]
	                  (PLL_K2DIV_120MHZ << SCU_PLL_PLLCON1_K2DIV_Pos) |
	                  (PLL_PDIV << SCU_PLL_PLLCON1_PDIV_Pos));

  delay(DELAY_CNT_50US_120MHZ);
 8000500:	f241 7070 	movw	r0, #6000	; 0x1770
 8000504:	f7ff feca 	bl	800029c <delay>

  SCU_PLL->PLLCON1 = ((PLL_NDIV << SCU_PLL_PLLCON1_NDIV_Pos) |
 8000508:	4b3a      	ldr	r3, [pc, #232]	; (80005f4 <SystemCoreClockSetup+0x2a0>)
 800050a:	4a45      	ldr	r2, [pc, #276]	; (8000620 <SystemCoreClockSetup+0x2cc>)
 800050c:	609a      	str	r2, [r3, #8]
	                  (PLL_K2DIV << SCU_PLL_PLLCON1_K2DIV_Pos) |
	                  (PLL_PDIV << SCU_PLL_PLLCON1_PDIV_Pos));

  delay(DELAY_CNT_50US_144MHZ);
 800050e:	f44f 50e1 	mov.w	r0, #7200	; 0x1c20
 8000512:	f7ff fec3 	bl	800029c <delay>

#endif /* ENABLE_PLL */

#if ENABLE_USBPLL
  /* enable USB PLL first */
  SCU_PLL->USBPLLCON &= ~(SCU_PLL_USBPLLCON_VCOPWD_Msk | SCU_PLL_USBPLLCON_PLLPWD_Msk);
 8000516:	4a37      	ldr	r2, [pc, #220]	; (80005f4 <SystemCoreClockSetup+0x2a0>)
 8000518:	4b36      	ldr	r3, [pc, #216]	; (80005f4 <SystemCoreClockSetup+0x2a0>)
 800051a:	695b      	ldr	r3, [r3, #20]
 800051c:	f423 3380 	bic.w	r3, r3, #65536	; 0x10000
 8000520:	f023 0302 	bic.w	r3, r3, #2
 8000524:	6153      	str	r3, [r2, #20]

  /* USB PLL uses as clock input the OSC_HP */
  /* check and if not already running enable OSC_HP */
  if ((SCU_OSC->OSCHPCTRL & SCU_OSC_OSCHPCTRL_MODE_Msk) != 0U)
 8000526:	4b34      	ldr	r3, [pc, #208]	; (80005f8 <SystemCoreClockSetup+0x2a4>)
 8000528:	685b      	ldr	r3, [r3, #4]
 800052a:	f003 0330 	and.w	r3, r3, #48	; 0x30
 800052e:	2b00      	cmp	r3, #0
 8000530:	d031      	beq.n	8000596 <SystemCoreClockSetup+0x242>
  {
    /* check if Main PLL is switched on for OSC WDG*/
    if ((SCU_PLL->PLLCON0 &(SCU_PLL_PLLCON0_VCOPWD_Msk | SCU_PLL_PLLCON0_PLLPWD_Msk)) != 0UL)
 8000532:	4b30      	ldr	r3, [pc, #192]	; (80005f4 <SystemCoreClockSetup+0x2a0>)
 8000534:	685a      	ldr	r2, [r3, #4]
 8000536:	4b3b      	ldr	r3, [pc, #236]	; (8000624 <SystemCoreClockSetup+0x2d0>)
 8000538:	4013      	ands	r3, r2
 800053a:	2b00      	cmp	r3, #0
 800053c:	d007      	beq.n	800054e <SystemCoreClockSetup+0x1fa>
    {
      /* enable PLL first */
      SCU_PLL->PLLCON0 &= ~(SCU_PLL_PLLCON0_VCOPWD_Msk | SCU_PLL_PLLCON0_PLLPWD_Msk);
 800053e:	4a2d      	ldr	r2, [pc, #180]	; (80005f4 <SystemCoreClockSetup+0x2a0>)
 8000540:	4b2c      	ldr	r3, [pc, #176]	; (80005f4 <SystemCoreClockSetup+0x2a0>)
 8000542:	685b      	ldr	r3, [r3, #4]
 8000544:	f423 3380 	bic.w	r3, r3, #65536	; 0x10000
 8000548:	f023 0302 	bic.w	r3, r3, #2
 800054c:	6053      	str	r3, [r2, #4]
    }

    SCU_OSC->OSCHPCTRL &= ~(SCU_OSC_OSCHPCTRL_MODE_Msk | SCU_OSC_OSCHPCTRL_OSCVAL_Msk);
 800054e:	4a2a      	ldr	r2, [pc, #168]	; (80005f8 <SystemCoreClockSetup+0x2a4>)
 8000550:	4b29      	ldr	r3, [pc, #164]	; (80005f8 <SystemCoreClockSetup+0x2a4>)
 8000552:	685b      	ldr	r3, [r3, #4]
 8000554:	f423 2370 	bic.w	r3, r3, #983040	; 0xf0000
 8000558:	f023 0330 	bic.w	r3, r3, #48	; 0x30
 800055c:	6053      	str	r3, [r2, #4]
    SCU_OSC->OSCHPCTRL |= ((OSCHP_GetFrequency() / FOSCREF) - 1UL) << SCU_OSC_OSCHPCTRL_OSCVAL_Pos;
 800055e:	f000 f8d3 	bl	8000708 <OSCHP_GetFrequency>
 8000562:	4602      	mov	r2, r0
 8000564:	4b25      	ldr	r3, [pc, #148]	; (80005fc <SystemCoreClockSetup+0x2a8>)
 8000566:	fba3 2302 	umull	r2, r3, r3, r2
 800056a:	0d1b      	lsrs	r3, r3, #20
 800056c:	3b01      	subs	r3, #1
 800056e:	041b      	lsls	r3, r3, #16
 8000570:	4921      	ldr	r1, [pc, #132]	; (80005f8 <SystemCoreClockSetup+0x2a4>)
 8000572:	4a21      	ldr	r2, [pc, #132]	; (80005f8 <SystemCoreClockSetup+0x2a4>)
 8000574:	6852      	ldr	r2, [r2, #4]
 8000576:	4313      	orrs	r3, r2
 8000578:	604b      	str	r3, [r1, #4]

    /* restart OSC Watchdog */
    SCU_PLL->PLLCON0 &= ~SCU_PLL_PLLCON0_OSCRES_Msk;
 800057a:	4a1e      	ldr	r2, [pc, #120]	; (80005f4 <SystemCoreClockSetup+0x2a0>)
 800057c:	4b1d      	ldr	r3, [pc, #116]	; (80005f4 <SystemCoreClockSetup+0x2a0>)
 800057e:	685b      	ldr	r3, [r3, #4]
 8000580:	f423 3300 	bic.w	r3, r3, #131072	; 0x20000
 8000584:	6053      	str	r3, [r2, #4]

    while ((SCU_PLL->PLLSTAT & SCU_PLL_PLLSTAT_OSC_USABLE) != SCU_PLL_PLLSTAT_OSC_USABLE)
 8000586:	bf00      	nop
 8000588:	4b1a      	ldr	r3, [pc, #104]	; (80005f4 <SystemCoreClockSetup+0x2a0>)
 800058a:	681b      	ldr	r3, [r3, #0]
 800058c:	f403 7360 	and.w	r3, r3, #896	; 0x380
 8000590:	f5b3 7f60 	cmp.w	r3, #896	; 0x380
 8000594:	d1f8      	bne.n	8000588 <SystemCoreClockSetup+0x234>
    }
  }

  /* Setup USB PLL */
  /* Go to bypass the USB PLL */
  SCU_PLL->USBPLLCON |= SCU_PLL_USBPLLCON_VCOBYP_Msk;
 8000596:	4a17      	ldr	r2, [pc, #92]	; (80005f4 <SystemCoreClockSetup+0x2a0>)
 8000598:	4b16      	ldr	r3, [pc, #88]	; (80005f4 <SystemCoreClockSetup+0x2a0>)
 800059a:	695b      	ldr	r3, [r3, #20]
 800059c:	f043 0301 	orr.w	r3, r3, #1
 80005a0:	6153      	str	r3, [r2, #20]

  /* disconnect Oscillator from USB PLL */
  SCU_PLL->USBPLLCON |= SCU_PLL_USBPLLCON_FINDIS_Msk;
 80005a2:	4a14      	ldr	r2, [pc, #80]	; (80005f4 <SystemCoreClockSetup+0x2a0>)
 80005a4:	4b13      	ldr	r3, [pc, #76]	; (80005f4 <SystemCoreClockSetup+0x2a0>)
 80005a6:	695b      	ldr	r3, [r3, #20]
 80005a8:	f043 0310 	orr.w	r3, r3, #16
 80005ac:	6153      	str	r3, [r2, #20]

  /* Setup Divider settings for USB PLL */
  SCU_PLL->USBPLLCON = ((USB_NDIV << SCU_PLL_USBPLLCON_NDIV_Pos) |
 80005ae:	4b11      	ldr	r3, [pc, #68]	; (80005f4 <SystemCoreClockSetup+0x2a0>)
 80005b0:	4a1d      	ldr	r2, [pc, #116]	; (8000628 <SystemCoreClockSetup+0x2d4>)
 80005b2:	615a      	str	r2, [r3, #20]
                        (USB_PDIV << SCU_PLL_USBPLLCON_PDIV_Pos));

  /* Set OSCDISCDIS */
  SCU_PLL->USBPLLCON |= SCU_PLL_USBPLLCON_OSCDISCDIS_Msk;
 80005b4:	4a0f      	ldr	r2, [pc, #60]	; (80005f4 <SystemCoreClockSetup+0x2a0>)
 80005b6:	4b0f      	ldr	r3, [pc, #60]	; (80005f4 <SystemCoreClockSetup+0x2a0>)
 80005b8:	695b      	ldr	r3, [r3, #20]
 80005ba:	f043 0340 	orr.w	r3, r3, #64	; 0x40
 80005be:	6153      	str	r3, [r2, #20]

  /* connect Oscillator to USB PLL */
  SCU_PLL->USBPLLCON &= ~SCU_PLL_USBPLLCON_FINDIS_Msk;
 80005c0:	4a0c      	ldr	r2, [pc, #48]	; (80005f4 <SystemCoreClockSetup+0x2a0>)
 80005c2:	4b0c      	ldr	r3, [pc, #48]	; (80005f4 <SystemCoreClockSetup+0x2a0>)
 80005c4:	695b      	ldr	r3, [r3, #20]
 80005c6:	f023 0310 	bic.w	r3, r3, #16
 80005ca:	6153      	str	r3, [r2, #20]

  /* restart PLL Lock detection */
  SCU_PLL->USBPLLCON |= SCU_PLL_USBPLLCON_RESLD_Msk;
 80005cc:	4a09      	ldr	r2, [pc, #36]	; (80005f4 <SystemCoreClockSetup+0x2a0>)
 80005ce:	4b09      	ldr	r3, [pc, #36]	; (80005f4 <SystemCoreClockSetup+0x2a0>)
 80005d0:	695b      	ldr	r3, [r3, #20]
 80005d2:	f443 2380 	orr.w	r3, r3, #262144	; 0x40000
 80005d6:	6153      	str	r3, [r2, #20]

  while ((SCU_PLL->USBPLLSTAT & SCU_PLL_USBPLLSTAT_VCOLOCK_Msk) == 0U)
 80005d8:	bf00      	nop
 80005da:	4b06      	ldr	r3, [pc, #24]	; (80005f4 <SystemCoreClockSetup+0x2a0>)
 80005dc:	691b      	ldr	r3, [r3, #16]
 80005de:	f003 0304 	and.w	r3, r3, #4
 80005e2:	2b00      	cmp	r3, #0
 80005e4:	d0f9      	beq.n	80005da <SystemCoreClockSetup+0x286>
    /* wait for PLL Lock */
  }
#endif

  /* Enable selected clocks */
  SCU_CLK->CLKSET = __CLKSET;
 80005e6:	4b07      	ldr	r3, [pc, #28]	; (8000604 <SystemCoreClockSetup+0x2b0>)
 80005e8:	2200      	movs	r2, #0
 80005ea:	e01f      	b.n	800062c <SystemCoreClockSetup+0x2d8>
 80005ec:	50004200 	.word	0x50004200
 80005f0:	50004400 	.word	0x50004400
 80005f4:	50004710 	.word	0x50004710
 80005f8:	50004700 	.word	0x50004700
 80005fc:	6b5fca6b 	.word	0x6b5fca6b
 8000600:	010b2f00 	.word	0x010b2f00
 8000604:	50004600 	.word	0x50004600
 8000608:	00010005 	.word	0x00010005
 800060c:	01200003 	.word	0x01200003
 8000610:	01052f00 	.word	0x01052f00
 8000614:	01032f00 	.word	0x01032f00
 8000618:	01022f00 	.word	0x01022f00
 800061c:	01012f00 	.word	0x01012f00
 8000620:	01002f00 	.word	0x01002f00
 8000624:	00010002 	.word	0x00010002
 8000628:	02006300 	.word	0x02006300
 800062c:	605a      	str	r2, [r3, #4]
  PORT0->PDR1 &= ~PORT0_PDR1_PD8_Msk;
  PORT0->IOCR8 = (PORT0->IOCR8 & ~PORT0_IOCR8_PC8_Msk) | (0x11U << PORT0_IOCR8_PC8_Pos);
#endif
#endif  /* ENABLE_EXTCLK == 1  */

  SystemCoreClockUpdate();
 800062e:	f000 f801 	bl	8000634 <SystemCoreClockUpdate>
}
 8000632:	bd80      	pop	{r7, pc}

08000634 <SystemCoreClockUpdate>:

__WEAK void SystemCoreClockUpdate(void)
{
 8000634:	b580      	push	{r7, lr}
 8000636:	b084      	sub	sp, #16
 8000638:	af00      	add	r7, sp, #0
  uint32_t pdiv;
  uint32_t ndiv;
  uint32_t kdiv;
  uint32_t temp;

  if (SCU_CLK->SYSCLKCR & SCU_CLK_SYSCLKCR_SYSSEL_Msk)
 800063a:	4b2f      	ldr	r3, [pc, #188]	; (80006f8 <SystemCoreClockUpdate+0xc4>)
 800063c:	68db      	ldr	r3, [r3, #12]
 800063e:	f403 3380 	and.w	r3, r3, #65536	; 0x10000
 8000642:	2b00      	cmp	r3, #0
 8000644:	d03e      	beq.n	80006c4 <SystemCoreClockUpdate+0x90>
  {
    /* fPLL is clock source for fSYS */
    if(SCU_PLL->PLLCON2 & SCU_PLL_PLLCON2_PINSEL_Msk)
 8000646:	4b2d      	ldr	r3, [pc, #180]	; (80006fc <SystemCoreClockUpdate+0xc8>)
 8000648:	68db      	ldr	r3, [r3, #12]
 800064a:	f003 0301 	and.w	r3, r3, #1
 800064e:	2b00      	cmp	r3, #0
 8000650:	d002      	beq.n	8000658 <SystemCoreClockUpdate+0x24>
    {
      /* PLL input clock is the backup clock (fOFI) */
      temp = OFI_FREQUENCY;
 8000652:	4b2b      	ldr	r3, [pc, #172]	; (8000700 <SystemCoreClockUpdate+0xcc>)
 8000654:	60fb      	str	r3, [r7, #12]
 8000656:	e002      	b.n	800065e <SystemCoreClockUpdate+0x2a>
    }
    else
    {
      /* PLL input clock is the high performance osicllator (fOSCHP) */
      temp = OSCHP_GetFrequency();
 8000658:	f000 f856 	bl	8000708 <OSCHP_GetFrequency>
 800065c:	60f8      	str	r0, [r7, #12]
    }

    /* check if PLL is locked */
    if (SCU_PLL->PLLSTAT & SCU_PLL_PLLSTAT_VCOLOCK_Msk)
 800065e:	4b27      	ldr	r3, [pc, #156]	; (80006fc <SystemCoreClockUpdate+0xc8>)
 8000660:	681b      	ldr	r3, [r3, #0]
 8000662:	f003 0304 	and.w	r3, r3, #4
 8000666:	2b00      	cmp	r3, #0
 8000668:	d020      	beq.n	80006ac <SystemCoreClockUpdate+0x78>
    {
      /* PLL normal mode */
      /* read back divider settings */
      pdiv = ((SCU_PLL->PLLCON1 & SCU_PLL_PLLCON1_PDIV_Msk) >> SCU_PLL_PLLCON1_PDIV_Pos) + 1;
 800066a:	4b24      	ldr	r3, [pc, #144]	; (80006fc <SystemCoreClockUpdate+0xc8>)
 800066c:	689b      	ldr	r3, [r3, #8]
 800066e:	f003 6370 	and.w	r3, r3, #251658240	; 0xf000000
 8000672:	0e1b      	lsrs	r3, r3, #24
 8000674:	3301      	adds	r3, #1
 8000676:	60bb      	str	r3, [r7, #8]
      ndiv = ((SCU_PLL->PLLCON1 & SCU_PLL_PLLCON1_NDIV_Msk) >> SCU_PLL_PLLCON1_NDIV_Pos) + 1;
 8000678:	4b20      	ldr	r3, [pc, #128]	; (80006fc <SystemCoreClockUpdate+0xc8>)
 800067a:	689b      	ldr	r3, [r3, #8]
 800067c:	f403 43fe 	and.w	r3, r3, #32512	; 0x7f00
 8000680:	0a1b      	lsrs	r3, r3, #8
 8000682:	3301      	adds	r3, #1
 8000684:	607b      	str	r3, [r7, #4]
      kdiv = ((SCU_PLL->PLLCON1 & SCU_PLL_PLLCON1_K2DIV_Msk) >> SCU_PLL_PLLCON1_K2DIV_Pos) + 1;
 8000686:	4b1d      	ldr	r3, [pc, #116]	; (80006fc <SystemCoreClockUpdate+0xc8>)
 8000688:	689b      	ldr	r3, [r3, #8]
 800068a:	f403 03fe 	and.w	r3, r3, #8323072	; 0x7f0000
 800068e:	0c1b      	lsrs	r3, r3, #16
 8000690:	3301      	adds	r3, #1
 8000692:	603b      	str	r3, [r7, #0]

      temp = (temp / (pdiv * kdiv)) * ndiv;
 8000694:	68bb      	ldr	r3, [r7, #8]
 8000696:	683a      	ldr	r2, [r7, #0]
 8000698:	fb02 f303 	mul.w	r3, r2, r3
 800069c:	68fa      	ldr	r2, [r7, #12]
 800069e:	fbb2 f3f3 	udiv	r3, r2, r3
 80006a2:	687a      	ldr	r2, [r7, #4]
 80006a4:	fb02 f303 	mul.w	r3, r2, r3
 80006a8:	60fb      	str	r3, [r7, #12]
 80006aa:	e00d      	b.n	80006c8 <SystemCoreClockUpdate+0x94>
    }
    else
    {
      /* PLL prescalar mode */
      /* read back divider settings */
      kdiv  = ((SCU_PLL->PLLCON1 & SCU_PLL_PLLCON1_K1DIV_Msk) >> SCU_PLL_PLLCON1_K1DIV_Pos) + 1;
 80006ac:	4b13      	ldr	r3, [pc, #76]	; (80006fc <SystemCoreClockUpdate+0xc8>)
 80006ae:	689b      	ldr	r3, [r3, #8]
 80006b0:	f003 037f 	and.w	r3, r3, #127	; 0x7f
 80006b4:	3301      	adds	r3, #1
 80006b6:	603b      	str	r3, [r7, #0]

      temp = (temp / kdiv);
 80006b8:	68fa      	ldr	r2, [r7, #12]
 80006ba:	683b      	ldr	r3, [r7, #0]
 80006bc:	fbb2 f3f3 	udiv	r3, r2, r3
 80006c0:	60fb      	str	r3, [r7, #12]
 80006c2:	e001      	b.n	80006c8 <SystemCoreClockUpdate+0x94>
    }
  }
  else
  {
    /* fOFI is clock source for fSYS */
    temp = OFI_FREQUENCY;
 80006c4:	4b0e      	ldr	r3, [pc, #56]	; (8000700 <SystemCoreClockUpdate+0xcc>)
 80006c6:	60fb      	str	r3, [r7, #12]
  }

  temp = temp / ((SCU_CLK->SYSCLKCR & SCU_CLK_SYSCLKCR_SYSDIV_Msk) + 1);
 80006c8:	4b0b      	ldr	r3, [pc, #44]	; (80006f8 <SystemCoreClockUpdate+0xc4>)
 80006ca:	68db      	ldr	r3, [r3, #12]
 80006cc:	b2db      	uxtb	r3, r3
 80006ce:	3301      	adds	r3, #1
 80006d0:	68fa      	ldr	r2, [r7, #12]
 80006d2:	fbb2 f3f3 	udiv	r3, r2, r3
 80006d6:	60fb      	str	r3, [r7, #12]
  temp = temp / ((SCU_CLK->CPUCLKCR & SCU_CLK_CPUCLKCR_CPUDIV_Msk) + 1);
 80006d8:	4b07      	ldr	r3, [pc, #28]	; (80006f8 <SystemCoreClockUpdate+0xc4>)
 80006da:	691b      	ldr	r3, [r3, #16]
 80006dc:	f003 0301 	and.w	r3, r3, #1
 80006e0:	3301      	adds	r3, #1
 80006e2:	68fa      	ldr	r2, [r7, #12]
 80006e4:	fbb2 f3f3 	udiv	r3, r2, r3
 80006e8:	60fb      	str	r3, [r7, #12]

  SystemCoreClock = temp;
 80006ea:	4a06      	ldr	r2, [pc, #24]	; (8000704 <SystemCoreClockUpdate+0xd0>)
 80006ec:	68fb      	ldr	r3, [r7, #12]
 80006ee:	6013      	str	r3, [r2, #0]
}
 80006f0:	3710      	adds	r7, #16
 80006f2:	46bd      	mov	sp, r7
 80006f4:	bd80      	pop	{r7, pc}
 80006f6:	bf00      	nop
 80006f8:	50004600 	.word	0x50004600
 80006fc:	50004710 	.word	0x50004710
 8000700:	016e3600 	.word	0x016e3600
 8000704:	2003ffc0 	.word	0x2003ffc0

08000708 <OSCHP_GetFrequency>:

__WEAK uint32_t OSCHP_GetFrequency(void)
{
 8000708:	b480      	push	{r7}
 800070a:	af00      	add	r7, sp, #0
  return OSCHP_FREQUENCY;
 800070c:	4b02      	ldr	r3, [pc, #8]	; (8000718 <OSCHP_GetFrequency+0x10>)
}
 800070e:	4618      	mov	r0, r3
 8000710:	46bd      	mov	sp, r7
 8000712:	f85d 7b04 	ldr.w	r7, [sp], #4
 8000716:	4770      	bx	lr
 8000718:	00b71b00 	.word	0x00b71b00

0800071c <_init>:
  }
}

/* Init */
void _init(void)
{}
 800071c:	b480      	push	{r7}
 800071e:	af00      	add	r7, sp, #0
 8000720:	46bd      	mov	sp, r7
 8000722:	f85d 7b04 	ldr.w	r7, [sp], #4
 8000726:	4770      	bx	lr

08000728 <ERU0_0_IRQHandler>:
#include "stdlib.h"
#include "transform.h"
#include "io.h"

/*Interrupt function for Eru0 used with ENCZ component of encoder -- NOT USED*/
void ERU0_0_IRQHandler(void) {}
 8000728:	b480      	push	{r7}
 800072a:	af00      	add	r7, sp, #0
 800072c:	46bd      	mov	sp, r7
 800072e:	f85d 7b04 	ldr.w	r7, [sp], #4
 8000732:	4770      	bx	lr

08000734 <encoder_init>:

/*
 * Initialize CCU40 and POSIF0
 */
void encoder_init(void)
{
 8000734:	b480      	push	{r7}
 8000736:	af00      	add	r7, sp, #0
	/*
	 * Pin set up
	 */
	/*Digital Pad activated*/
	PORT14->PDISC &= ~(PORTS_PDISC_5_MSK);
 8000738:	4a68      	ldr	r2, [pc, #416]	; (80008dc <encoder_init+0x1a8>)
 800073a:	4b68      	ldr	r3, [pc, #416]	; (80008dc <encoder_init+0x1a8>)
 800073c:	6e1b      	ldr	r3, [r3, #96]	; 0x60
 800073e:	f023 0320 	bic.w	r3, r3, #32
 8000742:	6613      	str	r3, [r2, #96]	; 0x60
	PORT14->PDISC &= ~(PORTS_PDISC_6_MSK);
 8000744:	4a65      	ldr	r2, [pc, #404]	; (80008dc <encoder_init+0x1a8>)
 8000746:	4b65      	ldr	r3, [pc, #404]	; (80008dc <encoder_init+0x1a8>)
 8000748:	6e1b      	ldr	r3, [r3, #96]	; 0x60
 800074a:	f023 0340 	bic.w	r3, r3, #64	; 0x40
 800074e:	6613      	str	r3, [r2, #96]	; 0x60
	PORT14->PDISC &= ~(PORTS_PDISC_7_MSK);
 8000750:	4a62      	ldr	r2, [pc, #392]	; (80008dc <encoder_init+0x1a8>)
 8000752:	4b62      	ldr	r3, [pc, #392]	; (80008dc <encoder_init+0x1a8>)
 8000754:	6e1b      	ldr	r3, [r3, #96]	; 0x60
 8000756:	f023 0380 	bic.w	r3, r3, #128	; 0x80
 800075a:	6613      	str	r3, [r2, #96]	; 0x60

	/*POSIF Pins*/
	PORT14->IOCR4 |= (INPUT_PULL_UP_MSK << PORT14_IOCR4_PC5_POS); // P14.5 ENCZ
 800075c:	4a5f      	ldr	r2, [pc, #380]	; (80008dc <encoder_init+0x1a8>)
 800075e:	4b5f      	ldr	r3, [pc, #380]	; (80008dc <encoder_init+0x1a8>)
 8000760:	695b      	ldr	r3, [r3, #20]
 8000762:	f443 5380 	orr.w	r3, r3, #4096	; 0x1000
 8000766:	6153      	str	r3, [r2, #20]
	PORT14->IOCR4 |= (INPUT_PULL_UP_MSK << PORT14_IOCR4_PC6_POS); // P14.6	ENCB
 8000768:	4a5c      	ldr	r2, [pc, #368]	; (80008dc <encoder_init+0x1a8>)
 800076a:	4b5c      	ldr	r3, [pc, #368]	; (80008dc <encoder_init+0x1a8>)
 800076c:	695b      	ldr	r3, [r3, #20]
 800076e:	f443 1380 	orr.w	r3, r3, #1048576	; 0x100000
 8000772:	6153      	str	r3, [r2, #20]
	PORT14->IOCR4 |= (INPUT_PULL_UP_MSK << PORT14_IOCR4_PC7_POS); // P14.7	ENCA
 8000774:	4a59      	ldr	r2, [pc, #356]	; (80008dc <encoder_init+0x1a8>)
 8000776:	4b59      	ldr	r3, [pc, #356]	; (80008dc <encoder_init+0x1a8>)
 8000778:	695b      	ldr	r3, [r3, #20]
 800077a:	f043 5380 	orr.w	r3, r3, #268435456	; 0x10000000
 800077e:	6153      	str	r3, [r2, #20]

	/*
	 * Configure CCU40
	 */
	/* Reset CCU40*/
	SCU_RESET->PRSET0 |= (SCU_PRESET0_CCU40RS_MSK);
 8000780:	4a57      	ldr	r2, [pc, #348]	; (80008e0 <encoder_init+0x1ac>)
 8000782:	4b57      	ldr	r3, [pc, #348]	; (80008e0 <encoder_init+0x1ac>)
 8000784:	691b      	ldr	r3, [r3, #16]
 8000786:	f043 0304 	orr.w	r3, r3, #4
 800078a:	6113      	str	r3, [r2, #16]

	/* Clear reset of CCU40 */
	SCU_RESET->PRCLR0 |= (SCU_PRCLR0_CCU40RS_MSK);
 800078c:	4a54      	ldr	r2, [pc, #336]	; (80008e0 <encoder_init+0x1ac>)
 800078e:	4b54      	ldr	r3, [pc, #336]	; (80008e0 <encoder_init+0x1ac>)
 8000790:	695b      	ldr	r3, [r3, #20]
 8000792:	f043 0304 	orr.w	r3, r3, #4
 8000796:	6153      	str	r3, [r2, #20]

	/* Enable CCU4 via clkset */
	SCU_CLK->CLKSET |= SCU_CLKSET_CCUCEN_MSK;
 8000798:	4a52      	ldr	r2, [pc, #328]	; (80008e4 <encoder_init+0x1b0>)
 800079a:	4b52      	ldr	r3, [pc, #328]	; (80008e4 <encoder_init+0x1b0>)
 800079c:	685b      	ldr	r3, [r3, #4]
 800079e:	f043 0310 	orr.w	r3, r3, #16
 80007a2:	6053      	str	r3, [r2, #4]

	/* Enable prescaler */
	CCU40->GIDLC |= CCU4_GIDLC_SPRB_MSK;
 80007a4:	4a50      	ldr	r2, [pc, #320]	; (80008e8 <encoder_init+0x1b4>)
 80007a6:	4b50      	ldr	r3, [pc, #320]	; (80008e8 <encoder_init+0x1b4>)
 80007a8:	68db      	ldr	r3, [r3, #12]
 80007aa:	f443 7380 	orr.w	r3, r3, #256	; 0x100
 80007ae:	60d3      	str	r3, [r2, #12]

	/*Set clock as Module Clock*/
	CCU40->GCTRL &= ~(CCU4_GCTRL_PCIS_MOD_CLK_MSK << CCU4_GCTRL_PCIS_POS);
 80007b0:	4a4d      	ldr	r2, [pc, #308]	; (80008e8 <encoder_init+0x1b4>)
 80007b2:	4b4d      	ldr	r3, [pc, #308]	; (80008e8 <encoder_init+0x1b4>)
 80007b4:	681b      	ldr	r3, [r3, #0]
 80007b6:	f023 0330 	bic.w	r3, r3, #48	; 0x30
 80007ba:	6013      	str	r3, [r2, #0]

	/*Set Counting Mode - Edge Aligned*/
	CCU40_CC40->TC &= ~(CCU4_TC_TCM_EDGE_MSK);
 80007bc:	4a4b      	ldr	r2, [pc, #300]	; (80008ec <encoder_init+0x1b8>)
 80007be:	4b4b      	ldr	r3, [pc, #300]	; (80008ec <encoder_init+0x1b8>)
 80007c0:	695b      	ldr	r3, [r3, #20]
 80007c2:	f023 0301 	bic.w	r3, r3, #1
 80007c6:	6153      	str	r3, [r2, #20]

	/*Period Value*/
	CCU40_CC40->PRS |= (CCU4_CC4_PRS_VALUE);
 80007c8:	4a48      	ldr	r2, [pc, #288]	; (80008ec <encoder_init+0x1b8>)
 80007ca:	4b48      	ldr	r3, [pc, #288]	; (80008ec <encoder_init+0x1b8>)
 80007cc:	6b5b      	ldr	r3, [r3, #52]	; 0x34
 80007ce:	ea6f 4313 	mvn.w	r3, r3, lsr #16
 80007d2:	ea6f 4303 	mvn.w	r3, r3, lsl #16
 80007d6:	6353      	str	r3, [r2, #52]	; 0x34

	/*Shadow transfer for PR*/
	CCU40->GCSS |= (CCU4_GCSS_S0SE_MSK);
 80007d8:	4a43      	ldr	r2, [pc, #268]	; (80008e8 <encoder_init+0x1b4>)
 80007da:	4b43      	ldr	r3, [pc, #268]	; (80008e8 <encoder_init+0x1b4>)
 80007dc:	691b      	ldr	r3, [r3, #16]
 80007de:	f043 0301 	orr.w	r3, r3, #1
 80007e2:	6113      	str	r3, [r2, #16]

	/*
	 * Configure POSIF0
	 */
	/* Reset POSIF0*/
	SCU_RESET->PRSET0 |= (SCU_PRESET0_POSIF0RS_MSK);
 80007e4:	4a3e      	ldr	r2, [pc, #248]	; (80008e0 <encoder_init+0x1ac>)
 80007e6:	4b3e      	ldr	r3, [pc, #248]	; (80008e0 <encoder_init+0x1ac>)
 80007e8:	691b      	ldr	r3, [r3, #16]
 80007ea:	f443 7300 	orr.w	r3, r3, #512	; 0x200
 80007ee:	6113      	str	r3, [r2, #16]

	/* Clear reset of POSIF0*/
	SCU_RESET->PRCLR0 |= (SCU_PRCLR0_POSIF0RS_MSK);
 80007f0:	4a3b      	ldr	r2, [pc, #236]	; (80008e0 <encoder_init+0x1ac>)
 80007f2:	4b3b      	ldr	r3, [pc, #236]	; (80008e0 <encoder_init+0x1ac>)
 80007f4:	695b      	ldr	r3, [r3, #20]
 80007f6:	f443 7300 	orr.w	r3, r3, #512	; 0x200
 80007fa:	6153      	str	r3, [r2, #20]

	/*Quadrature Decoder Mode enabled*/
	POSIF0->PCONF |= POSIF_PCONF_FSEL_QUAD_MSK;
 80007fc:	4a3c      	ldr	r2, [pc, #240]	; (80008f0 <encoder_init+0x1bc>)
 80007fe:	4b3c      	ldr	r3, [pc, #240]	; (80008f0 <encoder_init+0x1bc>)
 8000800:	681b      	ldr	r3, [r3, #0]
 8000802:	f043 0301 	orr.w	r3, r3, #1
 8000806:	6013      	str	r3, [r2, #0]

	/*Phase/Hal selector as INxB for the used pins*/
	POSIF0->PCONF |= (POSIF_IN_B_MSK << POSIF_PCONF_INSEL0_POS);
 8000808:	4a39      	ldr	r2, [pc, #228]	; (80008f0 <encoder_init+0x1bc>)
 800080a:	4b39      	ldr	r3, [pc, #228]	; (80008f0 <encoder_init+0x1bc>)
 800080c:	681b      	ldr	r3, [r3, #0]
 800080e:	f443 7380 	orr.w	r3, r3, #256	; 0x100
 8000812:	6013      	str	r3, [r2, #0]
	POSIF0->PCONF |= (POSIF_IN_B_MSK << POSIF_PCONF_INSEL1_POS);
 8000814:	4a36      	ldr	r2, [pc, #216]	; (80008f0 <encoder_init+0x1bc>)
 8000816:	4b36      	ldr	r3, [pc, #216]	; (80008f0 <encoder_init+0x1bc>)
 8000818:	681b      	ldr	r3, [r3, #0]
 800081a:	f443 6380 	orr.w	r3, r3, #1024	; 0x400
 800081e:	6013      	str	r3, [r2, #0]
	POSIF0->PCONF |= (POSIF_IN_B_MSK << POSIF_PCONF_INSEL2_POS);
 8000820:	4a33      	ldr	r2, [pc, #204]	; (80008f0 <encoder_init+0x1bc>)
 8000822:	4b33      	ldr	r3, [pc, #204]	; (80008f0 <encoder_init+0x1bc>)
 8000824:	681b      	ldr	r3, [r3, #0]
 8000826:	f443 5380 	orr.w	r3, r3, #4096	; 0x1000
 800082a:	6013      	str	r3, [r2, #0]

	/*Low Pass filter configuration - 4 clock cycles*/
	POSIF0->PCONF |= (POSIF_LOW_PASS_4 << POSIF_PCONF_LPC_POS);
 800082c:	4a30      	ldr	r2, [pc, #192]	; (80008f0 <encoder_init+0x1bc>)
 800082e:	4b30      	ldr	r3, [pc, #192]	; (80008f0 <encoder_init+0x1bc>)
 8000830:	681b      	ldr	r3, [r3, #0]
 8000832:	f043 5340 	orr.w	r3, r3, #805306368	; 0x30000000
 8000836:	6013      	str	r3, [r2, #0]

	/*
	 * POSIF to CC40
	 */
	/*Input selector configuration*/
	CCU40_CC40->INS |= (CCU4_IN_E_MSK << CCU4_INS_EV0IS_POS); // Event 0 for Out0 on rising edge
 8000838:	4a2c      	ldr	r2, [pc, #176]	; (80008ec <encoder_init+0x1b8>)
 800083a:	4b2c      	ldr	r3, [pc, #176]	; (80008ec <encoder_init+0x1b8>)
 800083c:	681b      	ldr	r3, [r3, #0]
 800083e:	f043 0304 	orr.w	r3, r3, #4
 8000842:	6013      	str	r3, [r2, #0]
	CCU40_CC40->INS |= (RISING_EDGE_ENC << CCU4_INS_EV0EM_POS);
 8000844:	4a29      	ldr	r2, [pc, #164]	; (80008ec <encoder_init+0x1b8>)
 8000846:	4b29      	ldr	r3, [pc, #164]	; (80008ec <encoder_init+0x1b8>)
 8000848:	681b      	ldr	r3, [r3, #0]
 800084a:	f443 3380 	orr.w	r3, r3, #65536	; 0x10000
 800084e:	6013      	str	r3, [r2, #0]
	CCU40_CC40->INS |= (CCU4_IN_F_MSK << CCU4_INS_EV1IS_POS); // Event 1 for Out1 on low level
 8000850:	4a26      	ldr	r2, [pc, #152]	; (80008ec <encoder_init+0x1b8>)
 8000852:	4b26      	ldr	r3, [pc, #152]	; (80008ec <encoder_init+0x1b8>)
 8000854:	681b      	ldr	r3, [r3, #0]
 8000856:	f043 0350 	orr.w	r3, r3, #80	; 0x50
 800085a:	6013      	str	r3, [r2, #0]
	//	CCU40_CC40->INS |= (RISING_EDGE_ENC << CCU4_INS_EV1EM_POS);
	CCU40_CC40->INS |= (0x1UL << CCU4_CC4_INS_EV1LM_Pos);
 800085c:	4a23      	ldr	r2, [pc, #140]	; (80008ec <encoder_init+0x1b8>)
 800085e:	4b23      	ldr	r3, [pc, #140]	; (80008ec <encoder_init+0x1b8>)
 8000860:	681b      	ldr	r3, [r3, #0]
 8000862:	f443 0300 	orr.w	r3, r3, #8388608	; 0x800000
 8000866:	6013      	str	r3, [r2, #0]

	/*Connection Matrix Control*/
	CCU40_CC40->CMC |= (CCU4_EVENT_0_MSK << CCU4_CMC_CNTS_POS); // Event0 set up for Counting
 8000868:	4a20      	ldr	r2, [pc, #128]	; (80008ec <encoder_init+0x1b8>)
 800086a:	4b20      	ldr	r3, [pc, #128]	; (80008ec <encoder_init+0x1b8>)
 800086c:	685b      	ldr	r3, [r3, #4]
 800086e:	f443 4380 	orr.w	r3, r3, #16384	; 0x4000
 8000872:	6053      	str	r3, [r2, #4]
	CCU40_CC40->CMC |= (CCU4_EVENT_1_MSK << CCU4_CMC_UDS_POS);	// Event1 set up for Direction
 8000874:	4a1d      	ldr	r2, [pc, #116]	; (80008ec <encoder_init+0x1b8>)
 8000876:	4b1d      	ldr	r3, [pc, #116]	; (80008ec <encoder_init+0x1b8>)
 8000878:	685b      	ldr	r3, [r3, #4]
 800087a:	f443 6300 	orr.w	r3, r3, #2048	; 0x800
 800087e:	6053      	str	r3, [r2, #4]
	/*
	 * Stop and Start POSIF/CC40
	 */
	/*Stop and reset the state machine of the quadrature decoder and the current status of the Hall sensor - POSIF*/
	POSIF0->PRUNC |= POSIF_PRUNC_CRB_MSK; // Stops POSIF
 8000880:	4a1b      	ldr	r2, [pc, #108]	; (80008f0 <encoder_init+0x1bc>)
 8000882:	4b1b      	ldr	r3, [pc, #108]	; (80008f0 <encoder_init+0x1bc>)
 8000884:	68db      	ldr	r3, [r3, #12]
 8000886:	f043 0301 	orr.w	r3, r3, #1
 800088a:	60d3      	str	r3, [r2, #12]
	POSIF0->PRUNC |= POSIF_PRUNC_CSM_MSK; // Resets POSIF
 800088c:	4a18      	ldr	r2, [pc, #96]	; (80008f0 <encoder_init+0x1bc>)
 800088e:	4b18      	ldr	r3, [pc, #96]	; (80008f0 <encoder_init+0x1bc>)
 8000890:	68db      	ldr	r3, [r3, #12]
 8000892:	f043 0302 	orr.w	r3, r3, #2
 8000896:	60d3      	str	r3, [r2, #12]

	/*Exit Idle CC40*/
	CCU40->GIDLC |= (CCU4_GIDLC_CS0I_MSK);
 8000898:	4a13      	ldr	r2, [pc, #76]	; (80008e8 <encoder_init+0x1b4>)
 800089a:	4b13      	ldr	r3, [pc, #76]	; (80008e8 <encoder_init+0x1b4>)
 800089c:	68db      	ldr	r3, [r3, #12]
 800089e:	f043 0301 	orr.w	r3, r3, #1
 80008a2:	60d3      	str	r3, [r2, #12]

	/*Stop and clear timer*/
	CCU40_CC40->TCCLR |= (uint32_t)(CCU4_CC4_TCCLR_TRBC_Msk);
 80008a4:	4a11      	ldr	r2, [pc, #68]	; (80008ec <encoder_init+0x1b8>)
 80008a6:	4b11      	ldr	r3, [pc, #68]	; (80008ec <encoder_init+0x1b8>)
 80008a8:	691b      	ldr	r3, [r3, #16]
 80008aa:	f043 0301 	orr.w	r3, r3, #1
 80008ae:	6113      	str	r3, [r2, #16]
	CCU40_CC40->TCCLR |= (uint32_t)(CCU4_CC4_TCCLR_TCC_Msk);
 80008b0:	4a0e      	ldr	r2, [pc, #56]	; (80008ec <encoder_init+0x1b8>)
 80008b2:	4b0e      	ldr	r3, [pc, #56]	; (80008ec <encoder_init+0x1b8>)
 80008b4:	691b      	ldr	r3, [r3, #16]
 80008b6:	f043 0302 	orr.w	r3, r3, #2
 80008ba:	6113      	str	r3, [r2, #16]

	/*Start CCU40*/
	CCU40_CC40->TCSET |= (CCU4_TCSET_TRBS_MSK);
 80008bc:	4a0b      	ldr	r2, [pc, #44]	; (80008ec <encoder_init+0x1b8>)
 80008be:	4b0b      	ldr	r3, [pc, #44]	; (80008ec <encoder_init+0x1b8>)
 80008c0:	68db      	ldr	r3, [r3, #12]
 80008c2:	f043 0301 	orr.w	r3, r3, #1
 80008c6:	60d3      	str	r3, [r2, #12]

	/*Start POSIF0*/
	POSIF0->PRUNS |= (POSIF_PRUNS_SRB_MSK);
 80008c8:	4a09      	ldr	r2, [pc, #36]	; (80008f0 <encoder_init+0x1bc>)
 80008ca:	4b09      	ldr	r3, [pc, #36]	; (80008f0 <encoder_init+0x1bc>)
 80008cc:	689b      	ldr	r3, [r3, #8]
 80008ce:	f043 0301 	orr.w	r3, r3, #1
 80008d2:	6093      	str	r3, [r2, #8]

	/*Saves the first value of the timer*/
	//	timer_value_old = CCU40_CC40->TIMER;
	//	timer_value_old_fast = CCU40_CC40->TIMER;
}
 80008d4:	46bd      	mov	sp, r7
 80008d6:	f85d 7b04 	ldr.w	r7, [sp], #4
 80008da:	4770      	bx	lr
 80008dc:	48028e00 	.word	0x48028e00
 80008e0:	50004400 	.word	0x50004400
 80008e4:	50004600 	.word	0x50004600
 80008e8:	4000c000 	.word	0x4000c000
 80008ec:	4000c100 	.word	0x4000c100
 80008f0:	40028000 	.word	0x40028000

080008f4 <current_filter>:
/*
 *	y = k*(x - y_last) + y_last
 *	First order signal filter
 */
void current_filter(float filter_input)
{
 80008f4:	b480      	push	{r7}
 80008f6:	b083      	sub	sp, #12
 80008f8:	af00      	add	r7, sp, #0
 80008fa:	6078      	str	r0, [r7, #4]
	filter_output = k * (filter_input - filter_output_old) + filter_output_old;
 80008fc:	4b0e      	ldr	r3, [pc, #56]	; (8000938 <current_filter+0x44>)
 80008fe:	edd3 7a00 	vldr	s15, [r3]
 8000902:	ed97 7a01 	vldr	s14, [r7, #4]
 8000906:	ee37 7a67 	vsub.f32	s14, s14, s15
 800090a:	4b0c      	ldr	r3, [pc, #48]	; (800093c <current_filter+0x48>)
 800090c:	edd3 7a00 	vldr	s15, [r3]
 8000910:	ee27 7a27 	vmul.f32	s14, s14, s15
 8000914:	4b08      	ldr	r3, [pc, #32]	; (8000938 <current_filter+0x44>)
 8000916:	edd3 7a00 	vldr	s15, [r3]
 800091a:	ee77 7a27 	vadd.f32	s15, s14, s15
 800091e:	4b08      	ldr	r3, [pc, #32]	; (8000940 <current_filter+0x4c>)
 8000920:	edc3 7a00 	vstr	s15, [r3]
	filter_output_old = filter_output;
 8000924:	4b06      	ldr	r3, [pc, #24]	; (8000940 <current_filter+0x4c>)
 8000926:	681b      	ldr	r3, [r3, #0]
 8000928:	4a03      	ldr	r2, [pc, #12]	; (8000938 <current_filter+0x44>)
 800092a:	6013      	str	r3, [r2, #0]
}
 800092c:	370c      	adds	r7, #12
 800092e:	46bd      	mov	sp, r7
 8000930:	f85d 7b04 	ldr.w	r7, [sp], #4
 8000934:	4770      	bx	lr
 8000936:	bf00      	nop
 8000938:	1ffe8824 	.word	0x1ffe8824
 800093c:	1ffe8804 	.word	0x1ffe8804
 8000940:	1ffe8820 	.word	0x1ffe8820

08000944 <current_protection>:

/*
 *	Stops current output if above i_prot for TIME_TRIGGER_FAIL time
 */
void current_protection(void)
{
 8000944:	b580      	push	{r7, lr}
 8000946:	af00      	add	r7, sp, #0
	current_filter((i_alpha * i_alpha) + (i_beta * i_beta));
 8000948:	4b26      	ldr	r3, [pc, #152]	; (80009e4 <current_protection+0xa0>)
 800094a:	ed93 7a00 	vldr	s14, [r3]
 800094e:	4b25      	ldr	r3, [pc, #148]	; (80009e4 <current_protection+0xa0>)
 8000950:	edd3 7a00 	vldr	s15, [r3]
 8000954:	ee27 7a27 	vmul.f32	s14, s14, s15
 8000958:	4b23      	ldr	r3, [pc, #140]	; (80009e8 <current_protection+0xa4>)
 800095a:	edd3 6a00 	vldr	s13, [r3]
 800095e:	4b22      	ldr	r3, [pc, #136]	; (80009e8 <current_protection+0xa4>)
 8000960:	edd3 7a00 	vldr	s15, [r3]
 8000964:	ee66 7aa7 	vmul.f32	s15, s13, s15
 8000968:	ee77 7a27 	vadd.f32	s15, s14, s15
 800096c:	ee17 0a90 	vmov	r0, s15
 8000970:	f7ff ffc0 	bl	80008f4 <current_filter>
	if (filter_output > (i_prot * i_prot))
 8000974:	4b1d      	ldr	r3, [pc, #116]	; (80009ec <current_protection+0xa8>)
 8000976:	ed93 7a00 	vldr	s14, [r3]
 800097a:	4b1c      	ldr	r3, [pc, #112]	; (80009ec <current_protection+0xa8>)
 800097c:	edd3 7a00 	vldr	s15, [r3]
 8000980:	ee27 7a27 	vmul.f32	s14, s14, s15
 8000984:	4b1a      	ldr	r3, [pc, #104]	; (80009f0 <current_protection+0xac>)
 8000986:	edd3 7a00 	vldr	s15, [r3]
 800098a:	eeb4 7ae7 	vcmpe.f32	s14, s15
 800098e:	eef1 fa10 	vmrs	APSR_nzcv, fpscr
 8000992:	d522      	bpl.n	80009da <current_protection+0x96>
	{
		counter_timer_prot++;
 8000994:	4b17      	ldr	r3, [pc, #92]	; (80009f4 <current_protection+0xb0>)
 8000996:	681b      	ldr	r3, [r3, #0]
 8000998:	3301      	adds	r3, #1
 800099a:	4a16      	ldr	r2, [pc, #88]	; (80009f4 <current_protection+0xb0>)
 800099c:	6013      	str	r3, [r2, #0]

		if (counter_timer_prot > TIME_TRIGGER_FAIL)
 800099e:	4b15      	ldr	r3, [pc, #84]	; (80009f4 <current_protection+0xb0>)
 80009a0:	681b      	ldr	r3, [r3, #0]
 80009a2:	f5b3 7f7a 	cmp.w	r3, #1000	; 0x3e8
 80009a6:	d91b      	bls.n	80009e0 <current_protection+0x9c>
		{
			drive_disabled();
 80009a8:	f003 f870 	bl	8003a8c <drive_disabled>
			drive_status |= DRIVE_STATUS_PROT_MSK; // set current_prot_flag
 80009ac:	4b12      	ldr	r3, [pc, #72]	; (80009f8 <current_protection+0xb4>)
 80009ae:	881b      	ldrh	r3, [r3, #0]
 80009b0:	ea6f 4343 	mvn.w	r3, r3, lsl #17
 80009b4:	ea6f 4353 	mvn.w	r3, r3, lsr #17
 80009b8:	b29a      	uxth	r2, r3
 80009ba:	4b0f      	ldr	r3, [pc, #60]	; (80009f8 <current_protection+0xb4>)
 80009bc:	801a      	strh	r2, [r3, #0]
			drive_status &= CLEAR_DRIVE_STATUS;	   // set STATUS bits to 0 -> go to state 0
 80009be:	4b0e      	ldr	r3, [pc, #56]	; (80009f8 <current_protection+0xb4>)
 80009c0:	881b      	ldrh	r3, [r3, #0]
 80009c2:	f023 030f 	bic.w	r3, r3, #15
 80009c6:	b29a      	uxth	r2, r3
 80009c8:	4b0b      	ldr	r3, [pc, #44]	; (80009f8 <current_protection+0xb4>)
 80009ca:	801a      	strh	r2, [r3, #0]
			counter_timer_prot = 0;
 80009cc:	4b09      	ldr	r3, [pc, #36]	; (80009f4 <current_protection+0xb0>)
 80009ce:	2200      	movs	r2, #0
 80009d0:	601a      	str	r2, [r3, #0]
			drive_command_old = 0; // reset old status of drive_command
 80009d2:	4b0a      	ldr	r3, [pc, #40]	; (80009fc <current_protection+0xb8>)
 80009d4:	2200      	movs	r2, #0
 80009d6:	801a      	strh	r2, [r3, #0]
 80009d8:	e002      	b.n	80009e0 <current_protection+0x9c>
		}
	}
	else
	{
		counter_timer_prot = 0;
 80009da:	4b06      	ldr	r3, [pc, #24]	; (80009f4 <current_protection+0xb0>)
 80009dc:	2200      	movs	r2, #0
 80009de:	601a      	str	r2, [r3, #0]
	}
}
 80009e0:	bd80      	pop	{r7, pc}
 80009e2:	bf00      	nop
 80009e4:	1fff07d8 	.word	0x1fff07d8
 80009e8:	1fff07f0 	.word	0x1fff07f0
 80009ec:	1ffe8800 	.word	0x1ffe8800
 80009f0:	1ffe8820 	.word	0x1ffe8820
 80009f4:	1ffe8828 	.word	0x1ffe8828
 80009f8:	1fff066e 	.word	0x1fff066e
 80009fc:	1fff0672 	.word	0x1fff0672

08000a00 <__NVIC_EnableIRQ>:
  \details Enables a device specific interrupt in the NVIC interrupt controller.
  \param [in]      IRQn  Device specific interrupt number.
  \note    IRQn must not be negative.
 */
__STATIC_INLINE void __NVIC_EnableIRQ(IRQn_Type IRQn)
{
 8000a00:	b480      	push	{r7}
 8000a02:	b083      	sub	sp, #12
 8000a04:	af00      	add	r7, sp, #0
 8000a06:	4603      	mov	r3, r0
 8000a08:	71fb      	strb	r3, [r7, #7]
  if ((int32_t)(IRQn) >= 0)
 8000a0a:	f997 3007 	ldrsb.w	r3, [r7, #7]
 8000a0e:	2b00      	cmp	r3, #0
 8000a10:	db0b      	blt.n	8000a2a <__NVIC_EnableIRQ+0x2a>
  {
    NVIC->ISER[(((uint32_t)IRQn) >> 5UL)] = (uint32_t)(1UL << (((uint32_t)IRQn) & 0x1FUL));
 8000a12:	4908      	ldr	r1, [pc, #32]	; (8000a34 <__NVIC_EnableIRQ+0x34>)
 8000a14:	f997 3007 	ldrsb.w	r3, [r7, #7]
 8000a18:	095b      	lsrs	r3, r3, #5
 8000a1a:	79fa      	ldrb	r2, [r7, #7]
 8000a1c:	f002 021f 	and.w	r2, r2, #31
 8000a20:	2001      	movs	r0, #1
 8000a22:	fa00 f202 	lsl.w	r2, r0, r2
 8000a26:	f841 2023 	str.w	r2, [r1, r3, lsl #2]
  }
}
 8000a2a:	370c      	adds	r7, #12
 8000a2c:	46bd      	mov	sp, r7
 8000a2e:	f85d 7b04 	ldr.w	r7, [sp], #4
 8000a32:	4770      	bx	lr
 8000a34:	e000e100 	.word	0xe000e100

08000a38 <__NVIC_ClearPendingIRQ>:
  \details Clears the pending bit of a device specific interrupt in the NVIC pending register.
  \param [in]      IRQn  Device specific interrupt number.
  \note    IRQn must not be negative.
 */
__STATIC_INLINE void __NVIC_ClearPendingIRQ(IRQn_Type IRQn)
{
 8000a38:	b480      	push	{r7}
 8000a3a:	b083      	sub	sp, #12
 8000a3c:	af00      	add	r7, sp, #0
 8000a3e:	4603      	mov	r3, r0
 8000a40:	71fb      	strb	r3, [r7, #7]
  if ((int32_t)(IRQn) >= 0)
 8000a42:	f997 3007 	ldrsb.w	r3, [r7, #7]
 8000a46:	2b00      	cmp	r3, #0
 8000a48:	db0c      	blt.n	8000a64 <__NVIC_ClearPendingIRQ+0x2c>
  {
    NVIC->ICPR[(((uint32_t)IRQn) >> 5UL)] = (uint32_t)(1UL << (((uint32_t)IRQn) & 0x1FUL));
 8000a4a:	4909      	ldr	r1, [pc, #36]	; (8000a70 <__NVIC_ClearPendingIRQ+0x38>)
 8000a4c:	f997 3007 	ldrsb.w	r3, [r7, #7]
 8000a50:	095b      	lsrs	r3, r3, #5
 8000a52:	79fa      	ldrb	r2, [r7, #7]
 8000a54:	f002 021f 	and.w	r2, r2, #31
 8000a58:	2001      	movs	r0, #1
 8000a5a:	fa00 f202 	lsl.w	r2, r0, r2
 8000a5e:	3360      	adds	r3, #96	; 0x60
 8000a60:	f841 2023 	str.w	r2, [r1, r3, lsl #2]
  }
}
 8000a64:	370c      	adds	r7, #12
 8000a66:	46bd      	mov	sp, r7
 8000a68:	f85d 7b04 	ldr.w	r7, [sp], #4
 8000a6c:	4770      	bx	lr
 8000a6e:	bf00      	nop
 8000a70:	e000e100 	.word	0xe000e100

08000a74 <__NVIC_SetPriority>:
  \param [in]      IRQn  Interrupt number.
  \param [in]  priority  Priority to set.
  \note    The priority cannot be set for every processor exception.
 */
__STATIC_INLINE void __NVIC_SetPriority(IRQn_Type IRQn, uint32_t priority)
{
 8000a74:	b480      	push	{r7}
 8000a76:	b083      	sub	sp, #12
 8000a78:	af00      	add	r7, sp, #0
 8000a7a:	4603      	mov	r3, r0
 8000a7c:	6039      	str	r1, [r7, #0]
 8000a7e:	71fb      	strb	r3, [r7, #7]
  if ((int32_t)(IRQn) >= 0)
 8000a80:	f997 3007 	ldrsb.w	r3, [r7, #7]
 8000a84:	2b00      	cmp	r3, #0
 8000a86:	db0a      	blt.n	8000a9e <__NVIC_SetPriority+0x2a>
  {
    NVIC->IP[((uint32_t)IRQn)]               = (uint8_t)((priority << (8U - __NVIC_PRIO_BITS)) & (uint32_t)0xFFUL);
 8000a88:	490d      	ldr	r1, [pc, #52]	; (8000ac0 <__NVIC_SetPriority+0x4c>)
 8000a8a:	f997 3007 	ldrsb.w	r3, [r7, #7]
 8000a8e:	683a      	ldr	r2, [r7, #0]
 8000a90:	b2d2      	uxtb	r2, r2
 8000a92:	0092      	lsls	r2, r2, #2
 8000a94:	b2d2      	uxtb	r2, r2
 8000a96:	440b      	add	r3, r1
 8000a98:	f883 2300 	strb.w	r2, [r3, #768]	; 0x300
 8000a9c:	e00a      	b.n	8000ab4 <__NVIC_SetPriority+0x40>
  }
  else
  {
    SCB->SHP[(((uint32_t)IRQn) & 0xFUL)-4UL] = (uint8_t)((priority << (8U - __NVIC_PRIO_BITS)) & (uint32_t)0xFFUL);
 8000a9e:	4909      	ldr	r1, [pc, #36]	; (8000ac4 <__NVIC_SetPriority+0x50>)
 8000aa0:	79fb      	ldrb	r3, [r7, #7]
 8000aa2:	f003 030f 	and.w	r3, r3, #15
 8000aa6:	3b04      	subs	r3, #4
 8000aa8:	683a      	ldr	r2, [r7, #0]
 8000aaa:	b2d2      	uxtb	r2, r2
 8000aac:	0092      	lsls	r2, r2, #2
 8000aae:	b2d2      	uxtb	r2, r2
 8000ab0:	440b      	add	r3, r1
 8000ab2:	761a      	strb	r2, [r3, #24]
  }
}
 8000ab4:	370c      	adds	r7, #12
 8000ab6:	46bd      	mov	sp, r7
 8000ab8:	f85d 7b04 	ldr.w	r7, [sp], #4
 8000abc:	4770      	bx	lr
 8000abe:	bf00      	nop
 8000ac0:	e000e100 	.word	0xe000e100
 8000ac4:	e000ed00 	.word	0xe000ed00

08000ac8 <adc_init>:

/*
	Initialize VADC unit
*/
void adc_init(void)
{
 8000ac8:	b480      	push	{r7}
 8000aca:	af00      	add	r7, sp, #0
	/*Pin setup - P14.0 P14.3 P14.4*/
	PORT14->IOCR0 |= (INPUT_PULL_UP_MSK << PORT14_IOCR0_PC0_POS); // P14.0 - G0CH0				-A
 8000acc:	4ac8      	ldr	r2, [pc, #800]	; (8000df0 <adc_init+0x328>)
 8000ace:	4bc8      	ldr	r3, [pc, #800]	; (8000df0 <adc_init+0x328>)
 8000ad0:	691b      	ldr	r3, [r3, #16]
 8000ad2:	f043 0310 	orr.w	r3, r3, #16
 8000ad6:	6113      	str	r3, [r2, #16]
	PORT14->IOCR0 |= (INPUT_PULL_UP_MSK << PORT14_IOCR0_PC3_POS); // P14.3 - G1CH3(ALIAS CH0)	-B
 8000ad8:	4ac5      	ldr	r2, [pc, #788]	; (8000df0 <adc_init+0x328>)
 8000ada:	4bc5      	ldr	r3, [pc, #788]	; (8000df0 <adc_init+0x328>)
 8000adc:	691b      	ldr	r3, [r3, #16]
 8000ade:	f043 5380 	orr.w	r3, r3, #268435456	; 0x10000000
 8000ae2:	6113      	str	r3, [r2, #16]
	PORT14->IOCR4 |= (INPUT_PULL_UP_MSK << PORT14_IOCR4_PC4_POS); // P14.4 - G2CH0				-C
 8000ae4:	4ac2      	ldr	r2, [pc, #776]	; (8000df0 <adc_init+0x328>)
 8000ae6:	4bc2      	ldr	r3, [pc, #776]	; (8000df0 <adc_init+0x328>)
 8000ae8:	695b      	ldr	r3, [r3, #20]
 8000aea:	f043 0310 	orr.w	r3, r3, #16
 8000aee:	6153      	str	r3, [r2, #20]

	/*Disable Gating - enables the clock for VADC */
	SCU_CLK->CGATCLR0 |= SCU_CGATCLR0_VADC_MSK;
 8000af0:	4ac0      	ldr	r2, [pc, #768]	; (8000df4 <adc_init+0x32c>)
 8000af2:	4bc0      	ldr	r3, [pc, #768]	; (8000df4 <adc_init+0x32c>)
 8000af4:	6c9b      	ldr	r3, [r3, #72]	; 0x48
 8000af6:	f043 0301 	orr.w	r3, r3, #1
 8000afa:	6493      	str	r3, [r2, #72]	; 0x48

	/*Clear reset*/
	//	SCU_RESET->PRSET0 |= SCU_PRCLR0_VADCRS_MSK
	SCU_RESET->PRCLR0 |= SCU_PRCLR0_VADCRS_MSK;
 8000afc:	4abe      	ldr	r2, [pc, #760]	; (8000df8 <adc_init+0x330>)
 8000afe:	4bbe      	ldr	r3, [pc, #760]	; (8000df8 <adc_init+0x330>)
 8000b00:	695b      	ldr	r3, [r3, #20]
 8000b02:	f043 0301 	orr.w	r3, r3, #1
 8000b06:	6153      	str	r3, [r2, #20]

	/*Enable Module Clock - write 0 to enable*/
	VADC->CLC &= ~VADC_CLC_DISR_MSK;
 8000b08:	f04f 2240 	mov.w	r2, #1073758208	; 0x40004000
 8000b0c:	f04f 2340 	mov.w	r3, #1073758208	; 0x40004000
 8000b10:	681b      	ldr	r3, [r3, #0]
 8000b12:	f023 0301 	bic.w	r3, r3, #1
 8000b16:	6013      	str	r3, [r2, #0]

	/*Set Frequency to 36MHz by dividing the F_ADC/4 -> 144/4=36 --- NEED TO ALSO WRITE INTO ENABLE BIT*/
	//	VADC->GLOBCFG = (uint32_t)((VADC_GLOBCGF_DIVA_4_MSK << VADC_GLOBCGF_DIVA_POS) | (VADC_GLOBCFG_DIVWC));

	/*Configure Conversion resolution - 12BITS  --- GLOBAL*/
	VADC->GLOBICLASS[0] &= ~(VADC_GLOBICLASS0_CMS_12_MSK << VADC_GLOBICLASS0_CMS_POS);
 8000b18:	f04f 2240 	mov.w	r2, #1073758208	; 0x40004000
 8000b1c:	f04f 2340 	mov.w	r3, #1073758208	; 0x40004000
 8000b20:	f8d3 30a0 	ldr.w	r3, [r3, #160]	; 0xa0
 8000b24:	f423 63e0 	bic.w	r3, r3, #1792	; 0x700
 8000b28:	f8c2 30a0 	str.w	r3, [r2, #160]	; 0xa0

	/*Configure Sample and hold time - 5clocks --- GLOBAL*/
	VADC->GLOBICLASS[0] |= (VADC_GLOBICLASS0_STCS_5_MSK << VADC_GLOBICLASS0_STCS_POS);
 8000b2c:	f04f 2240 	mov.w	r2, #1073758208	; 0x40004000
 8000b30:	f04f 2340 	mov.w	r3, #1073758208	; 0x40004000
 8000b34:	f8d3 30a0 	ldr.w	r3, [r3, #160]	; 0xa0
 8000b38:	f043 0305 	orr.w	r3, r3, #5
 8000b3c:	f8c2 30a0 	str.w	r3, [r2, #160]	; 0xa0

	/*Power Up VADC G0/G1/G2 for calibration*/
	/*Enable all Analog Converters*/
	VADC_G0->ARBCFG |= VADC_ARBCFG_ANONC_MSK;
 8000b40:	4aae      	ldr	r2, [pc, #696]	; (8000dfc <adc_init+0x334>)
 8000b42:	4bae      	ldr	r3, [pc, #696]	; (8000dfc <adc_init+0x334>)
 8000b44:	f8d3 3080 	ldr.w	r3, [r3, #128]	; 0x80
 8000b48:	f043 0303 	orr.w	r3, r3, #3
 8000b4c:	f8c2 3080 	str.w	r3, [r2, #128]	; 0x80
	VADC_G1->ARBCFG |= VADC_ARBCFG_ANONC_MSK;
 8000b50:	4aab      	ldr	r2, [pc, #684]	; (8000e00 <adc_init+0x338>)
 8000b52:	4bab      	ldr	r3, [pc, #684]	; (8000e00 <adc_init+0x338>)
 8000b54:	f8d3 3080 	ldr.w	r3, [r3, #128]	; 0x80
 8000b58:	f043 0303 	orr.w	r3, r3, #3
 8000b5c:	f8c2 3080 	str.w	r3, [r2, #128]	; 0x80
	VADC_G2->ARBCFG |= VADC_ARBCFG_ANONC_MSK;
 8000b60:	4aa8      	ldr	r2, [pc, #672]	; (8000e04 <adc_init+0x33c>)
 8000b62:	4ba8      	ldr	r3, [pc, #672]	; (8000e04 <adc_init+0x33c>)
 8000b64:	f8d3 3080 	ldr.w	r3, [r3, #128]	; 0x80
 8000b68:	f043 0303 	orr.w	r3, r3, #3
 8000b6c:	f8c2 3080 	str.w	r3, [r2, #128]	; 0x80

	/*StartUp Calibration*/
	VADC->GLOBCFG |= ENABLE << VADC_GLOBCFG_SUCAL_POS;
 8000b70:	f04f 2240 	mov.w	r2, #1073758208	; 0x40004000
 8000b74:	f04f 2340 	mov.w	r3, #1073758208	; 0x40004000
 8000b78:	f8d3 3080 	ldr.w	r3, [r3, #128]	; 0x80
 8000b7c:	f043 4300 	orr.w	r3, r3, #2147483648	; 0x80000000
 8000b80:	f8c2 3080 	str.w	r3, [r2, #128]	; 0x80

	/*Wait for calibration to finish*/
	while ((VADC_G0->ARBCFG & VADC_ARBCFG_CAL_MSK) && (VADC_G1->ARBCFG & VADC_ARBCFG_CAL_MSK) && (VADC_G2->ARBCFG & VADC_ARBCFG_CAL_MSK))
 8000b84:	bf00      	nop
 8000b86:	4b9d      	ldr	r3, [pc, #628]	; (8000dfc <adc_init+0x334>)
 8000b88:	f8d3 3080 	ldr.w	r3, [r3, #128]	; 0x80
 8000b8c:	f003 5380 	and.w	r3, r3, #268435456	; 0x10000000
 8000b90:	2b00      	cmp	r3, #0
 8000b92:	d00d      	beq.n	8000bb0 <adc_init+0xe8>
 8000b94:	4b9a      	ldr	r3, [pc, #616]	; (8000e00 <adc_init+0x338>)
 8000b96:	f8d3 3080 	ldr.w	r3, [r3, #128]	; 0x80
 8000b9a:	f003 5380 	and.w	r3, r3, #268435456	; 0x10000000
 8000b9e:	2b00      	cmp	r3, #0
 8000ba0:	d006      	beq.n	8000bb0 <adc_init+0xe8>
 8000ba2:	4b98      	ldr	r3, [pc, #608]	; (8000e04 <adc_init+0x33c>)
 8000ba4:	f8d3 3080 	ldr.w	r3, [r3, #128]	; 0x80
 8000ba8:	f003 5380 	and.w	r3, r3, #268435456	; 0x10000000
 8000bac:	2b00      	cmp	r3, #0
 8000bae:	d1ea      	bne.n	8000b86 <adc_init+0xbe>

	/*Configure the conversion kernel*/

	/*Slave SetUp - G1/G2*/
	/*Disable arbitration*/
	VADC_G1->ARBPR &= ~(DISABLE << VADC_ARBPR_ASEN0_POS);
 8000bb0:	4a93      	ldr	r2, [pc, #588]	; (8000e00 <adc_init+0x338>)
 8000bb2:	4b93      	ldr	r3, [pc, #588]	; (8000e00 <adc_init+0x338>)
 8000bb4:	f8d3 3084 	ldr.w	r3, [r3, #132]	; 0x84
 8000bb8:	f023 7380 	bic.w	r3, r3, #16777216	; 0x1000000
 8000bbc:	f8c2 3084 	str.w	r3, [r2, #132]	; 0x84
	VADC_G2->ARBPR &= ~(DISABLE << VADC_ARBPR_ASEN0_POS);
 8000bc0:	4a90      	ldr	r2, [pc, #576]	; (8000e04 <adc_init+0x33c>)
 8000bc2:	4b90      	ldr	r3, [pc, #576]	; (8000e04 <adc_init+0x33c>)
 8000bc4:	f8d3 3084 	ldr.w	r3, [r3, #132]	; 0x84
 8000bc8:	f023 7380 	bic.w	r3, r3, #16777216	; 0x1000000
 8000bcc:	f8c2 3084 	str.w	r3, [r2, #132]	; 0x84

	/*Set maximum priority */
	VADC_G1->ARBPR |= VADC_ARBPR_PRIO0_MAX_MSK;
 8000bd0:	4a8b      	ldr	r2, [pc, #556]	; (8000e00 <adc_init+0x338>)
 8000bd2:	4b8b      	ldr	r3, [pc, #556]	; (8000e00 <adc_init+0x338>)
 8000bd4:	f8d3 3084 	ldr.w	r3, [r3, #132]	; 0x84
 8000bd8:	f043 0303 	orr.w	r3, r3, #3
 8000bdc:	f8c2 3084 	str.w	r3, [r2, #132]	; 0x84
	VADC_G2->ARBPR |= VADC_ARBPR_PRIO0_MAX_MSK;
 8000be0:	4a88      	ldr	r2, [pc, #544]	; (8000e04 <adc_init+0x33c>)
 8000be2:	4b88      	ldr	r3, [pc, #544]	; (8000e04 <adc_init+0x33c>)
 8000be4:	f8d3 3084 	ldr.w	r3, [r3, #132]	; 0x84
 8000be8:	f043 0303 	orr.w	r3, r3, #3
 8000bec:	f8c2 3084 	str.w	r3, [r2, #132]	; 0x84
	//	/*External Trigger Input Selection - Trigger on Input J (CCU80.SR3)*/
	//	VADC_G1->QCTRL0 |= (ENABLE << VADC_QCTRL0_XTWC_POS) | (VADC_QCTRL0_XTSEL_J_MSK << VADC_QCTRL0_XTSEL_POS);
	//	VADC_G2->QCTRL0 |= (ENABLE << VADC_QCTRL0_XTWC_POS) | (VADC_QCTRL0_XTSEL_J_MSK << VADC_QCTRL0_XTSEL_POS);

	/*Enable interruption of other running conversions*/
	VADC_G1->ARBPR |= VADC_ARBPR_CSM0_MSK;
 8000bf0:	4a83      	ldr	r2, [pc, #524]	; (8000e00 <adc_init+0x338>)
 8000bf2:	4b83      	ldr	r3, [pc, #524]	; (8000e00 <adc_init+0x338>)
 8000bf4:	f8d3 3084 	ldr.w	r3, [r3, #132]	; 0x84
 8000bf8:	f043 0308 	orr.w	r3, r3, #8
 8000bfc:	f8c2 3084 	str.w	r3, [r2, #132]	; 0x84
	VADC_G2->ARBPR |= VADC_ARBPR_CSM0_MSK;
 8000c00:	4a80      	ldr	r2, [pc, #512]	; (8000e04 <adc_init+0x33c>)
 8000c02:	4b80      	ldr	r3, [pc, #512]	; (8000e04 <adc_init+0x33c>)
 8000c04:	f8d3 3084 	ldr.w	r3, [r3, #132]	; 0x84
 8000c08:	f043 0308 	orr.w	r3, r3, #8
 8000c0c:	f8c2 3084 	str.w	r3, [r2, #132]	; 0x84

	/*Enable arbitration*/
	VADC_G1->ARBPR |= (ENABLE << VADC_ARBPR_ASEN0_POS);
 8000c10:	4a7b      	ldr	r2, [pc, #492]	; (8000e00 <adc_init+0x338>)
 8000c12:	4b7b      	ldr	r3, [pc, #492]	; (8000e00 <adc_init+0x338>)
 8000c14:	f8d3 3084 	ldr.w	r3, [r3, #132]	; 0x84
 8000c18:	f043 7380 	orr.w	r3, r3, #16777216	; 0x1000000
 8000c1c:	f8c2 3084 	str.w	r3, [r2, #132]	; 0x84
	VADC_G2->ARBPR |= (ENABLE << VADC_ARBPR_ASEN0_POS);
 8000c20:	4a78      	ldr	r2, [pc, #480]	; (8000e04 <adc_init+0x33c>)
 8000c22:	4b78      	ldr	r3, [pc, #480]	; (8000e04 <adc_init+0x33c>)
 8000c24:	f8d3 3084 	ldr.w	r3, [r3, #132]	; 0x84
 8000c28:	f043 7380 	orr.w	r3, r3, #16777216	; 0x1000000
 8000c2c:	f8c2 3084 	str.w	r3, [r2, #132]	; 0x84

	/*Master SetUp - G0*/
	/*Disable arbitration*/
	VADC_G0->ARBPR &= ~(DISABLE << VADC_ARBPR_ASEN0_POS);
 8000c30:	4a72      	ldr	r2, [pc, #456]	; (8000dfc <adc_init+0x334>)
 8000c32:	4b72      	ldr	r3, [pc, #456]	; (8000dfc <adc_init+0x334>)
 8000c34:	f8d3 3084 	ldr.w	r3, [r3, #132]	; 0x84
 8000c38:	f023 7380 	bic.w	r3, r3, #16777216	; 0x1000000
 8000c3c:	f8c2 3084 	str.w	r3, [r2, #132]	; 0x84

	/*Set maximum priority */
	VADC_G0->ARBPR |= VADC_ARBPR_PRIO0_MAX_MSK;
 8000c40:	4a6e      	ldr	r2, [pc, #440]	; (8000dfc <adc_init+0x334>)
 8000c42:	4b6e      	ldr	r3, [pc, #440]	; (8000dfc <adc_init+0x334>)
 8000c44:	f8d3 3084 	ldr.w	r3, [r3, #132]	; 0x84
 8000c48:	f043 0303 	orr.w	r3, r3, #3
 8000c4c:	f8c2 3084 	str.w	r3, [r2, #132]	; 0x84

	/*Enable writing in TMEN - Timer mode for equidistant sampling enabled*/
	VADC_G0->QCTRL0 |= (ENABLE << VADC_QCTRL0_TMWC_POS) | (ENABLE << VADC_QCTRL0_TMEN_POS);
 8000c50:	4a6a      	ldr	r2, [pc, #424]	; (8000dfc <adc_init+0x334>)
 8000c52:	4b6a      	ldr	r3, [pc, #424]	; (8000dfc <adc_init+0x334>)
 8000c54:	f8d3 3100 	ldr.w	r3, [r3, #256]	; 0x100
 8000c58:	f043 4310 	orr.w	r3, r3, #2415919104	; 0x90000000
 8000c5c:	f8c2 3100 	str.w	r3, [r2, #256]	; 0x100

	/*Enable writing in XTMODE and XTSEL */
	/*Trigger Operating Mode - Trigger event upon any edge*/
	VADC_G0->QCTRL0 |= (ENABLE << VADC_QCTRL0_XTWC_POS) | (VADC_QCTRL0_XTMODE_ANY_MSK << VADC_QCTRL0_XTMODE_POS);
 8000c60:	4a66      	ldr	r2, [pc, #408]	; (8000dfc <adc_init+0x334>)
 8000c62:	4b66      	ldr	r3, [pc, #408]	; (8000dfc <adc_init+0x334>)
 8000c64:	f8d3 3100 	ldr.w	r3, [r3, #256]	; 0x100
 8000c68:	f443 4360 	orr.w	r3, r3, #57344	; 0xe000
 8000c6c:	f8c2 3100 	str.w	r3, [r2, #256]	; 0x100

	/*External Trigger Input Selection - Trigger on Input J (CCU80.SR3)*/
	VADC_G0->QCTRL0 |= (ENABLE << VADC_QCTRL0_XTWC_POS) | (VADC_QCTRL0_XTSEL_J_MSK << VADC_QCTRL0_XTSEL_POS);
 8000c70:	4a62      	ldr	r2, [pc, #392]	; (8000dfc <adc_init+0x334>)
 8000c72:	4b62      	ldr	r3, [pc, #392]	; (8000dfc <adc_init+0x334>)
 8000c74:	f8d3 3100 	ldr.w	r3, [r3, #256]	; 0x100
 8000c78:	f443 4309 	orr.w	r3, r3, #35072	; 0x8900
 8000c7c:	f8c2 3100 	str.w	r3, [r2, #256]	; 0x100

	/*Configure the Queue Mode*/
	/*Enable Gate - Conversion requests are issued if a valid conversion request is pending in the queue 0 register or in the backup register*/
	VADC_G0->QMR0 |= VADC_QMR0_ENGT_MSK;
 8000c80:	4a5e      	ldr	r2, [pc, #376]	; (8000dfc <adc_init+0x334>)
 8000c82:	4b5e      	ldr	r3, [pc, #376]	; (8000dfc <adc_init+0x334>)
 8000c84:	f8d3 3104 	ldr.w	r3, [r3, #260]	; 0x104
 8000c88:	f043 0301 	orr.w	r3, r3, #1
 8000c8c:	f8c2 3104 	str.w	r3, [r2, #260]	; 0x104

	/*Enable External Trigger - The selected edge at the selected trigger input signal REQTR generates the trigger event*/
	VADC_G0->QMR0 |= VADC_QMR0_ENTR_MSK;
 8000c90:	4a5a      	ldr	r2, [pc, #360]	; (8000dfc <adc_init+0x334>)
 8000c92:	4b5a      	ldr	r3, [pc, #360]	; (8000dfc <adc_init+0x334>)
 8000c94:	f8d3 3104 	ldr.w	r3, [r3, #260]	; 0x104
 8000c98:	f043 0304 	orr.w	r3, r3, #4
 8000c9c:	f8c2 3104 	str.w	r3, [r2, #260]	; 0x104

	/*Enable arbitration*/
	VADC_G0->ARBPR |= (ENABLE << VADC_ARBPR_ASEN0_POS);
 8000ca0:	4a56      	ldr	r2, [pc, #344]	; (8000dfc <adc_init+0x334>)
 8000ca2:	4b56      	ldr	r3, [pc, #344]	; (8000dfc <adc_init+0x334>)
 8000ca4:	f8d3 3084 	ldr.w	r3, [r3, #132]	; 0x84
 8000ca8:	f043 7380 	orr.w	r3, r3, #16777216	; 0x1000000
 8000cac:	f8c2 3084 	str.w	r3, [r2, #132]	; 0x84

	/*Channel configuration*/
	/*Set Channel 0 as priority channel*/
	VADC_G0->CHASS |= VADC_CHASS_ASSCH0_MSK;
 8000cb0:	4a52      	ldr	r2, [pc, #328]	; (8000dfc <adc_init+0x334>)
 8000cb2:	4b52      	ldr	r3, [pc, #328]	; (8000dfc <adc_init+0x334>)
 8000cb4:	f8d3 3088 	ldr.w	r3, [r3, #136]	; 0x88
 8000cb8:	f043 0301 	orr.w	r3, r3, #1
 8000cbc:	f8c2 3088 	str.w	r3, [r2, #136]	; 0x88
	VADC_G1->CHASS |= VADC_CHASS_ASSCH0_MSK;
 8000cc0:	4a4f      	ldr	r2, [pc, #316]	; (8000e00 <adc_init+0x338>)
 8000cc2:	4b4f      	ldr	r3, [pc, #316]	; (8000e00 <adc_init+0x338>)
 8000cc4:	f8d3 3088 	ldr.w	r3, [r3, #136]	; 0x88
 8000cc8:	f043 0301 	orr.w	r3, r3, #1
 8000ccc:	f8c2 3088 	str.w	r3, [r2, #136]	; 0x88
	VADC_G2->CHASS |= VADC_CHASS_ASSCH0_MSK;
 8000cd0:	4a4c      	ldr	r2, [pc, #304]	; (8000e04 <adc_init+0x33c>)
 8000cd2:	4b4c      	ldr	r3, [pc, #304]	; (8000e04 <adc_init+0x33c>)
 8000cd4:	f8d3 3088 	ldr.w	r3, [r3, #136]	; 0x88
 8000cd8:	f043 0301 	orr.w	r3, r3, #1
 8000cdc:	f8c2 3088 	str.w	r3, [r2, #136]	; 0x88

	/*Convert G1CH3 into CH0 with ALIAS*/
	VADC_G1->ALIAS |= 3U << VADC_ALIAS_ALIAS0_POS;
 8000ce0:	4a47      	ldr	r2, [pc, #284]	; (8000e00 <adc_init+0x338>)
 8000ce2:	4b47      	ldr	r3, [pc, #284]	; (8000e00 <adc_init+0x338>)
 8000ce4:	f8d3 30b0 	ldr.w	r3, [r3, #176]	; 0xb0
 8000ce8:	f043 0303 	orr.w	r3, r3, #3
 8000cec:	f8c2 30b0 	str.w	r3, [r2, #176]	; 0xb0

	/*Channel Control - Request a synchronized conversion of this channel (only taken into account for a master)*/
	VADC_G0->CHCTR[0] |= VADC_CHCTR_SYNC_MSK;
 8000cf0:	4a42      	ldr	r2, [pc, #264]	; (8000dfc <adc_init+0x334>)
 8000cf2:	4b42      	ldr	r3, [pc, #264]	; (8000dfc <adc_init+0x334>)
 8000cf4:	f8d3 3200 	ldr.w	r3, [r3, #512]	; 0x200
 8000cf8:	f443 6380 	orr.w	r3, r3, #1024	; 0x400
 8000cfc:	f8c2 3200 	str.w	r3, [r2, #512]	; 0x200

	/*Use GLOBAL class0 configuration*/
	VADC_G0->CHCTR[0] |= VADC_CHCTR_ICSEL_GLOBAL_0_MSK;
 8000d00:	4a3e      	ldr	r2, [pc, #248]	; (8000dfc <adc_init+0x334>)
 8000d02:	4b3e      	ldr	r3, [pc, #248]	; (8000dfc <adc_init+0x334>)
 8000d04:	f8d3 3200 	ldr.w	r3, [r3, #512]	; 0x200
 8000d08:	f043 0302 	orr.w	r3, r3, #2
 8000d0c:	f8c2 3200 	str.w	r3, [r2, #512]	; 0x200

	/*Register used to store results 0-15*/
	VADC_G0->CHCTR[0] |= (1U << VADC_G_CHCTR_RESREG_Pos);
 8000d10:	4a3a      	ldr	r2, [pc, #232]	; (8000dfc <adc_init+0x334>)
 8000d12:	4b3a      	ldr	r3, [pc, #232]	; (8000dfc <adc_init+0x334>)
 8000d14:	f8d3 3200 	ldr.w	r3, [r3, #512]	; 0x200
 8000d18:	f443 3380 	orr.w	r3, r3, #65536	; 0x10000
 8000d1c:	f8c2 3200 	str.w	r3, [r2, #512]	; 0x200
	VADC_G1->CHCTR[0] |= (1U << VADC_G_CHCTR_RESREG_Pos);
 8000d20:	4a37      	ldr	r2, [pc, #220]	; (8000e00 <adc_init+0x338>)
 8000d22:	4b37      	ldr	r3, [pc, #220]	; (8000e00 <adc_init+0x338>)
 8000d24:	f8d3 3200 	ldr.w	r3, [r3, #512]	; 0x200
 8000d28:	f443 3380 	orr.w	r3, r3, #65536	; 0x10000
 8000d2c:	f8c2 3200 	str.w	r3, [r2, #512]	; 0x200
	VADC_G2->CHCTR[0] |= (1U << VADC_G_CHCTR_RESREG_Pos);
 8000d30:	4a34      	ldr	r2, [pc, #208]	; (8000e04 <adc_init+0x33c>)
 8000d32:	4b34      	ldr	r3, [pc, #208]	; (8000e04 <adc_init+0x33c>)
 8000d34:	f8d3 3200 	ldr.w	r3, [r3, #512]	; 0x200
 8000d38:	f443 3380 	orr.w	r3, r3, #65536	; 0x10000
 8000d3c:	f8c2 3200 	str.w	r3, [r2, #512]	; 0x200
	/*----Channel to be converted									*/
	/*Enable Source Interrupt - (x << VADC_G_QINR0_REQCHNR_Pos)		*/
	/*External Trigger - VADC_QINR0_EXTR_MSK						*/
	/*Automatic refill - VADC_QINR0_RF_MSK							*/
	/*End of conversion trigger - VADC_QINR0_ENSI_MSK				*/
	VADC_G0->QINR0 |= (0U << VADC_G_QINR0_REQCHNR_Pos) | VADC_QINR0_RF_MSK | VADC_QINR0_EXTR_MSK | VADC_QINR0_ENSI_MSK;
 8000d40:	4a2e      	ldr	r2, [pc, #184]	; (8000dfc <adc_init+0x334>)
 8000d42:	4b2e      	ldr	r3, [pc, #184]	; (8000dfc <adc_init+0x334>)
 8000d44:	f8d3 3110 	ldr.w	r3, [r3, #272]	; 0x110
 8000d48:	f043 03e0 	orr.w	r3, r3, #224	; 0xe0
 8000d4c:	f8c2 3110 	str.w	r3, [r2, #272]	; 0x110
	;

	/*Configure master and slave channels*/
	/*Power down the VADC */
	VADC_G0->ARBCFG &= ~VADC_ARBCFG_ANONC_MSK;
 8000d50:	4a2a      	ldr	r2, [pc, #168]	; (8000dfc <adc_init+0x334>)
 8000d52:	4b2a      	ldr	r3, [pc, #168]	; (8000dfc <adc_init+0x334>)
 8000d54:	f8d3 3080 	ldr.w	r3, [r3, #128]	; 0x80
 8000d58:	f023 0303 	bic.w	r3, r3, #3
 8000d5c:	f8c2 3080 	str.w	r3, [r2, #128]	; 0x80
	VADC_G1->ARBCFG &= ~VADC_ARBCFG_ANONC_MSK;
 8000d60:	4a27      	ldr	r2, [pc, #156]	; (8000e00 <adc_init+0x338>)
 8000d62:	4b27      	ldr	r3, [pc, #156]	; (8000e00 <adc_init+0x338>)
 8000d64:	f8d3 3080 	ldr.w	r3, [r3, #128]	; 0x80
 8000d68:	f023 0303 	bic.w	r3, r3, #3
 8000d6c:	f8c2 3080 	str.w	r3, [r2, #128]	; 0x80
	VADC_G2->ARBCFG &= ~VADC_ARBCFG_ANONC_MSK;
 8000d70:	4a24      	ldr	r2, [pc, #144]	; (8000e04 <adc_init+0x33c>)
 8000d72:	4b24      	ldr	r3, [pc, #144]	; (8000e04 <adc_init+0x33c>)
 8000d74:	f8d3 3080 	ldr.w	r3, [r3, #128]	; 0x80
 8000d78:	f023 0303 	bic.w	r3, r3, #3
 8000d7c:	f8c2 3080 	str.w	r3, [r2, #128]	; 0x80

	/*G0 – master; G1, G2 – slaves */
	VADC_G1->SYNCTR |= VADC_SYNCTR_STSEL_CL1_MSK;
 8000d80:	4a1f      	ldr	r2, [pc, #124]	; (8000e00 <adc_init+0x338>)
 8000d82:	4b1f      	ldr	r3, [pc, #124]	; (8000e00 <adc_init+0x338>)
 8000d84:	f8d3 30c0 	ldr.w	r3, [r3, #192]	; 0xc0
 8000d88:	f043 0301 	orr.w	r3, r3, #1
 8000d8c:	f8c2 30c0 	str.w	r3, [r2, #192]	; 0xc0
	VADC_G2->SYNCTR |= VADC_SYNCTR_STSEL_CL1_MSK;
 8000d90:	4a1c      	ldr	r2, [pc, #112]	; (8000e04 <adc_init+0x33c>)
 8000d92:	4b1c      	ldr	r3, [pc, #112]	; (8000e04 <adc_init+0x33c>)
 8000d94:	f8d3 30c0 	ldr.w	r3, [r3, #192]	; 0xc0
 8000d98:	f043 0301 	orr.w	r3, r3, #1
 8000d9c:	f8c2 30c0 	str.w	r3, [r2, #192]	; 0xc0

	/*Evaluate Ready Input Rx - EVALR1*/
	VADC_G0->SYNCTR |= VADC_SYNCTR_EVALR1_MSK;
 8000da0:	4a16      	ldr	r2, [pc, #88]	; (8000dfc <adc_init+0x334>)
 8000da2:	4b16      	ldr	r3, [pc, #88]	; (8000dfc <adc_init+0x334>)
 8000da4:	f8d3 30c0 	ldr.w	r3, [r3, #192]	; 0xc0
 8000da8:	f043 0310 	orr.w	r3, r3, #16
 8000dac:	f8c2 30c0 	str.w	r3, [r2, #192]	; 0xc0
	VADC_G1->SYNCTR |= VADC_SYNCTR_EVALR1_MSK;
 8000db0:	4a13      	ldr	r2, [pc, #76]	; (8000e00 <adc_init+0x338>)
 8000db2:	4b13      	ldr	r3, [pc, #76]	; (8000e00 <adc_init+0x338>)
 8000db4:	f8d3 30c0 	ldr.w	r3, [r3, #192]	; 0xc0
 8000db8:	f043 0310 	orr.w	r3, r3, #16
 8000dbc:	f8c2 30c0 	str.w	r3, [r2, #192]	; 0xc0
	VADC_G2->SYNCTR |= VADC_SYNCTR_EVALR1_MSK;
 8000dc0:	4a10      	ldr	r2, [pc, #64]	; (8000e04 <adc_init+0x33c>)
 8000dc2:	4b10      	ldr	r3, [pc, #64]	; (8000e04 <adc_init+0x33c>)
 8000dc4:	f8d3 30c0 	ldr.w	r3, [r3, #192]	; 0xc0
 8000dc8:	f043 0310 	orr.w	r3, r3, #16
 8000dcc:	f8c2 30c0 	str.w	r3, [r2, #192]	; 0xc0

	/*Power on the VADC*/
	VADC_G0->ARBCFG |= VADC_ARBCFG_ANONC_MSK;
 8000dd0:	4a0a      	ldr	r2, [pc, #40]	; (8000dfc <adc_init+0x334>)
 8000dd2:	4b0a      	ldr	r3, [pc, #40]	; (8000dfc <adc_init+0x334>)
 8000dd4:	f8d3 3080 	ldr.w	r3, [r3, #128]	; 0x80
 8000dd8:	f043 0303 	orr.w	r3, r3, #3
 8000ddc:	f8c2 3080 	str.w	r3, [r2, #128]	; 0x80

	/*Result Register - Service Request Generation Enable*/
	VADC_G0->RCR[1] = VADC_GxRCRy_SRGEN_MSK;
 8000de0:	4b06      	ldr	r3, [pc, #24]	; (8000dfc <adc_init+0x334>)
 8000de2:	f04f 4200 	mov.w	r2, #2147483648	; 0x80000000
 8000de6:	f8c3 2284 	str.w	r2, [r3, #644]	; 0x284

	/*Routes the corresponding event trigger from RESULT group to G0_CH2*/
	VADC_G0->REVNP0 |= (VADC_REVNP0_REV0NP_L2G0_MSK << 4U);
 8000dea:	4a04      	ldr	r2, [pc, #16]	; (8000dfc <adc_init+0x334>)
 8000dec:	e00c      	b.n	8000e08 <adc_init+0x340>
 8000dee:	bf00      	nop
 8000df0:	48028e00 	.word	0x48028e00
 8000df4:	50004600 	.word	0x50004600
 8000df8:	50004400 	.word	0x50004400
 8000dfc:	40004400 	.word	0x40004400
 8000e00:	40004800 	.word	0x40004800
 8000e04:	40004c00 	.word	0x40004c00
 8000e08:	4b35      	ldr	r3, [pc, #212]	; (8000ee0 <adc_init+0x418>)
 8000e0a:	f8d3 31b0 	ldr.w	r3, [r3, #432]	; 0x1b0
 8000e0e:	f043 0320 	orr.w	r3, r3, #32
 8000e12:	f8c2 31b0 	str.w	r3, [r2, #432]	; 0x1b0

	/*AutoScan for V_mot & V_log*/

	/*Pin Set up*/
	PORT15->IOCR4 |= (INPUT_PULL_UP_MSK << PORT15_IOCR4_PC6_Pos);	 // P15.6 - G2CH6				-Vmot
 8000e16:	4a33      	ldr	r2, [pc, #204]	; (8000ee4 <adc_init+0x41c>)
 8000e18:	4b32      	ldr	r3, [pc, #200]	; (8000ee4 <adc_init+0x41c>)
 8000e1a:	695b      	ldr	r3, [r3, #20]
 8000e1c:	f443 1380 	orr.w	r3, r3, #1048576	; 0x100000
 8000e20:	6153      	str	r3, [r2, #20]
	PORT14->IOCR12 |= (INPUT_PULL_UP_MSK << PORT14_IOCR12_PC14_Pos); // P14.14- G1CH6				-Vlog
 8000e22:	4a31      	ldr	r2, [pc, #196]	; (8000ee8 <adc_init+0x420>)
 8000e24:	4b30      	ldr	r3, [pc, #192]	; (8000ee8 <adc_init+0x420>)
 8000e26:	69db      	ldr	r3, [r3, #28]
 8000e28:	f443 1380 	orr.w	r3, r3, #1048576	; 0x100000
 8000e2c:	61d3      	str	r3, [r2, #28]

	/*Channel Select*/
	VADC_G1->ASSEL |= (ENABLE << VADC_ASSEL_CHSEL6_POS);
 8000e2e:	4a2f      	ldr	r2, [pc, #188]	; (8000eec <adc_init+0x424>)
 8000e30:	4b2e      	ldr	r3, [pc, #184]	; (8000eec <adc_init+0x424>)
 8000e32:	f8d3 3128 	ldr.w	r3, [r3, #296]	; 0x128
 8000e36:	f043 0340 	orr.w	r3, r3, #64	; 0x40
 8000e3a:	f8c2 3128 	str.w	r3, [r2, #296]	; 0x128
	VADC_G2->ASSEL |= (ENABLE << VADC_ASSEL_CHSEL6_POS);
 8000e3e:	4a2c      	ldr	r2, [pc, #176]	; (8000ef0 <adc_init+0x428>)
 8000e40:	4b2b      	ldr	r3, [pc, #172]	; (8000ef0 <adc_init+0x428>)
 8000e42:	f8d3 3128 	ldr.w	r3, [r3, #296]	; 0x128
 8000e46:	f043 0340 	orr.w	r3, r3, #64	; 0x40
 8000e4a:	f8c2 3128 	str.w	r3, [r2, #296]	; 0x128

	/*Define load event*/
	VADC_G1->ASMR |= VADC_ASMR_SCAN_MSK | VADC_ASMR_ENGT_MSK | VADC_ASMR_LDEV_MSK;
 8000e4e:	4a27      	ldr	r2, [pc, #156]	; (8000eec <adc_init+0x424>)
 8000e50:	4b26      	ldr	r3, [pc, #152]	; (8000eec <adc_init+0x424>)
 8000e52:	f8d3 3124 	ldr.w	r3, [r3, #292]	; 0x124
 8000e56:	f443 7304 	orr.w	r3, r3, #528	; 0x210
 8000e5a:	f043 0301 	orr.w	r3, r3, #1
 8000e5e:	f8c2 3124 	str.w	r3, [r2, #292]	; 0x124
	VADC_G2->ASMR |= VADC_ASMR_SCAN_MSK | VADC_ASMR_ENGT_MSK | VADC_ASMR_LDEV_MSK;
 8000e62:	4a23      	ldr	r2, [pc, #140]	; (8000ef0 <adc_init+0x428>)
 8000e64:	4b22      	ldr	r3, [pc, #136]	; (8000ef0 <adc_init+0x428>)
 8000e66:	f8d3 3124 	ldr.w	r3, [r3, #292]	; 0x124
 8000e6a:	f443 7304 	orr.w	r3, r3, #528	; 0x210
 8000e6e:	f043 0301 	orr.w	r3, r3, #1
 8000e72:	f8c2 3124 	str.w	r3, [r2, #292]	; 0x124

	/*Conversion configuration to use global 0 settings*/
	VADC_G1->CHCTR[6] |= VADC_CHCTR_ICSEL_GLOBAL_0_MSK;
 8000e76:	4a1d      	ldr	r2, [pc, #116]	; (8000eec <adc_init+0x424>)
 8000e78:	4b1c      	ldr	r3, [pc, #112]	; (8000eec <adc_init+0x424>)
 8000e7a:	f8d3 3218 	ldr.w	r3, [r3, #536]	; 0x218
 8000e7e:	f043 0302 	orr.w	r3, r3, #2
 8000e82:	f8c2 3218 	str.w	r3, [r2, #536]	; 0x218
	VADC_G2->CHCTR[6] |= VADC_CHCTR_ICSEL_GLOBAL_0_MSK;
 8000e86:	4a1a      	ldr	r2, [pc, #104]	; (8000ef0 <adc_init+0x428>)
 8000e88:	4b19      	ldr	r3, [pc, #100]	; (8000ef0 <adc_init+0x428>)
 8000e8a:	f8d3 3218 	ldr.w	r3, [r3, #536]	; 0x218
 8000e8e:	f043 0302 	orr.w	r3, r3, #2
 8000e92:	f8c2 3218 	str.w	r3, [r2, #536]	; 0x218

	/*Enable Arbitration*/
	VADC_G1->ARBPR |= (ENABLE << VADC_ARBPR_ASEN1_POS);
 8000e96:	4a15      	ldr	r2, [pc, #84]	; (8000eec <adc_init+0x424>)
 8000e98:	4b14      	ldr	r3, [pc, #80]	; (8000eec <adc_init+0x424>)
 8000e9a:	f8d3 3084 	ldr.w	r3, [r3, #132]	; 0x84
 8000e9e:	f043 7300 	orr.w	r3, r3, #33554432	; 0x2000000
 8000ea2:	f8c2 3084 	str.w	r3, [r2, #132]	; 0x84
	VADC_G2->ARBPR |= (ENABLE << VADC_ARBPR_ASEN1_POS);
 8000ea6:	4a12      	ldr	r2, [pc, #72]	; (8000ef0 <adc_init+0x428>)
 8000ea8:	4b11      	ldr	r3, [pc, #68]	; (8000ef0 <adc_init+0x428>)
 8000eaa:	f8d3 3084 	ldr.w	r3, [r3, #132]	; 0x84
 8000eae:	f043 7300 	orr.w	r3, r3, #33554432	; 0x2000000
 8000eb2:	f8c2 3084 	str.w	r3, [r2, #132]	; 0x84

	/*Registers to store results 0-15*/
	VADC_G1->CHCTR[6] |= (14U << VADC_G_CHCTR_RESREG_Pos);
 8000eb6:	4a0d      	ldr	r2, [pc, #52]	; (8000eec <adc_init+0x424>)
 8000eb8:	4b0c      	ldr	r3, [pc, #48]	; (8000eec <adc_init+0x424>)
 8000eba:	f8d3 3218 	ldr.w	r3, [r3, #536]	; 0x218
 8000ebe:	f443 2360 	orr.w	r3, r3, #917504	; 0xe0000
 8000ec2:	f8c2 3218 	str.w	r3, [r2, #536]	; 0x218
	VADC_G2->CHCTR[6] |= (14U << VADC_G_CHCTR_RESREG_Pos);
 8000ec6:	4a0a      	ldr	r2, [pc, #40]	; (8000ef0 <adc_init+0x428>)
 8000ec8:	4b09      	ldr	r3, [pc, #36]	; (8000ef0 <adc_init+0x428>)
 8000eca:	f8d3 3218 	ldr.w	r3, [r3, #536]	; 0x218
 8000ece:	f443 2360 	orr.w	r3, r3, #917504	; 0xe0000
 8000ed2:	f8c2 3218 	str.w	r3, [r2, #536]	; 0x218
}
 8000ed6:	46bd      	mov	sp, r7
 8000ed8:	f85d 7b04 	ldr.w	r7, [sp], #4
 8000edc:	4770      	bx	lr
 8000ede:	bf00      	nop
 8000ee0:	40004400 	.word	0x40004400
 8000ee4:	48028f00 	.word	0x48028f00
 8000ee8:	48028e00 	.word	0x48028e00
 8000eec:	40004800 	.word	0x40004800
 8000ef0:	40004c00 	.word	0x40004c00

08000ef4 <interrupt_vadc_init>:

void interrupt_vadc_init(void)
{
 8000ef4:	b580      	push	{r7, lr}
 8000ef6:	af00      	add	r7, sp, #0
	/*  Reset CCU80 */
	SCU_RESET->PRSET0 |= SCU_RESET_PRSET0_CCU80RS_Msk;
 8000ef8:	4a3d      	ldr	r2, [pc, #244]	; (8000ff0 <interrupt_vadc_init+0xfc>)
 8000efa:	4b3d      	ldr	r3, [pc, #244]	; (8000ff0 <interrupt_vadc_init+0xfc>)
 8000efc:	691b      	ldr	r3, [r3, #16]
 8000efe:	f043 0380 	orr.w	r3, r3, #128	; 0x80
 8000f02:	6113      	str	r3, [r2, #16]

	/* Clear reset of CCU80 */
	SCU_RESET->PRCLR0 |= SCU_RESET_PRCLR0_CCU80RS_Msk;
 8000f04:	4a3a      	ldr	r2, [pc, #232]	; (8000ff0 <interrupt_vadc_init+0xfc>)
 8000f06:	4b3a      	ldr	r3, [pc, #232]	; (8000ff0 <interrupt_vadc_init+0xfc>)
 8000f08:	695b      	ldr	r3, [r3, #20]
 8000f0a:	f043 0380 	orr.w	r3, r3, #128	; 0x80
 8000f0e:	6153      	str	r3, [r2, #20]

	/* Enable CCU8 via clkset */
	SCU_CLK->CLKSET |= SCU_CLK_CLKSET_CCUCEN_Msk;
 8000f10:	4a38      	ldr	r2, [pc, #224]	; (8000ff4 <interrupt_vadc_init+0x100>)
 8000f12:	4b38      	ldr	r3, [pc, #224]	; (8000ff4 <interrupt_vadc_init+0x100>)
 8000f14:	685b      	ldr	r3, [r3, #4]
 8000f16:	f043 0310 	orr.w	r3, r3, #16
 8000f1a:	6053      	str	r3, [r2, #4]

	/* Enable prescaler */
	CCU80->GIDLC |= CCU8_GIDLC_SPRB_Msk;
 8000f1c:	4a36      	ldr	r2, [pc, #216]	; (8000ff8 <interrupt_vadc_init+0x104>)
 8000f1e:	4b36      	ldr	r3, [pc, #216]	; (8000ff8 <interrupt_vadc_init+0x104>)
 8000f20:	68db      	ldr	r3, [r3, #12]
 8000f22:	f443 7380 	orr.w	r3, r3, #256	; 0x100
 8000f26:	60d3      	str	r3, [r2, #12]

	/*Set timer to center aligned mode */
	CCU80_CC83->TC |= (uint32_t)(CCU8_CC8_TC_TCM_Msk);
 8000f28:	4a34      	ldr	r2, [pc, #208]	; (8000ffc <interrupt_vadc_init+0x108>)
 8000f2a:	4b34      	ldr	r3, [pc, #208]	; (8000ffc <interrupt_vadc_init+0x108>)
 8000f2c:	695b      	ldr	r3, [r3, #20]
 8000f2e:	f043 0301 	orr.w	r3, r3, #1
 8000f32:	6153      	str	r3, [r2, #20]

	/*SHADOW:Define the period value of Compare Channel 1 */
	CCU80_CC83->PRS |= (uint32_t)(CCU8_CC8_PRS_PR_Value << CCU8_CC8_PR_PR_Pos);
 8000f34:	4a31      	ldr	r2, [pc, #196]	; (8000ffc <interrupt_vadc_init+0x108>)
 8000f36:	4b31      	ldr	r3, [pc, #196]	; (8000ffc <interrupt_vadc_init+0x108>)
 8000f38:	6b5b      	ldr	r3, [r3, #52]	; 0x34
 8000f3a:	f443 6361 	orr.w	r3, r3, #3600	; 0xe10
 8000f3e:	6353      	str	r3, [r2, #52]	; 0x34

	/*SHADOW:Define the compare value of Compare Channel 1 */
	CCU80_CC83->CR1S |= (uint32_t)(CCU80_CC83_CR_Value << CCU8_CC8_CR1_CR1_Pos);
 8000f40:	4a2e      	ldr	r2, [pc, #184]	; (8000ffc <interrupt_vadc_init+0x108>)
 8000f42:	4b2e      	ldr	r3, [pc, #184]	; (8000ffc <interrupt_vadc_init+0x108>)
 8000f44:	6bdb      	ldr	r3, [r3, #60]	; 0x3c
 8000f46:	f043 0332 	orr.w	r3, r3, #50	; 0x32
 8000f4a:	63d3      	str	r3, [r2, #60]	; 0x3c

	/*Request shadow transfer  */
	CCU80->GCSS |= (CCU8_GCSS_S3SE_Msk);
 8000f4c:	4a2a      	ldr	r2, [pc, #168]	; (8000ff8 <interrupt_vadc_init+0x104>)
 8000f4e:	4b2a      	ldr	r3, [pc, #168]	; (8000ff8 <interrupt_vadc_init+0x104>)
 8000f50:	691b      	ldr	r3, [r3, #16]
 8000f52:	f443 5380 	orr.w	r3, r3, #4096	; 0x1000
 8000f56:	6113      	str	r3, [r2, #16]

	/*Enable CC80*/
	CCU80->GIDLC |= (CCU8_GIDLC_CS3I_Msk);
 8000f58:	4a27      	ldr	r2, [pc, #156]	; (8000ff8 <interrupt_vadc_init+0x104>)
 8000f5a:	4b27      	ldr	r3, [pc, #156]	; (8000ff8 <interrupt_vadc_init+0x104>)
 8000f5c:	68db      	ldr	r3, [r3, #12]
 8000f5e:	f043 0308 	orr.w	r3, r3, #8
 8000f62:	60d3      	str	r3, [r2, #12]

	/*Clear the timer run bit(TRBC) and timer (TCC) */
	CCU80_CC83->TCCLR |= (uint32_t)(CCU8_CC8_TCCLR_TRBC_Msk);
 8000f64:	4a25      	ldr	r2, [pc, #148]	; (8000ffc <interrupt_vadc_init+0x108>)
 8000f66:	4b25      	ldr	r3, [pc, #148]	; (8000ffc <interrupt_vadc_init+0x108>)
 8000f68:	691b      	ldr	r3, [r3, #16]
 8000f6a:	f043 0301 	orr.w	r3, r3, #1
 8000f6e:	6113      	str	r3, [r2, #16]
	CCU80_CC83->TCCLR |= (uint32_t)(CCU8_CC8_TCCLR_TCC_Msk);
 8000f70:	4a22      	ldr	r2, [pc, #136]	; (8000ffc <interrupt_vadc_init+0x108>)
 8000f72:	4b22      	ldr	r3, [pc, #136]	; (8000ffc <interrupt_vadc_init+0x108>)
 8000f74:	691b      	ldr	r3, [r3, #16]
 8000f76:	f043 0302 	orr.w	r3, r3, #2
 8000f7a:	6113      	str	r3, [r2, #16]

	/* Use IN_H for Event 0 on Rising edge
	 * Set start on EVENT 0 on Rising edge
	 */
	CCU80_CC83->INS |= CCU8_IN_H << CCU8_CC8_INS_EV0IS_Pos;
 8000f7c:	4a1f      	ldr	r2, [pc, #124]	; (8000ffc <interrupt_vadc_init+0x108>)
 8000f7e:	4b1f      	ldr	r3, [pc, #124]	; (8000ffc <interrupt_vadc_init+0x108>)
 8000f80:	681b      	ldr	r3, [r3, #0]
 8000f82:	f043 0307 	orr.w	r3, r3, #7
 8000f86:	6013      	str	r3, [r2, #0]
	CCU80_CC83->INS |= ACTIVE_ON_RISING_EDGE << CCU8_CC8_INS_EV0EM_Pos;
 8000f88:	4a1c      	ldr	r2, [pc, #112]	; (8000ffc <interrupt_vadc_init+0x108>)
 8000f8a:	4b1c      	ldr	r3, [pc, #112]	; (8000ffc <interrupt_vadc_init+0x108>)
 8000f8c:	681b      	ldr	r3, [r3, #0]
 8000f8e:	f443 3380 	orr.w	r3, r3, #65536	; 0x10000
 8000f92:	6013      	str	r3, [r2, #0]
	CCU80_CC83->CMC |= ENABLE << CCU8_CC8_CMC_STRTS_Pos;
 8000f94:	4a19      	ldr	r2, [pc, #100]	; (8000ffc <interrupt_vadc_init+0x108>)
 8000f96:	4b19      	ldr	r3, [pc, #100]	; (8000ffc <interrupt_vadc_init+0x108>)
 8000f98:	685b      	ldr	r3, [r3, #4]
 8000f9a:	f043 0301 	orr.w	r3, r3, #1
 8000f9e:	6053      	str	r3, [r2, #4]
	//	CCU80_CC83->INS  |=  15 << CCU8_CC8_INS_EV2IS_Pos;   		//which input is used -> input CC80.IN3P
	//	CCU80_CC83->INS  &=  ~CCU8_CC8_INS_EV2EM_Msk;	 			// clear event active on rising edge
	//	CCU80_CC83->INS  |=  ENABLE  << CCU8_CC8_INS_EV2EM_Pos;	 	// set event active on rising edge

	/*Enables the Channel 1 compare match while counting down interrupt*/
	CCU80_CC83->INTE |= ENABLE << CCU8_CC8_INTE_CMD1E_Pos;
 8000fa0:	4a16      	ldr	r2, [pc, #88]	; (8000ffc <interrupt_vadc_init+0x108>)
 8000fa2:	4b16      	ldr	r3, [pc, #88]	; (8000ffc <interrupt_vadc_init+0x108>)
 8000fa4:	f8d3 30a4 	ldr.w	r3, [r3, #164]	; 0xa4
 8000fa8:	f043 0308 	orr.w	r3, r3, #8
 8000fac:	f8c2 30a4 	str.w	r3, [r2, #164]	; 0xa4

	/*The interrupt generated by compare match of channel 1 is forwarded to CC8ySR3*/
	CCU80_CC83->SRS |= CCU8_SRS_CM1SR_SR3_MSK << CCU8_SRS_CM1SR_POS;
 8000fb0:	4a12      	ldr	r2, [pc, #72]	; (8000ffc <interrupt_vadc_init+0x108>)
 8000fb2:	4b12      	ldr	r3, [pc, #72]	; (8000ffc <interrupt_vadc_init+0x108>)
 8000fb4:	f8d3 30a8 	ldr.w	r3, [r3, #168]	; 0xa8
 8000fb8:	f043 030c 	orr.w	r3, r3, #12
 8000fbc:	f8c2 30a8 	str.w	r3, [r2, #168]	; 0xa8

	/*Enable the VADC G0 Line 2 interrupt*/
	NVIC_ClearPendingIRQ(VADC0_G0_2_IRQn);
 8000fc0:	2014      	movs	r0, #20
 8000fc2:	f7ff fd39 	bl	8000a38 <__NVIC_ClearPendingIRQ>
	NVIC_EnableIRQ(VADC0_G0_2_IRQn);
 8000fc6:	2014      	movs	r0, #20
 8000fc8:	f7ff fd1a 	bl	8000a00 <__NVIC_EnableIRQ>

	/*Set priority level for VADC to 1(second highest)*/
	NVIC_SetPriority(VADC0_G0_2_IRQn, 1U);
 8000fcc:	2014      	movs	r0, #20
 8000fce:	2101      	movs	r1, #1
 8000fd0:	f7ff fd50 	bl	8000a74 <__NVIC_SetPriority>
	//	NVIC_EnableIRQ(VADC0_G2_2_IRQn);
	//
	//	/*Set priority level for VADC to 1(second highest)*/
	//	NVIC_SetPriority(VADC0_G2_2_IRQn, 10U);

	SCU_GENERAL->CCUCON |= SCU_GENERAL_CCUCON_GSC80_Msk;
 8000fd4:	4a0a      	ldr	r2, [pc, #40]	; (8001000 <interrupt_vadc_init+0x10c>)
 8000fd6:	4b0a      	ldr	r3, [pc, #40]	; (8001000 <interrupt_vadc_init+0x10c>)
 8000fd8:	6cdb      	ldr	r3, [r3, #76]	; 0x4c
 8000fda:	f443 7380 	orr.w	r3, r3, #256	; 0x100
 8000fde:	64d3      	str	r3, [r2, #76]	; 0x4c
	SCU_GENERAL->CCUCON &= ~SCU_GENERAL_CCUCON_GSC80_Msk;
 8000fe0:	4a07      	ldr	r2, [pc, #28]	; (8001000 <interrupt_vadc_init+0x10c>)
 8000fe2:	4b07      	ldr	r3, [pc, #28]	; (8001000 <interrupt_vadc_init+0x10c>)
 8000fe4:	6cdb      	ldr	r3, [r3, #76]	; 0x4c
 8000fe6:	f423 7380 	bic.w	r3, r3, #256	; 0x100
 8000fea:	64d3      	str	r3, [r2, #76]	; 0x4c
}
 8000fec:	bd80      	pop	{r7, pc}
 8000fee:	bf00      	nop
 8000ff0:	50004400 	.word	0x50004400
 8000ff4:	50004600 	.word	0x50004600
 8000ff8:	40020000 	.word	0x40020000
 8000ffc:	40020400 	.word	0x40020400
 8001000:	50004000 	.word	0x50004000

08001004 <read_currents>:
	Read currents from VADC
	abc RES[1] | u_mot u_log RES[14]
	'a' is too noisy => computed form 'bc'
*/
void read_currents(void)
{
 8001004:	b480      	push	{r7}
 8001006:	af00      	add	r7, sp, #0
	ia = (VADC_G0->RES[1] & 0xFFFF) * 16 - offset_ia; // 16 bit value -- Very noisy
 8001008:	4b20      	ldr	r3, [pc, #128]	; (800108c <read_currents+0x88>)
 800100a:	f8d3 3304 	ldr.w	r3, [r3, #772]	; 0x304
 800100e:	b29b      	uxth	r3, r3
 8001010:	011b      	lsls	r3, r3, #4
 8001012:	b29a      	uxth	r2, r3
 8001014:	4b1e      	ldr	r3, [pc, #120]	; (8001090 <read_currents+0x8c>)
 8001016:	681b      	ldr	r3, [r3, #0]
 8001018:	b29b      	uxth	r3, r3
 800101a:	1ad3      	subs	r3, r2, r3
 800101c:	b29b      	uxth	r3, r3
 800101e:	b29a      	uxth	r2, r3
 8001020:	4b1c      	ldr	r3, [pc, #112]	; (8001094 <read_currents+0x90>)
 8001022:	801a      	strh	r2, [r3, #0]
	ib = (VADC_G1->RES[1] & 0xFFFF) * 16 - offset_ib; // 16 bit value
 8001024:	4b1c      	ldr	r3, [pc, #112]	; (8001098 <read_currents+0x94>)
 8001026:	f8d3 3304 	ldr.w	r3, [r3, #772]	; 0x304
 800102a:	b29b      	uxth	r3, r3
 800102c:	011b      	lsls	r3, r3, #4
 800102e:	b29a      	uxth	r2, r3
 8001030:	4b1a      	ldr	r3, [pc, #104]	; (800109c <read_currents+0x98>)
 8001032:	681b      	ldr	r3, [r3, #0]
 8001034:	b29b      	uxth	r3, r3
 8001036:	1ad3      	subs	r3, r2, r3
 8001038:	b29b      	uxth	r3, r3
 800103a:	b29a      	uxth	r2, r3
 800103c:	4b18      	ldr	r3, [pc, #96]	; (80010a0 <read_currents+0x9c>)
 800103e:	801a      	strh	r2, [r3, #0]
	ic = (VADC_G2->RES[1] & 0xFFFF) * 16 - offset_ic; // 16 bit value
 8001040:	4b18      	ldr	r3, [pc, #96]	; (80010a4 <read_currents+0xa0>)
 8001042:	f8d3 3304 	ldr.w	r3, [r3, #772]	; 0x304
 8001046:	b29b      	uxth	r3, r3
 8001048:	011b      	lsls	r3, r3, #4
 800104a:	b29a      	uxth	r2, r3
 800104c:	4b16      	ldr	r3, [pc, #88]	; (80010a8 <read_currents+0xa4>)
 800104e:	681b      	ldr	r3, [r3, #0]
 8001050:	b29b      	uxth	r3, r3
 8001052:	1ad3      	subs	r3, r2, r3
 8001054:	b29b      	uxth	r3, r3
 8001056:	b29a      	uxth	r2, r3
 8001058:	4b14      	ldr	r3, [pc, #80]	; (80010ac <read_currents+0xa8>)
 800105a:	801a      	strh	r2, [r3, #0]
	ia = -ib;										  // use ib instead of ia
 800105c:	4b10      	ldr	r3, [pc, #64]	; (80010a0 <read_currents+0x9c>)
 800105e:	881b      	ldrh	r3, [r3, #0]
 8001060:	b29b      	uxth	r3, r3
 8001062:	425b      	negs	r3, r3
 8001064:	b29b      	uxth	r3, r3
 8001066:	b29a      	uxth	r2, r3
 8001068:	4b0a      	ldr	r3, [pc, #40]	; (8001094 <read_currents+0x90>)
 800106a:	801a      	strh	r2, [r3, #0]

	u_mot_dig = (VADC_G2->RES[14] & 0xFFFF); // 12 bit value
 800106c:	4b0d      	ldr	r3, [pc, #52]	; (80010a4 <read_currents+0xa0>)
 800106e:	f8d3 3338 	ldr.w	r3, [r3, #824]	; 0x338
 8001072:	b29b      	uxth	r3, r3
 8001074:	4a0e      	ldr	r2, [pc, #56]	; (80010b0 <read_currents+0xac>)
 8001076:	6013      	str	r3, [r2, #0]
	u_log_dig = (VADC_G1->RES[14] & 0xFFFF); // 12 bit value
 8001078:	4b07      	ldr	r3, [pc, #28]	; (8001098 <read_currents+0x94>)
 800107a:	f8d3 3338 	ldr.w	r3, [r3, #824]	; 0x338
 800107e:	b29b      	uxth	r3, r3
 8001080:	4a0c      	ldr	r2, [pc, #48]	; (80010b4 <read_currents+0xb0>)
 8001082:	6013      	str	r3, [r2, #0]

}
 8001084:	46bd      	mov	sp, r7
 8001086:	f85d 7b04 	ldr.w	r7, [sp], #4
 800108a:	4770      	bx	lr
 800108c:	40004400 	.word	0x40004400
 8001090:	1fff06c8 	.word	0x1fff06c8
 8001094:	1fff06ac 	.word	0x1fff06ac
 8001098:	40004800 	.word	0x40004800
 800109c:	1fff0698 	.word	0x1fff0698
 80010a0:	1fff06a4 	.word	0x1fff06a4
 80010a4:	40004c00 	.word	0x40004c00
 80010a8:	1fff06a0 	.word	0x1fff06a0
 80010ac:	1fff06cc 	.word	0x1fff06cc
 80010b0:	1fff06c0 	.word	0x1fff06c0
 80010b4:	1fff06a8 	.word	0x1fff06a8

080010b8 <current_offset>:
/**
 * Compute current offset for every phase
 */
void current_offset(void)
{
 80010b8:	b580      	push	{r7, lr}
 80010ba:	b082      	sub	sp, #8
 80010bc:	af00      	add	r7, sp, #0
	prot_status = OFF; //Turn Current protection OFF
 80010be:	4b2d      	ldr	r3, [pc, #180]	; (8001174 <current_offset+0xbc>)
 80010c0:	2200      	movs	r2, #0
 80010c2:	701a      	strb	r2, [r3, #0]
	offset_ia = 0;
 80010c4:	4b2c      	ldr	r3, [pc, #176]	; (8001178 <current_offset+0xc0>)
 80010c6:	2200      	movs	r2, #0
 80010c8:	601a      	str	r2, [r3, #0]
	offset_ib = 0;
 80010ca:	4b2c      	ldr	r3, [pc, #176]	; (800117c <current_offset+0xc4>)
 80010cc:	2200      	movs	r2, #0
 80010ce:	601a      	str	r2, [r3, #0]
	offset_ic = 0;
 80010d0:	4b2b      	ldr	r3, [pc, #172]	; (8001180 <current_offset+0xc8>)
 80010d2:	2200      	movs	r2, #0
 80010d4:	601a      	str	r2, [r3, #0]

	for (int i = 0; i < 16; ++i)
 80010d6:	2300      	movs	r3, #0
 80010d8:	607b      	str	r3, [r7, #4]
 80010da:	e026      	b.n	800112a <current_offset+0x72>
	{
		delay_t(3);
 80010dc:	2003      	movs	r0, #3
 80010de:	f002 fd1d 	bl	8003b1c <delay_t>
		offset_ia += ((VADC_G0->RES[1] & 0xFFFF) * 16);
 80010e2:	4b28      	ldr	r3, [pc, #160]	; (8001184 <current_offset+0xcc>)
 80010e4:	f8d3 3304 	ldr.w	r3, [r3, #772]	; 0x304
 80010e8:	b29b      	uxth	r3, r3
 80010ea:	011b      	lsls	r3, r3, #4
 80010ec:	4a22      	ldr	r2, [pc, #136]	; (8001178 <current_offset+0xc0>)
 80010ee:	6812      	ldr	r2, [r2, #0]
 80010f0:	4413      	add	r3, r2
 80010f2:	461a      	mov	r2, r3
 80010f4:	4b20      	ldr	r3, [pc, #128]	; (8001178 <current_offset+0xc0>)
 80010f6:	601a      	str	r2, [r3, #0]
		offset_ib += ((VADC_G1->RES[1] & 0xFFFF) * 16);
 80010f8:	4b23      	ldr	r3, [pc, #140]	; (8001188 <current_offset+0xd0>)
 80010fa:	f8d3 3304 	ldr.w	r3, [r3, #772]	; 0x304
 80010fe:	b29b      	uxth	r3, r3
 8001100:	011b      	lsls	r3, r3, #4
 8001102:	4a1e      	ldr	r2, [pc, #120]	; (800117c <current_offset+0xc4>)
 8001104:	6812      	ldr	r2, [r2, #0]
 8001106:	4413      	add	r3, r2
 8001108:	461a      	mov	r2, r3
 800110a:	4b1c      	ldr	r3, [pc, #112]	; (800117c <current_offset+0xc4>)
 800110c:	601a      	str	r2, [r3, #0]
		offset_ic += ((VADC_G2->RES[1] & 0xFFFF) * 16);
 800110e:	4b1f      	ldr	r3, [pc, #124]	; (800118c <current_offset+0xd4>)
 8001110:	f8d3 3304 	ldr.w	r3, [r3, #772]	; 0x304
 8001114:	b29b      	uxth	r3, r3
 8001116:	011b      	lsls	r3, r3, #4
 8001118:	4a19      	ldr	r2, [pc, #100]	; (8001180 <current_offset+0xc8>)
 800111a:	6812      	ldr	r2, [r2, #0]
 800111c:	4413      	add	r3, r2
 800111e:	461a      	mov	r2, r3
 8001120:	4b17      	ldr	r3, [pc, #92]	; (8001180 <current_offset+0xc8>)
 8001122:	601a      	str	r2, [r3, #0]
	prot_status = OFF; //Turn Current protection OFF
	offset_ia = 0;
	offset_ib = 0;
	offset_ic = 0;

	for (int i = 0; i < 16; ++i)
 8001124:	687b      	ldr	r3, [r7, #4]
 8001126:	3301      	adds	r3, #1
 8001128:	607b      	str	r3, [r7, #4]
 800112a:	687b      	ldr	r3, [r7, #4]
 800112c:	2b0f      	cmp	r3, #15
 800112e:	ddd5      	ble.n	80010dc <current_offset+0x24>
		offset_ia += ((VADC_G0->RES[1] & 0xFFFF) * 16);
		offset_ib += ((VADC_G1->RES[1] & 0xFFFF) * 16);
		offset_ic += ((VADC_G2->RES[1] & 0xFFFF) * 16);
	}

	offset_ia = offset_ia / 16;
 8001130:	4b11      	ldr	r3, [pc, #68]	; (8001178 <current_offset+0xc0>)
 8001132:	681b      	ldr	r3, [r3, #0]
 8001134:	2b00      	cmp	r3, #0
 8001136:	da00      	bge.n	800113a <current_offset+0x82>
 8001138:	330f      	adds	r3, #15
 800113a:	111b      	asrs	r3, r3, #4
 800113c:	461a      	mov	r2, r3
 800113e:	4b0e      	ldr	r3, [pc, #56]	; (8001178 <current_offset+0xc0>)
 8001140:	601a      	str	r2, [r3, #0]
	offset_ib = offset_ib / 16;
 8001142:	4b0e      	ldr	r3, [pc, #56]	; (800117c <current_offset+0xc4>)
 8001144:	681b      	ldr	r3, [r3, #0]
 8001146:	2b00      	cmp	r3, #0
 8001148:	da00      	bge.n	800114c <current_offset+0x94>
 800114a:	330f      	adds	r3, #15
 800114c:	111b      	asrs	r3, r3, #4
 800114e:	461a      	mov	r2, r3
 8001150:	4b0a      	ldr	r3, [pc, #40]	; (800117c <current_offset+0xc4>)
 8001152:	601a      	str	r2, [r3, #0]
	offset_ic = offset_ic / 16;
 8001154:	4b0a      	ldr	r3, [pc, #40]	; (8001180 <current_offset+0xc8>)
 8001156:	681b      	ldr	r3, [r3, #0]
 8001158:	2b00      	cmp	r3, #0
 800115a:	da00      	bge.n	800115e <current_offset+0xa6>
 800115c:	330f      	adds	r3, #15
 800115e:	111b      	asrs	r3, r3, #4
 8001160:	461a      	mov	r2, r3
 8001162:	4b07      	ldr	r3, [pc, #28]	; (8001180 <current_offset+0xc8>)
 8001164:	601a      	str	r2, [r3, #0]
	prot_status = ON; //Turn Current protection ON
 8001166:	4b03      	ldr	r3, [pc, #12]	; (8001174 <current_offset+0xbc>)
 8001168:	2201      	movs	r2, #1
 800116a:	701a      	strb	r2, [r3, #0]
}
 800116c:	3708      	adds	r7, #8
 800116e:	46bd      	mov	sp, r7
 8001170:	bd80      	pop	{r7, pc}
 8001172:	bf00      	nop
 8001174:	1ffe8808 	.word	0x1ffe8808
 8001178:	1fff06c8 	.word	0x1fff06c8
 800117c:	1fff0698 	.word	0x1fff0698
 8001180:	1fff06a0 	.word	0x1fff06a0
 8001184:	40004400 	.word	0x40004400
 8001188:	40004800 	.word	0x40004800
 800118c:	40004c00 	.word	0x40004c00

08001190 <compute_u_mot>:
 * For Micrium display
 * Compute 12bit value of u_mot into volts
 * u_mot_max = 100V
 */
void compute_u_mot(void)
{
 8001190:	b580      	push	{r7, lr}
 8001192:	af00      	add	r7, sp, #0
	u_mot = u_mot_dig * 0.0245;
 8001194:	4b0e      	ldr	r3, [pc, #56]	; (80011d0 <compute_u_mot+0x40>)
 8001196:	681b      	ldr	r3, [r3, #0]
 8001198:	4618      	mov	r0, r3
 800119a:	f003 fe6d 	bl	8004e78 <__aeabi_i2d>
 800119e:	4602      	mov	r2, r0
 80011a0:	460b      	mov	r3, r1
 80011a2:	4610      	mov	r0, r2
 80011a4:	4619      	mov	r1, r3
 80011a6:	a308      	add	r3, pc, #32	; (adr r3, 80011c8 <compute_u_mot+0x38>)
 80011a8:	e9d3 2300 	ldrd	r2, r3, [r3]
 80011ac:	f003 feca 	bl	8004f44 <__aeabi_dmul>
 80011b0:	4602      	mov	r2, r0
 80011b2:	460b      	mov	r3, r1
 80011b4:	4610      	mov	r0, r2
 80011b6:	4619      	mov	r1, r3
 80011b8:	f004 f8d6 	bl	8005368 <__aeabi_d2f>
 80011bc:	4602      	mov	r2, r0
 80011be:	4b05      	ldr	r3, [pc, #20]	; (80011d4 <compute_u_mot+0x44>)
 80011c0:	601a      	str	r2, [r3, #0]
}
 80011c2:	bd80      	pop	{r7, pc}
 80011c4:	f3af 8000 	nop.w
 80011c8:	2b020c4a 	.word	0x2b020c4a
 80011cc:	3f991687 	.word	0x3f991687
 80011d0:	1fff06c0 	.word	0x1fff06c0
 80011d4:	1fff06bc 	.word	0x1fff06bc

080011d8 <compute_u_log>:
 * For Micrium display
 * Compute the 12bit value of u_log into volts
 * u_log_max = 50V
 */
void compute_u_log(void)
{
 80011d8:	b580      	push	{r7, lr}
 80011da:	af00      	add	r7, sp, #0
	u_log = u_log_dig * 0.01327;
 80011dc:	4b0e      	ldr	r3, [pc, #56]	; (8001218 <compute_u_log+0x40>)
 80011de:	681b      	ldr	r3, [r3, #0]
 80011e0:	4618      	mov	r0, r3
 80011e2:	f003 fe49 	bl	8004e78 <__aeabi_i2d>
 80011e6:	4602      	mov	r2, r0
 80011e8:	460b      	mov	r3, r1
 80011ea:	4610      	mov	r0, r2
 80011ec:	4619      	mov	r1, r3
 80011ee:	a308      	add	r3, pc, #32	; (adr r3, 8001210 <compute_u_log+0x38>)
 80011f0:	e9d3 2300 	ldrd	r2, r3, [r3]
 80011f4:	f003 fea6 	bl	8004f44 <__aeabi_dmul>
 80011f8:	4602      	mov	r2, r0
 80011fa:	460b      	mov	r3, r1
 80011fc:	4610      	mov	r0, r2
 80011fe:	4619      	mov	r1, r3
 8001200:	f004 f8b2 	bl	8005368 <__aeabi_d2f>
 8001204:	4602      	mov	r2, r0
 8001206:	4b05      	ldr	r3, [pc, #20]	; (800121c <compute_u_log+0x44>)
 8001208:	601a      	str	r2, [r3, #0]
}
 800120a:	bd80      	pop	{r7, pc}
 800120c:	f3af 8000 	nop.w
 8001210:	4024b33e 	.word	0x4024b33e
 8001214:	3f8b2d4d 	.word	0x3f8b2d4d
 8001218:	1fff06a8 	.word	0x1fff06a8
 800121c:	1fff069c 	.word	0x1fff069c

08001220 <compute_currents>:
/*
 * For Micrium read
 * I_pos = 40A | I_neg = -40A
 */
void compute_currents(void)
{
 8001220:	b580      	push	{r7, lr}
 8001222:	af00      	add	r7, sp, #0
	ia_a = (float_t)(ia + 32768) / 65535.0 * 80.0 - 40.0;
 8001224:	4b64      	ldr	r3, [pc, #400]	; (80013b8 <compute_currents+0x198>)
 8001226:	881b      	ldrh	r3, [r3, #0]
 8001228:	b21b      	sxth	r3, r3
 800122a:	f503 4300 	add.w	r3, r3, #32768	; 0x8000
 800122e:	ee07 3a90 	vmov	s15, r3
 8001232:	eef8 7ae7 	vcvt.f32.s32	s15, s15
 8001236:	ee17 0a90 	vmov	r0, s15
 800123a:	f003 fe2f 	bl	8004e9c <__aeabi_f2d>
 800123e:	4602      	mov	r2, r0
 8001240:	460b      	mov	r3, r1
 8001242:	4610      	mov	r0, r2
 8001244:	4619      	mov	r1, r3
 8001246:	a35a      	add	r3, pc, #360	; (adr r3, 80013b0 <compute_currents+0x190>)
 8001248:	e9d3 2300 	ldrd	r2, r3, [r3]
 800124c:	f003 ffa4 	bl	8005198 <__aeabi_ddiv>
 8001250:	4602      	mov	r2, r0
 8001252:	460b      	mov	r3, r1
 8001254:	4610      	mov	r0, r2
 8001256:	4619      	mov	r1, r3
 8001258:	f04f 0200 	mov.w	r2, #0
 800125c:	4b57      	ldr	r3, [pc, #348]	; (80013bc <compute_currents+0x19c>)
 800125e:	f003 fe71 	bl	8004f44 <__aeabi_dmul>
 8001262:	4602      	mov	r2, r0
 8001264:	460b      	mov	r3, r1
 8001266:	4610      	mov	r0, r2
 8001268:	4619      	mov	r1, r3
 800126a:	f04f 0200 	mov.w	r2, #0
 800126e:	4b54      	ldr	r3, [pc, #336]	; (80013c0 <compute_currents+0x1a0>)
 8001270:	f003 fcb4 	bl	8004bdc <__aeabi_dsub>
 8001274:	4602      	mov	r2, r0
 8001276:	460b      	mov	r3, r1
 8001278:	4610      	mov	r0, r2
 800127a:	4619      	mov	r1, r3
 800127c:	f004 f874 	bl	8005368 <__aeabi_d2f>
 8001280:	4602      	mov	r2, r0
 8001282:	4b50      	ldr	r3, [pc, #320]	; (80013c4 <compute_currents+0x1a4>)
 8001284:	601a      	str	r2, [r3, #0]
	ib_a = (float_t)(ib + 32768) / 65535.0 * 80.0 - 40.0;
 8001286:	4b50      	ldr	r3, [pc, #320]	; (80013c8 <compute_currents+0x1a8>)
 8001288:	881b      	ldrh	r3, [r3, #0]
 800128a:	b21b      	sxth	r3, r3
 800128c:	f503 4300 	add.w	r3, r3, #32768	; 0x8000
 8001290:	ee07 3a90 	vmov	s15, r3
 8001294:	eef8 7ae7 	vcvt.f32.s32	s15, s15
 8001298:	ee17 0a90 	vmov	r0, s15
 800129c:	f003 fdfe 	bl	8004e9c <__aeabi_f2d>
 80012a0:	4602      	mov	r2, r0
 80012a2:	460b      	mov	r3, r1
 80012a4:	4610      	mov	r0, r2
 80012a6:	4619      	mov	r1, r3
 80012a8:	a341      	add	r3, pc, #260	; (adr r3, 80013b0 <compute_currents+0x190>)
 80012aa:	e9d3 2300 	ldrd	r2, r3, [r3]
 80012ae:	f003 ff73 	bl	8005198 <__aeabi_ddiv>
 80012b2:	4602      	mov	r2, r0
 80012b4:	460b      	mov	r3, r1
 80012b6:	4610      	mov	r0, r2
 80012b8:	4619      	mov	r1, r3
 80012ba:	f04f 0200 	mov.w	r2, #0
 80012be:	4b3f      	ldr	r3, [pc, #252]	; (80013bc <compute_currents+0x19c>)
 80012c0:	f003 fe40 	bl	8004f44 <__aeabi_dmul>
 80012c4:	4602      	mov	r2, r0
 80012c6:	460b      	mov	r3, r1
 80012c8:	4610      	mov	r0, r2
 80012ca:	4619      	mov	r1, r3
 80012cc:	f04f 0200 	mov.w	r2, #0
 80012d0:	4b3b      	ldr	r3, [pc, #236]	; (80013c0 <compute_currents+0x1a0>)
 80012d2:	f003 fc83 	bl	8004bdc <__aeabi_dsub>
 80012d6:	4602      	mov	r2, r0
 80012d8:	460b      	mov	r3, r1
 80012da:	4610      	mov	r0, r2
 80012dc:	4619      	mov	r1, r3
 80012de:	f004 f843 	bl	8005368 <__aeabi_d2f>
 80012e2:	4602      	mov	r2, r0
 80012e4:	4b39      	ldr	r3, [pc, #228]	; (80013cc <compute_currents+0x1ac>)
 80012e6:	601a      	str	r2, [r3, #0]
	ic_a = (float_t)(ic + 32768) / 65535.0 * 80.0 - 40.0;
 80012e8:	4b39      	ldr	r3, [pc, #228]	; (80013d0 <compute_currents+0x1b0>)
 80012ea:	881b      	ldrh	r3, [r3, #0]
 80012ec:	b21b      	sxth	r3, r3
 80012ee:	f503 4300 	add.w	r3, r3, #32768	; 0x8000
 80012f2:	ee07 3a90 	vmov	s15, r3
 80012f6:	eef8 7ae7 	vcvt.f32.s32	s15, s15
 80012fa:	ee17 0a90 	vmov	r0, s15
 80012fe:	f003 fdcd 	bl	8004e9c <__aeabi_f2d>
 8001302:	4602      	mov	r2, r0
 8001304:	460b      	mov	r3, r1
 8001306:	4610      	mov	r0, r2
 8001308:	4619      	mov	r1, r3
 800130a:	a329      	add	r3, pc, #164	; (adr r3, 80013b0 <compute_currents+0x190>)
 800130c:	e9d3 2300 	ldrd	r2, r3, [r3]
 8001310:	f003 ff42 	bl	8005198 <__aeabi_ddiv>
 8001314:	4602      	mov	r2, r0
 8001316:	460b      	mov	r3, r1
 8001318:	4610      	mov	r0, r2
 800131a:	4619      	mov	r1, r3
 800131c:	f04f 0200 	mov.w	r2, #0
 8001320:	4b26      	ldr	r3, [pc, #152]	; (80013bc <compute_currents+0x19c>)
 8001322:	f003 fe0f 	bl	8004f44 <__aeabi_dmul>
 8001326:	4602      	mov	r2, r0
 8001328:	460b      	mov	r3, r1
 800132a:	4610      	mov	r0, r2
 800132c:	4619      	mov	r1, r3
 800132e:	f04f 0200 	mov.w	r2, #0
 8001332:	4b23      	ldr	r3, [pc, #140]	; (80013c0 <compute_currents+0x1a0>)
 8001334:	f003 fc52 	bl	8004bdc <__aeabi_dsub>
 8001338:	4602      	mov	r2, r0
 800133a:	460b      	mov	r3, r1
 800133c:	4610      	mov	r0, r2
 800133e:	4619      	mov	r1, r3
 8001340:	f004 f812 	bl	8005368 <__aeabi_d2f>
 8001344:	4602      	mov	r2, r0
 8001346:	4b23      	ldr	r3, [pc, #140]	; (80013d4 <compute_currents+0x1b4>)
 8001348:	601a      	str	r2, [r3, #0]
	iq_a = (float_t)(i_q + 32768) / 65535.0 * 80.0 - 40.0;
 800134a:	4b23      	ldr	r3, [pc, #140]	; (80013d8 <compute_currents+0x1b8>)
 800134c:	edd3 7a00 	vldr	s15, [r3]
 8001350:	ed9f 7a22 	vldr	s14, [pc, #136]	; 80013dc <compute_currents+0x1bc>
 8001354:	ee77 7a87 	vadd.f32	s15, s15, s14
 8001358:	ee17 0a90 	vmov	r0, s15
 800135c:	f003 fd9e 	bl	8004e9c <__aeabi_f2d>
 8001360:	4602      	mov	r2, r0
 8001362:	460b      	mov	r3, r1
 8001364:	4610      	mov	r0, r2
 8001366:	4619      	mov	r1, r3
 8001368:	a311      	add	r3, pc, #68	; (adr r3, 80013b0 <compute_currents+0x190>)
 800136a:	e9d3 2300 	ldrd	r2, r3, [r3]
 800136e:	f003 ff13 	bl	8005198 <__aeabi_ddiv>
 8001372:	4602      	mov	r2, r0
 8001374:	460b      	mov	r3, r1
 8001376:	4610      	mov	r0, r2
 8001378:	4619      	mov	r1, r3
 800137a:	f04f 0200 	mov.w	r2, #0
 800137e:	4b0f      	ldr	r3, [pc, #60]	; (80013bc <compute_currents+0x19c>)
 8001380:	f003 fde0 	bl	8004f44 <__aeabi_dmul>
 8001384:	4602      	mov	r2, r0
 8001386:	460b      	mov	r3, r1
 8001388:	4610      	mov	r0, r2
 800138a:	4619      	mov	r1, r3
 800138c:	f04f 0200 	mov.w	r2, #0
 8001390:	4b0b      	ldr	r3, [pc, #44]	; (80013c0 <compute_currents+0x1a0>)
 8001392:	f003 fc23 	bl	8004bdc <__aeabi_dsub>
 8001396:	4602      	mov	r2, r0
 8001398:	460b      	mov	r3, r1
 800139a:	4610      	mov	r0, r2
 800139c:	4619      	mov	r1, r3
 800139e:	f003 ffe3 	bl	8005368 <__aeabi_d2f>
 80013a2:	4602      	mov	r2, r0
 80013a4:	4b0e      	ldr	r3, [pc, #56]	; (80013e0 <compute_currents+0x1c0>)
 80013a6:	601a      	str	r2, [r3, #0]
}
 80013a8:	bd80      	pop	{r7, pc}
 80013aa:	bf00      	nop
 80013ac:	f3af 8000 	nop.w
 80013b0:	00000000 	.word	0x00000000
 80013b4:	40efffe0 	.word	0x40efffe0
 80013b8:	1fff06ac 	.word	0x1fff06ac
 80013bc:	40540000 	.word	0x40540000
 80013c0:	40440000 	.word	0x40440000
 80013c4:	1fff06b8 	.word	0x1fff06b8
 80013c8:	1fff06a4 	.word	0x1fff06a4
 80013cc:	1fff06c4 	.word	0x1fff06c4
 80013d0:	1fff06cc 	.word	0x1fff06cc
 80013d4:	1fff06b4 	.word	0x1fff06b4
 80013d8:	1fff07dc 	.word	0x1fff07dc
 80013dc:	47000000 	.word	0x47000000
 80013e0:	1fff06b0 	.word	0x1fff06b0
 80013e4:	f3af 8000 	nop.w

080013e8 <pwm_init>:

/*
	Initialize PWM unit
*/
void pwm_init(void)
{
 80013e8:	b480      	push	{r7}
 80013ea:	af00      	add	r7, sp, #0

	/*
	 * CCU81 Set Up
	 */
	/*  Reset CCU81*/
	SCU_RESET->PRSET0 |= SCU_RESET_PRSET0_CCU81RS_Msk;
 80013ec:	4a98      	ldr	r2, [pc, #608]	; (8001650 <pwm_init+0x268>)
 80013ee:	4b98      	ldr	r3, [pc, #608]	; (8001650 <pwm_init+0x268>)
 80013f0:	691b      	ldr	r3, [r3, #16]
 80013f2:	f443 7380 	orr.w	r3, r3, #256	; 0x100
 80013f6:	6113      	str	r3, [r2, #16]

	/* Clear reset of CCU81 */
	SCU_RESET->PRCLR0 |= SCU_RESET_PRCLR0_CCU81RS_Msk;
 80013f8:	4a95      	ldr	r2, [pc, #596]	; (8001650 <pwm_init+0x268>)
 80013fa:	4b95      	ldr	r3, [pc, #596]	; (8001650 <pwm_init+0x268>)
 80013fc:	695b      	ldr	r3, [r3, #20]
 80013fe:	f443 7380 	orr.w	r3, r3, #256	; 0x100
 8001402:	6153      	str	r3, [r2, #20]

	/* Enable CCU8 via clkset */
	SCU_CLK->CLKSET |= SCU_CLKSET_CCUCEN_MSK;
 8001404:	4a93      	ldr	r2, [pc, #588]	; (8001654 <pwm_init+0x26c>)
 8001406:	4b93      	ldr	r3, [pc, #588]	; (8001654 <pwm_init+0x26c>)
 8001408:	685b      	ldr	r3, [r3, #4]
 800140a:	f043 0310 	orr.w	r3, r3, #16
 800140e:	6053      	str	r3, [r2, #4]

	/* Enable prescaler */
	CCU81->GIDLC |= CCU8_GIDLC_SPRB_Msk;
 8001410:	4a91      	ldr	r2, [pc, #580]	; (8001658 <pwm_init+0x270>)
 8001412:	4b91      	ldr	r3, [pc, #580]	; (8001658 <pwm_init+0x270>)
 8001414:	68db      	ldr	r3, [r3, #12]
 8001416:	f443 7380 	orr.w	r3, r3, #256	; 0x100
 800141a:	60d3      	str	r3, [r2, #12]

	/*
	 * Counting Mode - center aligned(0->max->0)
	 */
	CCU80_CC80->TC |= (uint32_t)(CCU8_CC8_TC_TCM_MSK);
 800141c:	4a8f      	ldr	r2, [pc, #572]	; (800165c <pwm_init+0x274>)
 800141e:	4b8f      	ldr	r3, [pc, #572]	; (800165c <pwm_init+0x274>)
 8001420:	695b      	ldr	r3, [r3, #20]
 8001422:	f043 0301 	orr.w	r3, r3, #1
 8001426:	6153      	str	r3, [r2, #20]
	CCU80_CC81->TC |= (uint32_t)(CCU8_CC8_TC_TCM_MSK);
 8001428:	4a8d      	ldr	r2, [pc, #564]	; (8001660 <pwm_init+0x278>)
 800142a:	4b8d      	ldr	r3, [pc, #564]	; (8001660 <pwm_init+0x278>)
 800142c:	695b      	ldr	r3, [r3, #20]
 800142e:	f043 0301 	orr.w	r3, r3, #1
 8001432:	6153      	str	r3, [r2, #20]
	CCU80_CC82->TC |= (uint32_t)(CCU8_CC8_TC_TCM_MSK);
 8001434:	4a8b      	ldr	r2, [pc, #556]	; (8001664 <pwm_init+0x27c>)
 8001436:	4b8b      	ldr	r3, [pc, #556]	; (8001664 <pwm_init+0x27c>)
 8001438:	695b      	ldr	r3, [r3, #20]
 800143a:	f043 0301 	orr.w	r3, r3, #1
 800143e:	6153      	str	r3, [r2, #20]
	CCU81_CC81->TC |= (uint32_t)(CCU8_CC8_TC_TCM_MSK);
 8001440:	4a89      	ldr	r2, [pc, #548]	; (8001668 <pwm_init+0x280>)
 8001442:	4b89      	ldr	r3, [pc, #548]	; (8001668 <pwm_init+0x280>)
 8001444:	695b      	ldr	r3, [r3, #20]
 8001446:	f043 0301 	orr.w	r3, r3, #1
 800144a:	6153      	str	r3, [r2, #20]

	/*
	 * Period&Compare channel 1 values configuration
	 */
	CCU80_CC80->PRS |= (uint32_t)(CCU8_CC8_PRS_PR_VALUE);	// Shadow value to timer period PR
 800144c:	4a83      	ldr	r2, [pc, #524]	; (800165c <pwm_init+0x274>)
 800144e:	4b83      	ldr	r3, [pc, #524]	; (800165c <pwm_init+0x274>)
 8001450:	6b5b      	ldr	r3, [r3, #52]	; 0x34
 8001452:	f443 6361 	orr.w	r3, r3, #3600	; 0xe10
 8001456:	6353      	str	r3, [r2, #52]	; 0x34
	CCU80_CC80->CR1S |= (uint32_t)(CCU8_CC8_CR1_CR1_VALUE); // Shadow value to compare channel 1
 8001458:	4a80      	ldr	r2, [pc, #512]	; (800165c <pwm_init+0x274>)
 800145a:	4b80      	ldr	r3, [pc, #512]	; (800165c <pwm_init+0x274>)
 800145c:	6bdb      	ldr	r3, [r3, #60]	; 0x3c
 800145e:	f443 63e1 	orr.w	r3, r3, #1800	; 0x708
 8001462:	63d3      	str	r3, [r2, #60]	; 0x3c

	CCU80_CC81->PRS |= (uint32_t)(CCU8_CC8_PRS_PR_VALUE);
 8001464:	4a7e      	ldr	r2, [pc, #504]	; (8001660 <pwm_init+0x278>)
 8001466:	4b7e      	ldr	r3, [pc, #504]	; (8001660 <pwm_init+0x278>)
 8001468:	6b5b      	ldr	r3, [r3, #52]	; 0x34
 800146a:	f443 6361 	orr.w	r3, r3, #3600	; 0xe10
 800146e:	6353      	str	r3, [r2, #52]	; 0x34
	CCU80_CC81->CR1S |= (uint32_t)(CCU8_CC8_CR1_CR1_VALUE);
 8001470:	4a7b      	ldr	r2, [pc, #492]	; (8001660 <pwm_init+0x278>)
 8001472:	4b7b      	ldr	r3, [pc, #492]	; (8001660 <pwm_init+0x278>)
 8001474:	6bdb      	ldr	r3, [r3, #60]	; 0x3c
 8001476:	f443 63e1 	orr.w	r3, r3, #1800	; 0x708
 800147a:	63d3      	str	r3, [r2, #60]	; 0x3c

	CCU80_CC82->PRS |= (uint32_t)(CCU8_CC8_PRS_PR_VALUE);
 800147c:	4a79      	ldr	r2, [pc, #484]	; (8001664 <pwm_init+0x27c>)
 800147e:	4b79      	ldr	r3, [pc, #484]	; (8001664 <pwm_init+0x27c>)
 8001480:	6b5b      	ldr	r3, [r3, #52]	; 0x34
 8001482:	f443 6361 	orr.w	r3, r3, #3600	; 0xe10
 8001486:	6353      	str	r3, [r2, #52]	; 0x34
	CCU80_CC82->CR1S |= (uint32_t)(CCU8_CC8_CR1_CR1_VALUE);
 8001488:	4a76      	ldr	r2, [pc, #472]	; (8001664 <pwm_init+0x27c>)
 800148a:	4b76      	ldr	r3, [pc, #472]	; (8001664 <pwm_init+0x27c>)
 800148c:	6bdb      	ldr	r3, [r3, #60]	; 0x3c
 800148e:	f443 63e1 	orr.w	r3, r3, #1800	; 0x708
 8001492:	63d3      	str	r3, [r2, #60]	; 0x3c

	CCU81_CC81->PRS |= (uint32_t)(CCU8_CC8_PRS_PR_VALUE);
 8001494:	4a74      	ldr	r2, [pc, #464]	; (8001668 <pwm_init+0x280>)
 8001496:	4b74      	ldr	r3, [pc, #464]	; (8001668 <pwm_init+0x280>)
 8001498:	6b5b      	ldr	r3, [r3, #52]	; 0x34
 800149a:	f443 6361 	orr.w	r3, r3, #3600	; 0xe10
 800149e:	6353      	str	r3, [r2, #52]	; 0x34
	CCU81_CC81->CR1S |= (uint32_t)(CCU8_CC8_CR1_CR1_VALUE);
 80014a0:	4a71      	ldr	r2, [pc, #452]	; (8001668 <pwm_init+0x280>)
 80014a2:	4b71      	ldr	r3, [pc, #452]	; (8001668 <pwm_init+0x280>)
 80014a4:	6bdb      	ldr	r3, [r3, #60]	; 0x3c
 80014a6:	f443 63e1 	orr.w	r3, r3, #1800	; 0x708
 80014aa:	63d3      	str	r3, [r2, #60]	; 0x3c

	/*
	 *  Shadow transfer enable for CCU80_80/81/82    Request shadow transfer
	 */
	CCU80->GCSS |= (CCU8_GCSS_S0SE_MSK | CCU8_GCSS_S1SE_MSK | CCU8_GCSS_S2SE_MSK);
 80014ac:	4a6f      	ldr	r2, [pc, #444]	; (800166c <pwm_init+0x284>)
 80014ae:	4b6f      	ldr	r3, [pc, #444]	; (800166c <pwm_init+0x284>)
 80014b0:	691b      	ldr	r3, [r3, #16]
 80014b2:	f443 7388 	orr.w	r3, r3, #272	; 0x110
 80014b6:	f043 0301 	orr.w	r3, r3, #1
 80014ba:	6113      	str	r3, [r2, #16]
	CCU81->GCSS |= (CCU8_GCSS_S1SE_MSK);
 80014bc:	4a66      	ldr	r2, [pc, #408]	; (8001658 <pwm_init+0x270>)
 80014be:	4b66      	ldr	r3, [pc, #408]	; (8001658 <pwm_init+0x270>)
 80014c0:	691b      	ldr	r3, [r3, #16]
 80014c2:	f043 0310 	orr.w	r3, r3, #16
 80014c6:	6113      	str	r3, [r2, #16]
	 * Configure timers
	 */
	/*
	 * Remove from IDLE 80-82
	 */
	CCU80->GIDLC |= (CCU8_GIDLC_CS0I_MSK | CCU8_GIDLC_CS1I_MSK | CCU8_GIDLC_CS2I_MSK);
 80014c8:	4a68      	ldr	r2, [pc, #416]	; (800166c <pwm_init+0x284>)
 80014ca:	4b68      	ldr	r3, [pc, #416]	; (800166c <pwm_init+0x284>)
 80014cc:	68db      	ldr	r3, [r3, #12]
 80014ce:	f043 0307 	orr.w	r3, r3, #7
 80014d2:	60d3      	str	r3, [r2, #12]
	CCU81->GIDLC |= (CCU8_GIDLC_CS1I_MSK);
 80014d4:	4a60      	ldr	r2, [pc, #384]	; (8001658 <pwm_init+0x270>)
 80014d6:	4b60      	ldr	r3, [pc, #384]	; (8001658 <pwm_init+0x270>)
 80014d8:	68db      	ldr	r3, [r3, #12]
 80014da:	f043 0302 	orr.w	r3, r3, #2
 80014de:	60d3      	str	r3, [r2, #12]

	/*   Clear the timer run bit(TRBC) and timer (TCC) */
	CCU80_CC80->TCCLR |= (uint32_t)(CCU8_CC8_TCCLR_TRBC_MSK);
 80014e0:	4a5e      	ldr	r2, [pc, #376]	; (800165c <pwm_init+0x274>)
 80014e2:	4b5e      	ldr	r3, [pc, #376]	; (800165c <pwm_init+0x274>)
 80014e4:	691b      	ldr	r3, [r3, #16]
 80014e6:	f043 0301 	orr.w	r3, r3, #1
 80014ea:	6113      	str	r3, [r2, #16]
	CCU80_CC80->TCCLR |= (uint32_t)(CCU8_CC8_TCCLR_TCC_MSK);
 80014ec:	4a5b      	ldr	r2, [pc, #364]	; (800165c <pwm_init+0x274>)
 80014ee:	4b5b      	ldr	r3, [pc, #364]	; (800165c <pwm_init+0x274>)
 80014f0:	691b      	ldr	r3, [r3, #16]
 80014f2:	f043 0302 	orr.w	r3, r3, #2
 80014f6:	6113      	str	r3, [r2, #16]

	CCU80_CC81->TCCLR |= (uint32_t)(CCU8_CC8_TCCLR_TRBC_MSK);
 80014f8:	4a59      	ldr	r2, [pc, #356]	; (8001660 <pwm_init+0x278>)
 80014fa:	4b59      	ldr	r3, [pc, #356]	; (8001660 <pwm_init+0x278>)
 80014fc:	691b      	ldr	r3, [r3, #16]
 80014fe:	f043 0301 	orr.w	r3, r3, #1
 8001502:	6113      	str	r3, [r2, #16]
	CCU80_CC81->TCCLR |= (uint32_t)(CCU8_CC8_TCCLR_TCC_MSK);
 8001504:	4a56      	ldr	r2, [pc, #344]	; (8001660 <pwm_init+0x278>)
 8001506:	4b56      	ldr	r3, [pc, #344]	; (8001660 <pwm_init+0x278>)
 8001508:	691b      	ldr	r3, [r3, #16]
 800150a:	f043 0302 	orr.w	r3, r3, #2
 800150e:	6113      	str	r3, [r2, #16]

	CCU80_CC82->TCCLR |= (uint32_t)(CCU8_CC8_TCCLR_TRBC_MSK);
 8001510:	4a54      	ldr	r2, [pc, #336]	; (8001664 <pwm_init+0x27c>)
 8001512:	4b54      	ldr	r3, [pc, #336]	; (8001664 <pwm_init+0x27c>)
 8001514:	691b      	ldr	r3, [r3, #16]
 8001516:	f043 0301 	orr.w	r3, r3, #1
 800151a:	6113      	str	r3, [r2, #16]
	CCU80_CC82->TCCLR |= (uint32_t)(CCU8_CC8_TCCLR_TCC_MSK);
 800151c:	4a51      	ldr	r2, [pc, #324]	; (8001664 <pwm_init+0x27c>)
 800151e:	4b51      	ldr	r3, [pc, #324]	; (8001664 <pwm_init+0x27c>)
 8001520:	691b      	ldr	r3, [r3, #16]
 8001522:	f043 0302 	orr.w	r3, r3, #2
 8001526:	6113      	str	r3, [r2, #16]

	CCU81_CC81->TCCLR |= (uint32_t)(CCU8_CC8_TCCLR_TRBC_MSK);
 8001528:	4a4f      	ldr	r2, [pc, #316]	; (8001668 <pwm_init+0x280>)
 800152a:	4b4f      	ldr	r3, [pc, #316]	; (8001668 <pwm_init+0x280>)
 800152c:	691b      	ldr	r3, [r3, #16]
 800152e:	f043 0301 	orr.w	r3, r3, #1
 8001532:	6113      	str	r3, [r2, #16]
	CCU81_CC81->TCCLR |= (uint32_t)(CCU8_CC8_TCCLR_TCC_MSK);
 8001534:	4a4c      	ldr	r2, [pc, #304]	; (8001668 <pwm_init+0x280>)
 8001536:	4b4c      	ldr	r3, [pc, #304]	; (8001668 <pwm_init+0x280>)
 8001538:	691b      	ldr	r3, [r3, #16]
 800153a:	f043 0302 	orr.w	r3, r3, #2
 800153e:	6113      	str	r3, [r2, #16]

	/*
	 * Deadband config - enable for channel 1 and ST1
	 */
	CCU80_CC80->DTC |= CCU8_CC8_DTC_DTE1_MSK | CCU8_CC8_DTC_DCEN1_MSK;
 8001540:	4a46      	ldr	r2, [pc, #280]	; (800165c <pwm_init+0x274>)
 8001542:	4b46      	ldr	r3, [pc, #280]	; (800165c <pwm_init+0x274>)
 8001544:	6cdb      	ldr	r3, [r3, #76]	; 0x4c
 8001546:	f043 0305 	orr.w	r3, r3, #5
 800154a:	64d3      	str	r3, [r2, #76]	; 0x4c
	CCU80_CC81->DTC |= CCU8_CC8_DTC_DTE1_MSK | CCU8_CC8_DTC_DCEN1_MSK;
 800154c:	4a44      	ldr	r2, [pc, #272]	; (8001660 <pwm_init+0x278>)
 800154e:	4b44      	ldr	r3, [pc, #272]	; (8001660 <pwm_init+0x278>)
 8001550:	6cdb      	ldr	r3, [r3, #76]	; 0x4c
 8001552:	f043 0305 	orr.w	r3, r3, #5
 8001556:	64d3      	str	r3, [r2, #76]	; 0x4c
	CCU80_CC82->DTC |= CCU8_CC8_DTC_DTE1_MSK | CCU8_CC8_DTC_DCEN1_MSK;
 8001558:	4a42      	ldr	r2, [pc, #264]	; (8001664 <pwm_init+0x27c>)
 800155a:	4b42      	ldr	r3, [pc, #264]	; (8001664 <pwm_init+0x27c>)
 800155c:	6cdb      	ldr	r3, [r3, #76]	; 0x4c
 800155e:	f043 0305 	orr.w	r3, r3, #5
 8001562:	64d3      	str	r3, [r2, #76]	; 0x4c
	CCU81_CC81->DTC |= CCU8_CC8_DTC_DTE1_MSK | CCU8_CC8_DTC_DCEN1_MSK;
 8001564:	4a40      	ldr	r2, [pc, #256]	; (8001668 <pwm_init+0x280>)
 8001566:	4b40      	ldr	r3, [pc, #256]	; (8001668 <pwm_init+0x280>)
 8001568:	6cdb      	ldr	r3, [r3, #76]	; 0x4c
 800156a:	f043 0305 	orr.w	r3, r3, #5
 800156e:	64d3      	str	r3, [r2, #76]	; 0x4c


	/*
	 * Deadband value rising config - rising 50ns
	 */
	CCU80_CC80->DC1R |= CCU8_CC8_DC1R_Value << CCU8_CC8_DC1R_DT1R_POS;
 8001570:	4a3a      	ldr	r2, [pc, #232]	; (800165c <pwm_init+0x274>)
 8001572:	4b3a      	ldr	r3, [pc, #232]	; (800165c <pwm_init+0x274>)
 8001574:	6d1b      	ldr	r3, [r3, #80]	; 0x50
 8001576:	f043 030e 	orr.w	r3, r3, #14
 800157a:	6513      	str	r3, [r2, #80]	; 0x50
	CCU80_CC81->DC1R |= CCU8_CC8_DC1R_Value << CCU8_CC8_DC1R_DT1R_POS;
 800157c:	4a38      	ldr	r2, [pc, #224]	; (8001660 <pwm_init+0x278>)
 800157e:	4b38      	ldr	r3, [pc, #224]	; (8001660 <pwm_init+0x278>)
 8001580:	6d1b      	ldr	r3, [r3, #80]	; 0x50
 8001582:	f043 030e 	orr.w	r3, r3, #14
 8001586:	6513      	str	r3, [r2, #80]	; 0x50
	CCU80_CC82->DC1R |= CCU8_CC8_DC1R_Value << CCU8_CC8_DC1R_DT1R_POS;
 8001588:	4a36      	ldr	r2, [pc, #216]	; (8001664 <pwm_init+0x27c>)
 800158a:	4b36      	ldr	r3, [pc, #216]	; (8001664 <pwm_init+0x27c>)
 800158c:	6d1b      	ldr	r3, [r3, #80]	; 0x50
 800158e:	f043 030e 	orr.w	r3, r3, #14
 8001592:	6513      	str	r3, [r2, #80]	; 0x50
	CCU81_CC81->DC1R |= CCU8_CC8_DC1R_Value << CCU8_CC8_DC1R_DT1R_POS;
 8001594:	4a34      	ldr	r2, [pc, #208]	; (8001668 <pwm_init+0x280>)
 8001596:	4b34      	ldr	r3, [pc, #208]	; (8001668 <pwm_init+0x280>)
 8001598:	6d1b      	ldr	r3, [r3, #80]	; 0x50
 800159a:	f043 030e 	orr.w	r3, r3, #14
 800159e:	6513      	str	r3, [r2, #80]	; 0x50
	 * Input selector & matrix
	 * Use IN_H for Event 0 on Rising edge
	 * Set start on EVENT 0 on Rising edge
	 * Set stop on Event 1 on Falling edge
	 */
	CCU80_CC80->INS |= CCU8_IN_H << CCU8_CC8_INS_EV0IS_POS; // Set Event 0(system control) as rising edge
 80015a0:	4a2e      	ldr	r2, [pc, #184]	; (800165c <pwm_init+0x274>)
 80015a2:	4b2e      	ldr	r3, [pc, #184]	; (800165c <pwm_init+0x274>)
 80015a4:	681b      	ldr	r3, [r3, #0]
 80015a6:	f043 0307 	orr.w	r3, r3, #7
 80015aa:	6013      	str	r3, [r2, #0]
	CCU80_CC80->INS |= RISING_EDGE << CCU8_CC8_INS_EV0EM_POS;
 80015ac:	4a2b      	ldr	r2, [pc, #172]	; (800165c <pwm_init+0x274>)
 80015ae:	4b2b      	ldr	r3, [pc, #172]	; (800165c <pwm_init+0x274>)
 80015b0:	681b      	ldr	r3, [r3, #0]
 80015b2:	f443 3380 	orr.w	r3, r3, #65536	; 0x10000
 80015b6:	6013      	str	r3, [r2, #0]
	CCU80_CC80->INS |= CCU8_IN_H << CCU8_CC8_INS_EV1IS_POS; // Set Event 1(system control) as falling edge
 80015b8:	4a28      	ldr	r2, [pc, #160]	; (800165c <pwm_init+0x274>)
 80015ba:	4b28      	ldr	r3, [pc, #160]	; (800165c <pwm_init+0x274>)
 80015bc:	681b      	ldr	r3, [r3, #0]
 80015be:	f043 0370 	orr.w	r3, r3, #112	; 0x70
 80015c2:	6013      	str	r3, [r2, #0]
	CCU80_CC80->INS |= FALLING_EDGE << CCU8_CC8_INS_EV1EM_POS;
 80015c4:	4a25      	ldr	r2, [pc, #148]	; (800165c <pwm_init+0x274>)
 80015c6:	4b25      	ldr	r3, [pc, #148]	; (800165c <pwm_init+0x274>)
 80015c8:	681b      	ldr	r3, [r3, #0]
 80015ca:	f443 2300 	orr.w	r3, r3, #524288	; 0x80000
 80015ce:	6013      	str	r3, [r2, #0]

	CCU80_CC81->INS |= CCU8_IN_H << CCU8_CC8_INS_EV0IS_POS;
 80015d0:	4a23      	ldr	r2, [pc, #140]	; (8001660 <pwm_init+0x278>)
 80015d2:	4b23      	ldr	r3, [pc, #140]	; (8001660 <pwm_init+0x278>)
 80015d4:	681b      	ldr	r3, [r3, #0]
 80015d6:	f043 0307 	orr.w	r3, r3, #7
 80015da:	6013      	str	r3, [r2, #0]
	CCU80_CC81->INS |= RISING_EDGE << CCU8_CC8_INS_EV0EM_POS;
 80015dc:	4a20      	ldr	r2, [pc, #128]	; (8001660 <pwm_init+0x278>)
 80015de:	4b20      	ldr	r3, [pc, #128]	; (8001660 <pwm_init+0x278>)
 80015e0:	681b      	ldr	r3, [r3, #0]
 80015e2:	f443 3380 	orr.w	r3, r3, #65536	; 0x10000
 80015e6:	6013      	str	r3, [r2, #0]
	CCU80_CC81->INS |= CCU8_IN_H << CCU8_CC8_INS_EV1IS_POS;
 80015e8:	4a1d      	ldr	r2, [pc, #116]	; (8001660 <pwm_init+0x278>)
 80015ea:	4b1d      	ldr	r3, [pc, #116]	; (8001660 <pwm_init+0x278>)
 80015ec:	681b      	ldr	r3, [r3, #0]
 80015ee:	f043 0370 	orr.w	r3, r3, #112	; 0x70
 80015f2:	6013      	str	r3, [r2, #0]
	CCU80_CC81->INS |= FALLING_EDGE << CCU8_CC8_INS_EV1EM_POS;
 80015f4:	4a1a      	ldr	r2, [pc, #104]	; (8001660 <pwm_init+0x278>)
 80015f6:	4b1a      	ldr	r3, [pc, #104]	; (8001660 <pwm_init+0x278>)
 80015f8:	681b      	ldr	r3, [r3, #0]
 80015fa:	f443 2300 	orr.w	r3, r3, #524288	; 0x80000
 80015fe:	6013      	str	r3, [r2, #0]

	CCU80_CC82->INS |= CCU8_IN_H << CCU8_CC8_INS_EV0IS_POS;
 8001600:	4a18      	ldr	r2, [pc, #96]	; (8001664 <pwm_init+0x27c>)
 8001602:	4b18      	ldr	r3, [pc, #96]	; (8001664 <pwm_init+0x27c>)
 8001604:	681b      	ldr	r3, [r3, #0]
 8001606:	f043 0307 	orr.w	r3, r3, #7
 800160a:	6013      	str	r3, [r2, #0]
	CCU80_CC82->INS |= RISING_EDGE << CCU8_CC8_INS_EV0EM_POS;
 800160c:	4a15      	ldr	r2, [pc, #84]	; (8001664 <pwm_init+0x27c>)
 800160e:	4b15      	ldr	r3, [pc, #84]	; (8001664 <pwm_init+0x27c>)
 8001610:	681b      	ldr	r3, [r3, #0]
 8001612:	f443 3380 	orr.w	r3, r3, #65536	; 0x10000
 8001616:	6013      	str	r3, [r2, #0]
	CCU80_CC82->INS |= CCU8_IN_H << CCU8_CC8_INS_EV1IS_POS;
 8001618:	4a12      	ldr	r2, [pc, #72]	; (8001664 <pwm_init+0x27c>)
 800161a:	4b12      	ldr	r3, [pc, #72]	; (8001664 <pwm_init+0x27c>)
 800161c:	681b      	ldr	r3, [r3, #0]
 800161e:	f043 0370 	orr.w	r3, r3, #112	; 0x70
 8001622:	6013      	str	r3, [r2, #0]
	CCU80_CC82->INS |= FALLING_EDGE << CCU8_CC8_INS_EV1EM_POS;
 8001624:	4a0f      	ldr	r2, [pc, #60]	; (8001664 <pwm_init+0x27c>)
 8001626:	4b0f      	ldr	r3, [pc, #60]	; (8001664 <pwm_init+0x27c>)
 8001628:	681b      	ldr	r3, [r3, #0]
 800162a:	f443 2300 	orr.w	r3, r3, #524288	; 0x80000
 800162e:	6013      	str	r3, [r2, #0]

	CCU81_CC81->INS |= CCU8_IN_H << CCU8_CC8_INS_EV0IS_POS;
 8001630:	4a0d      	ldr	r2, [pc, #52]	; (8001668 <pwm_init+0x280>)
 8001632:	4b0d      	ldr	r3, [pc, #52]	; (8001668 <pwm_init+0x280>)
 8001634:	681b      	ldr	r3, [r3, #0]
 8001636:	f043 0307 	orr.w	r3, r3, #7
 800163a:	6013      	str	r3, [r2, #0]
	CCU81_CC81->INS |= RISING_EDGE << CCU8_CC8_INS_EV0EM_POS;
 800163c:	4a0a      	ldr	r2, [pc, #40]	; (8001668 <pwm_init+0x280>)
 800163e:	4b0a      	ldr	r3, [pc, #40]	; (8001668 <pwm_init+0x280>)
 8001640:	681b      	ldr	r3, [r3, #0]
 8001642:	f443 3380 	orr.w	r3, r3, #65536	; 0x10000
 8001646:	6013      	str	r3, [r2, #0]
	CCU81_CC81->INS |= CCU8_IN_H << CCU8_CC8_INS_EV1IS_POS;
 8001648:	4a07      	ldr	r2, [pc, #28]	; (8001668 <pwm_init+0x280>)
 800164a:	4b07      	ldr	r3, [pc, #28]	; (8001668 <pwm_init+0x280>)
 800164c:	681b      	ldr	r3, [r3, #0]
 800164e:	e00f      	b.n	8001670 <pwm_init+0x288>
 8001650:	50004400 	.word	0x50004400
 8001654:	50004600 	.word	0x50004600
 8001658:	40024000 	.word	0x40024000
 800165c:	40020100 	.word	0x40020100
 8001660:	40020200 	.word	0x40020200
 8001664:	40020300 	.word	0x40020300
 8001668:	40024200 	.word	0x40024200
 800166c:	40020000 	.word	0x40020000
 8001670:	f043 0370 	orr.w	r3, r3, #112	; 0x70
 8001674:	6013      	str	r3, [r2, #0]
	CCU81_CC81->INS |= FALLING_EDGE << CCU8_CC8_INS_EV1EM_POS;
 8001676:	4a20      	ldr	r2, [pc, #128]	; (80016f8 <pwm_init+0x310>)
 8001678:	4b1f      	ldr	r3, [pc, #124]	; (80016f8 <pwm_init+0x310>)
 800167a:	681b      	ldr	r3, [r3, #0]
 800167c:	f443 2300 	orr.w	r3, r3, #524288	; 0x80000
 8001680:	6013      	str	r3, [r2, #0]

	CCU80_CC80->CMC |= CCU8_CC8_CMC_STRTS_EV0_MSK << CCU8_CC8_CMC_STRTS_POS; // Set Event 0 for start
 8001682:	4a1e      	ldr	r2, [pc, #120]	; (80016fc <pwm_init+0x314>)
 8001684:	4b1d      	ldr	r3, [pc, #116]	; (80016fc <pwm_init+0x314>)
 8001686:	685b      	ldr	r3, [r3, #4]
 8001688:	f043 0301 	orr.w	r3, r3, #1
 800168c:	6053      	str	r3, [r2, #4]
	CCU80_CC81->CMC |= CCU8_CC8_CMC_STRTS_EV0_MSK << CCU8_CC8_CMC_STRTS_POS;
 800168e:	4a1c      	ldr	r2, [pc, #112]	; (8001700 <pwm_init+0x318>)
 8001690:	4b1b      	ldr	r3, [pc, #108]	; (8001700 <pwm_init+0x318>)
 8001692:	685b      	ldr	r3, [r3, #4]
 8001694:	f043 0301 	orr.w	r3, r3, #1
 8001698:	6053      	str	r3, [r2, #4]
	CCU80_CC82->CMC |= CCU8_CC8_CMC_STRTS_EV0_MSK << CCU8_CC8_CMC_STRTS_POS;
 800169a:	4a1a      	ldr	r2, [pc, #104]	; (8001704 <pwm_init+0x31c>)
 800169c:	4b19      	ldr	r3, [pc, #100]	; (8001704 <pwm_init+0x31c>)
 800169e:	685b      	ldr	r3, [r3, #4]
 80016a0:	f043 0301 	orr.w	r3, r3, #1
 80016a4:	6053      	str	r3, [r2, #4]
	CCU81_CC81->CMC |= CCU8_CC8_CMC_STRTS_EV0_MSK << CCU8_CC8_CMC_STRTS_POS;
 80016a6:	4a14      	ldr	r2, [pc, #80]	; (80016f8 <pwm_init+0x310>)
 80016a8:	4b13      	ldr	r3, [pc, #76]	; (80016f8 <pwm_init+0x310>)
 80016aa:	685b      	ldr	r3, [r3, #4]
 80016ac:	f043 0301 	orr.w	r3, r3, #1
 80016b0:	6053      	str	r3, [r2, #4]

	CCU80_CC80->CMC |= CCU8_CC8_CMC_ENDS_EV1_MSK << CCU8_CC8_CMC_ENDS_POS; // Set Event 1 for end
 80016b2:	4a12      	ldr	r2, [pc, #72]	; (80016fc <pwm_init+0x314>)
 80016b4:	4b11      	ldr	r3, [pc, #68]	; (80016fc <pwm_init+0x314>)
 80016b6:	685b      	ldr	r3, [r3, #4]
 80016b8:	f043 0308 	orr.w	r3, r3, #8
 80016bc:	6053      	str	r3, [r2, #4]
	CCU80_CC81->CMC |= CCU8_CC8_CMC_ENDS_EV1_MSK << CCU8_CC8_CMC_ENDS_POS;
 80016be:	4a10      	ldr	r2, [pc, #64]	; (8001700 <pwm_init+0x318>)
 80016c0:	4b0f      	ldr	r3, [pc, #60]	; (8001700 <pwm_init+0x318>)
 80016c2:	685b      	ldr	r3, [r3, #4]
 80016c4:	f043 0308 	orr.w	r3, r3, #8
 80016c8:	6053      	str	r3, [r2, #4]
	CCU80_CC82->CMC |= CCU8_CC8_CMC_ENDS_EV1_MSK << CCU8_CC8_CMC_ENDS_POS;
 80016ca:	4a0e      	ldr	r2, [pc, #56]	; (8001704 <pwm_init+0x31c>)
 80016cc:	4b0d      	ldr	r3, [pc, #52]	; (8001704 <pwm_init+0x31c>)
 80016ce:	685b      	ldr	r3, [r3, #4]
 80016d0:	f043 0308 	orr.w	r3, r3, #8
 80016d4:	6053      	str	r3, [r2, #4]
	CCU81_CC81->CMC |= CCU8_CC8_CMC_ENDS_EV1_MSK << CCU8_CC8_CMC_ENDS_POS;
 80016d6:	4a08      	ldr	r2, [pc, #32]	; (80016f8 <pwm_init+0x310>)
 80016d8:	4b07      	ldr	r3, [pc, #28]	; (80016f8 <pwm_init+0x310>)
 80016da:	685b      	ldr	r3, [r3, #4]
 80016dc:	f043 0308 	orr.w	r3, r3, #8
 80016e0:	6053      	str	r3, [r2, #4]

	/*
	 * Enable CCUCON Module
	 */
	SCU_GENERAL->CCUCON |= SCU_GENERAL_CCUCON_GSC80_GSC81_MSK;
 80016e2:	4a09      	ldr	r2, [pc, #36]	; (8001708 <pwm_init+0x320>)
 80016e4:	4b08      	ldr	r3, [pc, #32]	; (8001708 <pwm_init+0x320>)
 80016e6:	6cdb      	ldr	r3, [r3, #76]	; 0x4c
 80016e8:	f443 7340 	orr.w	r3, r3, #768	; 0x300
 80016ec:	64d3      	str	r3, [r2, #76]	; 0x4c
	//	SCU_GENERAL->CCUCON &= ~SCU_GENERAL_CCUCON_GSC80_MSK; 		//Reset back to 0 if it needs to be re-enabled later
}
 80016ee:	46bd      	mov	sp, r7
 80016f0:	f85d 7b04 	ldr.w	r7, [sp], #4
 80016f4:	4770      	bx	lr
 80016f6:	bf00      	nop
 80016f8:	40024200 	.word	0x40024200
 80016fc:	40020100 	.word	0x40020100
 8001700:	40020200 	.word	0x40020200
 8001704:	40020300 	.word	0x40020300
 8001708:	50004000 	.word	0x50004000

0800170c <pwm_update>:
/*
 * Update compare values for PWM
 * Input type: int16_t
 */
void pwm_update(int16_t uaref, int16_t ubref)
{
 800170c:	b580      	push	{r7, lr}
 800170e:	b082      	sub	sp, #8
 8001710:	af00      	add	r7, sp, #0
 8001712:	4603      	mov	r3, r0
 8001714:	460a      	mov	r2, r1
 8001716:	80fb      	strh	r3, [r7, #6]
 8001718:	4613      	mov	r3, r2
 800171a:	80bb      	strh	r3, [r7, #4]
	/*
	 * Keeps the voltage values between max/min saturation
	 * Resulted PWM shouldn't be 0 or MAX
	 */
	if (uaref > sat_pwm)
 800171c:	4b53      	ldr	r3, [pc, #332]	; (800186c <pwm_update+0x160>)
 800171e:	881b      	ldrh	r3, [r3, #0]
 8001720:	f9b7 2006 	ldrsh.w	r2, [r7, #6]
 8001724:	b21b      	sxth	r3, r3
 8001726:	429a      	cmp	r2, r3
 8001728:	dd03      	ble.n	8001732 <pwm_update+0x26>
	{
		uaref = sat_pwm;
 800172a:	4b50      	ldr	r3, [pc, #320]	; (800186c <pwm_update+0x160>)
 800172c:	881b      	ldrh	r3, [r3, #0]
 800172e:	80fb      	strh	r3, [r7, #6]
 8001730:	e00d      	b.n	800174e <pwm_update+0x42>
	}
	else if (uaref < -sat_pwm)
 8001732:	f9b7 2006 	ldrsh.w	r2, [r7, #6]
 8001736:	4b4d      	ldr	r3, [pc, #308]	; (800186c <pwm_update+0x160>)
 8001738:	881b      	ldrh	r3, [r3, #0]
 800173a:	b21b      	sxth	r3, r3
 800173c:	425b      	negs	r3, r3
 800173e:	429a      	cmp	r2, r3
 8001740:	da05      	bge.n	800174e <pwm_update+0x42>
	{
		uaref = -sat_pwm;
 8001742:	4b4a      	ldr	r3, [pc, #296]	; (800186c <pwm_update+0x160>)
 8001744:	881b      	ldrh	r3, [r3, #0]
 8001746:	b29b      	uxth	r3, r3
 8001748:	425b      	negs	r3, r3
 800174a:	b29b      	uxth	r3, r3
 800174c:	80fb      	strh	r3, [r7, #6]
	}

	if (ubref > sat_pwm)
 800174e:	4b47      	ldr	r3, [pc, #284]	; (800186c <pwm_update+0x160>)
 8001750:	881b      	ldrh	r3, [r3, #0]
 8001752:	f9b7 2004 	ldrsh.w	r2, [r7, #4]
 8001756:	b21b      	sxth	r3, r3
 8001758:	429a      	cmp	r2, r3
 800175a:	dd03      	ble.n	8001764 <pwm_update+0x58>
	{
		ubref = sat_pwm;
 800175c:	4b43      	ldr	r3, [pc, #268]	; (800186c <pwm_update+0x160>)
 800175e:	881b      	ldrh	r3, [r3, #0]
 8001760:	80bb      	strh	r3, [r7, #4]
 8001762:	e00d      	b.n	8001780 <pwm_update+0x74>
	}
	else if (ubref < -sat_pwm)
 8001764:	f9b7 2004 	ldrsh.w	r2, [r7, #4]
 8001768:	4b40      	ldr	r3, [pc, #256]	; (800186c <pwm_update+0x160>)
 800176a:	881b      	ldrh	r3, [r3, #0]
 800176c:	b21b      	sxth	r3, r3
 800176e:	425b      	negs	r3, r3
 8001770:	429a      	cmp	r2, r3
 8001772:	da05      	bge.n	8001780 <pwm_update+0x74>
	{
		ubref = -sat_pwm;
 8001774:	4b3d      	ldr	r3, [pc, #244]	; (800186c <pwm_update+0x160>)
 8001776:	881b      	ldrh	r3, [r3, #0]
 8001778:	b29b      	uxth	r3, r3
 800177a:	425b      	negs	r3, r3
 800177c:	b29b      	uxth	r3, r3
 800177e:	80bb      	strh	r3, [r7, #4]
	}


	// New compare value
	CCU80_CC80->CR1S = (pwm_value / 2 - pwm_value * uaref / 65535);	//A - A1
 8001780:	483b      	ldr	r0, [pc, #236]	; (8001870 <pwm_update+0x164>)
 8001782:	4b3c      	ldr	r3, [pc, #240]	; (8001874 <pwm_update+0x168>)
 8001784:	881b      	ldrh	r3, [r3, #0]
 8001786:	b21b      	sxth	r3, r3
 8001788:	0fda      	lsrs	r2, r3, #31
 800178a:	4413      	add	r3, r2
 800178c:	105b      	asrs	r3, r3, #1
 800178e:	b29b      	uxth	r3, r3
 8001790:	b21a      	sxth	r2, r3
 8001792:	4b38      	ldr	r3, [pc, #224]	; (8001874 <pwm_update+0x168>)
 8001794:	881b      	ldrh	r3, [r3, #0]
 8001796:	b21b      	sxth	r3, r3
 8001798:	f9b7 1006 	ldrsh.w	r1, [r7, #6]
 800179c:	fb01 f303 	mul.w	r3, r1, r3
 80017a0:	4935      	ldr	r1, [pc, #212]	; (8001878 <pwm_update+0x16c>)
 80017a2:	fb81 e103 	smull	lr, r1, r1, r3
 80017a6:	4419      	add	r1, r3
 80017a8:	13c9      	asrs	r1, r1, #15
 80017aa:	17db      	asrs	r3, r3, #31
 80017ac:	1acb      	subs	r3, r1, r3
 80017ae:	1ad3      	subs	r3, r2, r3
 80017b0:	63c3      	str	r3, [r0, #60]	; 0x3c
	CCU80_CC81->CR1S = (pwm_value / 2 + pwm_value * uaref / 65535); //B - A2
 80017b2:	4832      	ldr	r0, [pc, #200]	; (800187c <pwm_update+0x170>)
 80017b4:	4b2f      	ldr	r3, [pc, #188]	; (8001874 <pwm_update+0x168>)
 80017b6:	881b      	ldrh	r3, [r3, #0]
 80017b8:	b21b      	sxth	r3, r3
 80017ba:	0fda      	lsrs	r2, r3, #31
 80017bc:	4413      	add	r3, r2
 80017be:	105b      	asrs	r3, r3, #1
 80017c0:	b29b      	uxth	r3, r3
 80017c2:	b21a      	sxth	r2, r3
 80017c4:	4b2b      	ldr	r3, [pc, #172]	; (8001874 <pwm_update+0x168>)
 80017c6:	881b      	ldrh	r3, [r3, #0]
 80017c8:	b21b      	sxth	r3, r3
 80017ca:	f9b7 1006 	ldrsh.w	r1, [r7, #6]
 80017ce:	fb01 f303 	mul.w	r3, r1, r3
 80017d2:	4929      	ldr	r1, [pc, #164]	; (8001878 <pwm_update+0x16c>)
 80017d4:	fb81 e103 	smull	lr, r1, r1, r3
 80017d8:	4419      	add	r1, r3
 80017da:	13c9      	asrs	r1, r1, #15
 80017dc:	17db      	asrs	r3, r3, #31
 80017de:	1acb      	subs	r3, r1, r3
 80017e0:	4413      	add	r3, r2
 80017e2:	63c3      	str	r3, [r0, #60]	; 0x3c
	
	CCU80_CC82->CR1S = (pwm_value / 2 - pwm_value * ubref / 65535); //C - B1
 80017e4:	4826      	ldr	r0, [pc, #152]	; (8001880 <pwm_update+0x174>)
 80017e6:	4b23      	ldr	r3, [pc, #140]	; (8001874 <pwm_update+0x168>)
 80017e8:	881b      	ldrh	r3, [r3, #0]
 80017ea:	b21b      	sxth	r3, r3
 80017ec:	0fda      	lsrs	r2, r3, #31
 80017ee:	4413      	add	r3, r2
 80017f0:	105b      	asrs	r3, r3, #1
 80017f2:	b29b      	uxth	r3, r3
 80017f4:	b21a      	sxth	r2, r3
 80017f6:	4b1f      	ldr	r3, [pc, #124]	; (8001874 <pwm_update+0x168>)
 80017f8:	881b      	ldrh	r3, [r3, #0]
 80017fa:	b21b      	sxth	r3, r3
 80017fc:	f9b7 1004 	ldrsh.w	r1, [r7, #4]
 8001800:	fb01 f303 	mul.w	r3, r1, r3
 8001804:	491c      	ldr	r1, [pc, #112]	; (8001878 <pwm_update+0x16c>)
 8001806:	fb81 e103 	smull	lr, r1, r1, r3
 800180a:	4419      	add	r1, r3
 800180c:	13c9      	asrs	r1, r1, #15
 800180e:	17db      	asrs	r3, r3, #31
 8001810:	1acb      	subs	r3, r1, r3
 8001812:	1ad3      	subs	r3, r2, r3
 8001814:	63c3      	str	r3, [r0, #60]	; 0x3c
	CCU81_CC81->CR1S = (pwm_value / 2 + pwm_value * ubref / 65535); //D - B2
 8001816:	481b      	ldr	r0, [pc, #108]	; (8001884 <pwm_update+0x178>)
 8001818:	4b16      	ldr	r3, [pc, #88]	; (8001874 <pwm_update+0x168>)
 800181a:	881b      	ldrh	r3, [r3, #0]
 800181c:	b21b      	sxth	r3, r3
 800181e:	0fda      	lsrs	r2, r3, #31
 8001820:	4413      	add	r3, r2
 8001822:	105b      	asrs	r3, r3, #1
 8001824:	b29b      	uxth	r3, r3
 8001826:	b21a      	sxth	r2, r3
 8001828:	4b12      	ldr	r3, [pc, #72]	; (8001874 <pwm_update+0x168>)
 800182a:	881b      	ldrh	r3, [r3, #0]
 800182c:	b21b      	sxth	r3, r3
 800182e:	f9b7 1004 	ldrsh.w	r1, [r7, #4]
 8001832:	fb01 f303 	mul.w	r3, r1, r3
 8001836:	4910      	ldr	r1, [pc, #64]	; (8001878 <pwm_update+0x16c>)
 8001838:	fb81 e103 	smull	lr, r1, r1, r3
 800183c:	4419      	add	r1, r3
 800183e:	13c9      	asrs	r1, r1, #15
 8001840:	17db      	asrs	r3, r3, #31
 8001842:	1acb      	subs	r3, r1, r3
 8001844:	4413      	add	r3, r2
 8001846:	63c3      	str	r3, [r0, #60]	; 0x3c

	// Shadow transfer enabled for new compare value
	CCU80->GCSS |= (CCU8_GCSS_S0SE_MSK | CCU8_GCSS_S1SE_MSK | CCU8_GCSS_S2SE_MSK);
 8001848:	4a0f      	ldr	r2, [pc, #60]	; (8001888 <pwm_update+0x17c>)
 800184a:	4b0f      	ldr	r3, [pc, #60]	; (8001888 <pwm_update+0x17c>)
 800184c:	691b      	ldr	r3, [r3, #16]
 800184e:	f443 7388 	orr.w	r3, r3, #272	; 0x110
 8001852:	f043 0301 	orr.w	r3, r3, #1
 8001856:	6113      	str	r3, [r2, #16]
	CCU81->GCSS |= (CCU8_GCSS_S1SE_MSK);
 8001858:	4a0c      	ldr	r2, [pc, #48]	; (800188c <pwm_update+0x180>)
 800185a:	4b0c      	ldr	r3, [pc, #48]	; (800188c <pwm_update+0x180>)
 800185c:	691b      	ldr	r3, [r3, #16]
 800185e:	f043 0310 	orr.w	r3, r3, #16
 8001862:	6113      	str	r3, [r2, #16]
}
 8001864:	3708      	adds	r7, #8
 8001866:	46bd      	mov	sp, r7
 8001868:	bd80      	pop	{r7, pc}
 800186a:	bf00      	nop
 800186c:	1ffe880c 	.word	0x1ffe880c
 8001870:	40020100 	.word	0x40020100
 8001874:	1ffe880a 	.word	0x1ffe880a
 8001878:	80008001 	.word	0x80008001
 800187c:	40020200 	.word	0x40020200
 8001880:	40020300 	.word	0x40020300
 8001884:	40024200 	.word	0x40024200
 8001888:	40020000 	.word	0x40020000
 800188c:	40024000 	.word	0x40024000

08001890 <motion_on>:
/*
	Enable all PWM pins
*/
void motion_on(void)
{
 8001890:	b480      	push	{r7}
 8001892:	af00      	add	r7, sp, #0
	/*
	 * PWM pins configuration CCU80 - as alter function 3 - CCU80 OUTxy
	 */
	PORT5->IOCR8 |= (GPIO_OUTPUT_ALTER_3 << PORT5_PC11_POS); // A_HIGH 	- P5.11 - OUT00
 8001894:	4a19      	ldr	r2, [pc, #100]	; (80018fc <motion_on+0x6c>)
 8001896:	4b19      	ldr	r3, [pc, #100]	; (80018fc <motion_on+0x6c>)
 8001898:	699b      	ldr	r3, [r3, #24]
 800189a:	f043 4318 	orr.w	r3, r3, #2550136832	; 0x98000000
 800189e:	6193      	str	r3, [r2, #24]
	PORT5->IOCR8 |= (GPIO_OUTPUT_ALTER_3 << PORT5_PC8_POS);	 // A_LOW 	- P5.8  - OUT01
 80018a0:	4a16      	ldr	r2, [pc, #88]	; (80018fc <motion_on+0x6c>)
 80018a2:	4b16      	ldr	r3, [pc, #88]	; (80018fc <motion_on+0x6c>)
 80018a4:	699b      	ldr	r3, [r3, #24]
 80018a6:	f043 0398 	orr.w	r3, r3, #152	; 0x98
 80018aa:	6193      	str	r3, [r2, #24]

	PORT0->IOCR4 |= (GPIO_OUTPUT_ALTER_3 << PORT0_IOCR4_PC4_Pos); // B_HIGH 	- P5.10 - OUT10 P0.4 alternative
 80018ac:	4a14      	ldr	r2, [pc, #80]	; (8001900 <motion_on+0x70>)
 80018ae:	4b14      	ldr	r3, [pc, #80]	; (8001900 <motion_on+0x70>)
 80018b0:	695b      	ldr	r3, [r3, #20]
 80018b2:	f043 0398 	orr.w	r3, r3, #152	; 0x98
 80018b6:	6153      	str	r3, [r2, #20]
	PORT2->IOCR12 |= (GPIO_OUTPUT_ALTER_3 << PORT2_PC15_POS);	  // B_LOW 	- P2.15 - OUT11
 80018b8:	4a12      	ldr	r2, [pc, #72]	; (8001904 <motion_on+0x74>)
 80018ba:	4b12      	ldr	r3, [pc, #72]	; (8001904 <motion_on+0x74>)
 80018bc:	69db      	ldr	r3, [r3, #28]
 80018be:	f043 4318 	orr.w	r3, r3, #2550136832	; 0x98000000
 80018c2:	61d3      	str	r3, [r2, #28]

	PORT5->IOCR8 |= (GPIO_OUTPUT_ALTER_3 << PORT5_PC9_POS);	  // C_HIGH 	- P5.9	- OUT20
 80018c4:	4a0d      	ldr	r2, [pc, #52]	; (80018fc <motion_on+0x6c>)
 80018c6:	4b0d      	ldr	r3, [pc, #52]	; (80018fc <motion_on+0x6c>)
 80018c8:	699b      	ldr	r3, [r3, #24]
 80018ca:	f443 4318 	orr.w	r3, r3, #38912	; 0x9800
 80018ce:	6193      	str	r3, [r2, #24]
	PORT2->IOCR12 |= (GPIO_OUTPUT_ALTER_3 << PORT2_PC14_POS); // C_LOW 	- P2.14	- OUT21
 80018d0:	4a0c      	ldr	r2, [pc, #48]	; (8001904 <motion_on+0x74>)
 80018d2:	4b0c      	ldr	r3, [pc, #48]	; (8001904 <motion_on+0x74>)
 80018d4:	69db      	ldr	r3, [r3, #28]
 80018d6:	f443 0318 	orr.w	r3, r3, #9961472	; 0x980000
 80018da:	61d3      	str	r3, [r2, #28]

	PORT1->IOCR12 |= (GPIO_OUTPUT_ALTER_3 << PORT1_IOCR12_PC14_Pos);	//D_HIGH	-P1.14	- OUT10 -CCU81
 80018dc:	4a0a      	ldr	r2, [pc, #40]	; (8001908 <motion_on+0x78>)
 80018de:	4b0a      	ldr	r3, [pc, #40]	; (8001908 <motion_on+0x78>)
 80018e0:	69db      	ldr	r3, [r3, #28]
 80018e2:	f443 0318 	orr.w	r3, r3, #9961472	; 0x980000
 80018e6:	61d3      	str	r3, [r2, #28]
	PORT1->IOCR8 |= (GPIO_OUTPUT_ALTER_3 << PORT1_IOCR8_PC11_Pos);		//D_LOW		-P1.11	- OUT11 -CCU81
 80018e8:	4a07      	ldr	r2, [pc, #28]	; (8001908 <motion_on+0x78>)
 80018ea:	4b07      	ldr	r3, [pc, #28]	; (8001908 <motion_on+0x78>)
 80018ec:	699b      	ldr	r3, [r3, #24]
 80018ee:	f043 4318 	orr.w	r3, r3, #2550136832	; 0x98000000
 80018f2:	6193      	str	r3, [r2, #24]
}
 80018f4:	46bd      	mov	sp, r7
 80018f6:	f85d 7b04 	ldr.w	r7, [sp], #4
 80018fa:	4770      	bx	lr
 80018fc:	48028500 	.word	0x48028500
 8001900:	48028000 	.word	0x48028000
 8001904:	48028200 	.word	0x48028200
 8001908:	48028100 	.word	0x48028100

0800190c <motion_off>:

/*
	Disable all PWM pins
*/
void motion_off(void)
{
 800190c:	b480      	push	{r7}
 800190e:	af00      	add	r7, sp, #0
	/*
	 * PWM pins configuration CCU80 - OFF
	 */
	PORT5->IOCR8 &= ~(DISABLE_OUTPUT << PORT5_PC11_POS); // A_HIGH 	- P5.11 - OUT00
 8001910:	4a19      	ldr	r2, [pc, #100]	; (8001978 <motion_off+0x6c>)
 8001912:	4b19      	ldr	r3, [pc, #100]	; (8001978 <motion_off+0x6c>)
 8001914:	699b      	ldr	r3, [r3, #24]
 8001916:	f023 4378 	bic.w	r3, r3, #4160749568	; 0xf8000000
 800191a:	6193      	str	r3, [r2, #24]
	PORT5->IOCR8 &= ~(DISABLE_OUTPUT << PORT5_PC8_POS);	 // A_LOW 	- P5.8  - OUT01
 800191c:	4a16      	ldr	r2, [pc, #88]	; (8001978 <motion_off+0x6c>)
 800191e:	4b16      	ldr	r3, [pc, #88]	; (8001978 <motion_off+0x6c>)
 8001920:	699b      	ldr	r3, [r3, #24]
 8001922:	f023 03f8 	bic.w	r3, r3, #248	; 0xf8
 8001926:	6193      	str	r3, [r2, #24]

	PORT0->IOCR4 &= ~(DISABLE_OUTPUT << PORT0_IOCR4_PC4_Pos); // B_HIGH 	- P5.10 - OUT10 P0.4 alternative
 8001928:	4a14      	ldr	r2, [pc, #80]	; (800197c <motion_off+0x70>)
 800192a:	4b14      	ldr	r3, [pc, #80]	; (800197c <motion_off+0x70>)
 800192c:	695b      	ldr	r3, [r3, #20]
 800192e:	f023 03f8 	bic.w	r3, r3, #248	; 0xf8
 8001932:	6153      	str	r3, [r2, #20]
	PORT2->IOCR12 &= ~(DISABLE_OUTPUT << PORT2_PC15_POS);	  // B_LOW 	- P2.15 - OUT11
 8001934:	4a12      	ldr	r2, [pc, #72]	; (8001980 <motion_off+0x74>)
 8001936:	4b12      	ldr	r3, [pc, #72]	; (8001980 <motion_off+0x74>)
 8001938:	69db      	ldr	r3, [r3, #28]
 800193a:	f023 4378 	bic.w	r3, r3, #4160749568	; 0xf8000000
 800193e:	61d3      	str	r3, [r2, #28]

	PORT5->IOCR8 &= ~(DISABLE_OUTPUT << PORT5_PC9_POS);	  // C_HIGH 	- P5.9	- OUT20
 8001940:	4a0d      	ldr	r2, [pc, #52]	; (8001978 <motion_off+0x6c>)
 8001942:	4b0d      	ldr	r3, [pc, #52]	; (8001978 <motion_off+0x6c>)
 8001944:	699b      	ldr	r3, [r3, #24]
 8001946:	f423 4378 	bic.w	r3, r3, #63488	; 0xf800
 800194a:	6193      	str	r3, [r2, #24]
	PORT2->IOCR12 &= ~(DISABLE_OUTPUT << PORT2_PC14_POS); // C_LOW 	- P2.14	- OUT21
 800194c:	4a0c      	ldr	r2, [pc, #48]	; (8001980 <motion_off+0x74>)
 800194e:	4b0c      	ldr	r3, [pc, #48]	; (8001980 <motion_off+0x74>)
 8001950:	69db      	ldr	r3, [r3, #28]
 8001952:	f423 0378 	bic.w	r3, r3, #16252928	; 0xf80000
 8001956:	61d3      	str	r3, [r2, #28]

	PORT1->IOCR12 &= ~(GPIO_OUTPUT_ALTER_3 << PORT1_IOCR12_PC14_Pos);	//D_HIGH	-P1.14	- OUT10 -CCU81
 8001958:	4a0a      	ldr	r2, [pc, #40]	; (8001984 <motion_off+0x78>)
 800195a:	4b0a      	ldr	r3, [pc, #40]	; (8001984 <motion_off+0x78>)
 800195c:	69db      	ldr	r3, [r3, #28]
 800195e:	f423 0318 	bic.w	r3, r3, #9961472	; 0x980000
 8001962:	61d3      	str	r3, [r2, #28]
	PORT1->IOCR8 &= ~(GPIO_OUTPUT_ALTER_3 << PORT1_IOCR8_PC11_Pos);		//D_LOW		-P1.11	- OUT11 -CCU81
 8001964:	4a07      	ldr	r2, [pc, #28]	; (8001984 <motion_off+0x78>)
 8001966:	4b07      	ldr	r3, [pc, #28]	; (8001984 <motion_off+0x78>)
 8001968:	699b      	ldr	r3, [r3, #24]
 800196a:	f023 4318 	bic.w	r3, r3, #2550136832	; 0x98000000
 800196e:	6193      	str	r3, [r2, #24]
}
 8001970:	46bd      	mov	sp, r7
 8001972:	f85d 7b04 	ldr.w	r7, [sp], #4
 8001976:	4770      	bx	lr
 8001978:	48028500 	.word	0x48028500
 800197c:	48028000 	.word	0x48028000
 8001980:	48028200 	.word	0x48028200
 8001984:	48028100 	.word	0x48028100

08001988 <VADC0_G0_2_IRQHandler>:
uint16_t interrupt_counter_slow_loop = 0; // Slow Loop counter
uint16_t interrupt_counter_fast_loop = 0; // Fast Loop couner
uint32_t interrupt_counter_timer = 0;	  // Timer Counter

void VADC0_G0_2_IRQHandler(void)
{
 8001988:	b580      	push	{r7, lr}
 800198a:	b082      	sub	sp, #8
 800198c:	af00      	add	r7, sp, #0
	interrupt_counter_slow_loop++;
 800198e:	4b42      	ldr	r3, [pc, #264]	; (8001a98 <VADC0_G0_2_IRQHandler+0x110>)
 8001990:	881b      	ldrh	r3, [r3, #0]
 8001992:	3301      	adds	r3, #1
 8001994:	b29a      	uxth	r2, r3
 8001996:	4b40      	ldr	r3, [pc, #256]	; (8001a98 <VADC0_G0_2_IRQHandler+0x110>)
 8001998:	801a      	strh	r2, [r3, #0]
	interrupt_counter_fast_loop++;
 800199a:	4b40      	ldr	r3, [pc, #256]	; (8001a9c <VADC0_G0_2_IRQHandler+0x114>)
 800199c:	881b      	ldrh	r3, [r3, #0]
 800199e:	3301      	adds	r3, #1
 80019a0:	b29a      	uxth	r2, r3
 80019a2:	4b3e      	ldr	r3, [pc, #248]	; (8001a9c <VADC0_G0_2_IRQHandler+0x114>)
 80019a4:	801a      	strh	r2, [r3, #0]
	interrupt_counter_timer++;
 80019a6:	4b3e      	ldr	r3, [pc, #248]	; (8001aa0 <VADC0_G0_2_IRQHandler+0x118>)
 80019a8:	681b      	ldr	r3, [r3, #0]
 80019aa:	3301      	adds	r3, #1
 80019ac:	4a3c      	ldr	r2, [pc, #240]	; (8001aa0 <VADC0_G0_2_IRQHandler+0x118>)
 80019ae:	6013      	str	r3, [r2, #0]
	/*
	 * Fast compute "loop"
	 * Every 100us compute speed,mechanical/electrical position, field, dq_abc transformation
	 */
	if (TIME_100_us == interrupt_counter_fast_loop)
 80019b0:	4b3a      	ldr	r3, [pc, #232]	; (8001a9c <VADC0_G0_2_IRQHandler+0x114>)
 80019b2:	881b      	ldrh	r3, [r3, #0]
 80019b4:	2b02      	cmp	r3, #2
 80019b6:	d144      	bne.n	8001a42 <VADC0_G0_2_IRQHandler+0xba>
	{

		// Read and compute into [SI] all currents
		read_currents();
 80019b8:	f7ff fb24 	bl	8001004 <read_currents>
		compute_currents();
 80019bc:	f7ff fc30 	bl	8001220 <compute_currents>
		compute_u_mot();
 80019c0:	f7ff fbe6 	bl	8001190 <compute_u_mot>
		compute_u_log();
 80019c4:	f7ff fc08 	bl	80011d8 <compute_u_log>

		// Compute all data for motor movement in Operation Enable
		if (motion_config)
 80019c8:	4b36      	ldr	r3, [pc, #216]	; (8001aa4 <VADC0_G0_2_IRQHandler+0x11c>)
 80019ca:	781b      	ldrb	r3, [r3, #0]
 80019cc:	2b00      	cmp	r3, #0
 80019ce:	d035      	beq.n	8001a3c <VADC0_G0_2_IRQHandler+0xb4>
		{
			compute_fast_speed();
 80019d0:	f002 f9c2 	bl	8003d58 <compute_fast_speed>
			compute_fast_mechanical_position();
 80019d4:	f002 f9e0 	bl	8003d98 <compute_fast_mechanical_position>
			compute_fast_electrical_position();
 80019d8:	f002 f9f0 	bl	8003dbc <compute_fast_electrical_position>
			compute_fast_field();
 80019dc:	f002 fa06 	bl	8003dec <compute_fast_field>
			abc_dq();
 80019e0:	f002 f8e0 	bl	8003ba4 <abc_dq>

			if (prot_status)
 80019e4:	4b30      	ldr	r3, [pc, #192]	; (8001aa8 <VADC0_G0_2_IRQHandler+0x120>)
 80019e6:	781b      	ldrb	r3, [r3, #0]
 80019e8:	2b00      	cmp	r3, #0
 80019ea:	d001      	beq.n	80019f0 <VADC0_G0_2_IRQHandler+0x68>
			{
				current_protection();
 80019ec:	f7fe ffaa 	bl	8000944 <current_protection>
			}

			// Add Fast Loop regulators
			if (loop_control & I_REF_LOOP_MSK)
 80019f0:	4b2e      	ldr	r3, [pc, #184]	; (8001aac <VADC0_G0_2_IRQHandler+0x124>)
 80019f2:	781b      	ldrb	r3, [r3, #0]
 80019f4:	f003 0301 	and.w	r3, r3, #1
 80019f8:	2b00      	cmp	r3, #0
 80019fa:	d003      	beq.n	8001a04 <VADC0_G0_2_IRQHandler+0x7c>
			{
				pi_regulator_i_d();
 80019fc:	f000 f9c0 	bl	8001d80 <pi_regulator_i_d>
				pi_regulator_i_q();
 8001a00:	f000 f910 	bl	8001c24 <pi_regulator_i_q>
			}

			dq_abc();
 8001a04:	f002 f922 	bl	8003c4c <dq_abc>
			pwm_update(u_a_ref, u_b_ref);
 8001a08:	4b29      	ldr	r3, [pc, #164]	; (8001ab0 <VADC0_G0_2_IRQHandler+0x128>)
 8001a0a:	edd3 7a00 	vldr	s15, [r3]
 8001a0e:	eefd 7ae7 	vcvt.s32.f32	s15, s15
 8001a12:	edc7 7a01 	vstr	s15, [r7, #4]
 8001a16:	88bb      	ldrh	r3, [r7, #4]
 8001a18:	b29a      	uxth	r2, r3
 8001a1a:	4b26      	ldr	r3, [pc, #152]	; (8001ab4 <VADC0_G0_2_IRQHandler+0x12c>)
 8001a1c:	edd3 7a00 	vldr	s15, [r3]
 8001a20:	eefd 7ae7 	vcvt.s32.f32	s15, s15
 8001a24:	edc7 7a01 	vstr	s15, [r7, #4]
 8001a28:	88bb      	ldrh	r3, [r7, #4]
 8001a2a:	b29b      	uxth	r3, r3
 8001a2c:	b212      	sxth	r2, r2
 8001a2e:	b21b      	sxth	r3, r3
 8001a30:	4610      	mov	r0, r2
 8001a32:	4619      	mov	r1, r3
 8001a34:	f7ff fe6a 	bl	800170c <pwm_update>

			ProbeScope_Sampling(); // For Micrium Osciloscope
 8001a38:	f000 fef0 	bl	800281c <ProbeScope_Sampling>
//		if (prot_status)
//		{
//			current_protection();
//		}

		interrupt_counter_fast_loop = 0;
 8001a3c:	4b17      	ldr	r3, [pc, #92]	; (8001a9c <VADC0_G0_2_IRQHandler+0x114>)
 8001a3e:	2200      	movs	r2, #0
 8001a40:	801a      	strh	r2, [r3, #0]
	}
	/*
	 * Slow compute loop
	 * Every 1ms compute speed
	 */
	if (TIME_1_ms == interrupt_counter_slow_loop)
 8001a42:	4b15      	ldr	r3, [pc, #84]	; (8001a98 <VADC0_G0_2_IRQHandler+0x110>)
 8001a44:	881b      	ldrh	r3, [r3, #0]
 8001a46:	2b14      	cmp	r3, #20
 8001a48:	d123      	bne.n	8001a92 <VADC0_G0_2_IRQHandler+0x10a>
	{
		if (motion_config)
 8001a4a:	4b16      	ldr	r3, [pc, #88]	; (8001aa4 <VADC0_G0_2_IRQHandler+0x11c>)
 8001a4c:	781b      	ldrb	r3, [r3, #0]
 8001a4e:	2b00      	cmp	r3, #0
 8001a50:	d01c      	beq.n	8001a8c <VADC0_G0_2_IRQHandler+0x104>
		{
			compute_speed(); // Compute motor speed and position
 8001a52:	f000 f88d 	bl	8001b70 <compute_speed>

			// Reference Generator function and timer
			if (STATUS_0_DISABLED != ref_gen_status)
 8001a56:	4b18      	ldr	r3, [pc, #96]	; (8001ab8 <VADC0_G0_2_IRQHandler+0x130>)
 8001a58:	781b      	ldrb	r3, [r3, #0]
 8001a5a:	2b00      	cmp	r3, #0
 8001a5c:	d006      	beq.n	8001a6c <VADC0_G0_2_IRQHandler+0xe4>
			{
				interrupt_counter_ref_gen++;
 8001a5e:	4b17      	ldr	r3, [pc, #92]	; (8001abc <VADC0_G0_2_IRQHandler+0x134>)
 8001a60:	681b      	ldr	r3, [r3, #0]
 8001a62:	3301      	adds	r3, #1
 8001a64:	4a15      	ldr	r2, [pc, #84]	; (8001abc <VADC0_G0_2_IRQHandler+0x134>)
 8001a66:	6013      	str	r3, [r2, #0]
				reference_generator();
 8001a68:	f001 fe40 	bl	80036ec <reference_generator>
			}

			// Slow loop regulators
			if (loop_control & POS_REF_LOOP_MSK)
 8001a6c:	4b0f      	ldr	r3, [pc, #60]	; (8001aac <VADC0_G0_2_IRQHandler+0x124>)
 8001a6e:	781b      	ldrb	r3, [r3, #0]
 8001a70:	f003 0304 	and.w	r3, r3, #4
 8001a74:	2b00      	cmp	r3, #0
 8001a76:	d001      	beq.n	8001a7c <VADC0_G0_2_IRQHandler+0xf4>
			{
				pid_regulator_pos();
 8001a78:	f000 fae2 	bl	8002040 <pid_regulator_pos>
			}
			if (loop_control & SPD_REF_LOOP_MSK)
 8001a7c:	4b0b      	ldr	r3, [pc, #44]	; (8001aac <VADC0_G0_2_IRQHandler+0x124>)
 8001a7e:	781b      	ldrb	r3, [r3, #0]
 8001a80:	f003 0302 	and.w	r3, r3, #2
 8001a84:	2b00      	cmp	r3, #0
 8001a86:	d001      	beq.n	8001a8c <VADC0_G0_2_IRQHandler+0x104>
			{
				pi_regulator_speed();
 8001a88:	f000 fa28 	bl	8001edc <pi_regulator_speed>
			}
		}

		interrupt_counter_slow_loop = 0;
 8001a8c:	4b02      	ldr	r3, [pc, #8]	; (8001a98 <VADC0_G0_2_IRQHandler+0x110>)
 8001a8e:	2200      	movs	r2, #0
 8001a90:	801a      	strh	r2, [r3, #0]
	}
}
 8001a92:	3708      	adds	r7, #8
 8001a94:	46bd      	mov	sp, r7
 8001a96:	bd80      	pop	{r7, pc}
 8001a98:	1ffe882c 	.word	0x1ffe882c
 8001a9c:	1ffe882e 	.word	0x1ffe882e
 8001aa0:	1ffe8830 	.word	0x1ffe8830
 8001aa4:	1fff0675 	.word	0x1fff0675
 8001aa8:	1ffe8808 	.word	0x1ffe8808
 8001aac:	1fff0674 	.word	0x1fff0674
 8001ab0:	1fff07e4 	.word	0x1fff07e4
 8001ab4:	1fff07d4 	.word	0x1fff07d4
 8001ab8:	1fff0640 	.word	0x1fff0640
 8001abc:	1fff063c 	.word	0x1fff063c

08001ac0 <CCU81_0_IRQHandler>:

/*
 * Interrupt with low priority every 0.2ms
 */
void CCU81_0_IRQHandler(void)
{
 8001ac0:	b480      	push	{r7}
 8001ac2:	af00      	add	r7, sp, #0
	// interrupt_counter_timer++;
}
 8001ac4:	46bd      	mov	sp, r7
 8001ac6:	f85d 7b04 	ldr.w	r7, [sp], #4
 8001aca:	4770      	bx	lr

08001acc <infinite_loop>:
#include "state_machine.h"
#include "current_protection.h"
#include "pi_regulator.h"

void infinite_loop(void)
{
 8001acc:	b580      	push	{r7, lr}
 8001ace:	af00      	add	r7, sp, #0
	state_machine();
 8001ad0:	f001 fecc 	bl	800386c <state_machine>
}
 8001ad4:	bd80      	pop	{r7, pc}
 8001ad6:	bf00      	nop

08001ad8 <main>:

int main(void)
{
 8001ad8:	b580      	push	{r7, lr}
 8001ada:	af00      	add	r7, sp, #0
	interrupt_vadc_init();	// Interrupts generated by the VADC - sets up the CCU80 - CC83
 8001adc:	f7ff fa0a 	bl	8000ef4 <interrupt_vadc_init>
	pwm_init();				// PWM & clock initialization - CC80/81/82
 8001ae0:	f7ff fc82 	bl	80013e8 <pwm_init>
	encoder_init();			// Encoder initialization
 8001ae4:	f7fe fe26 	bl	8000734 <encoder_init>
	adc_init();				// VADC initialization
 8001ae8:	f7fe ffee 	bl	8000ac8 <adc_init>
	ProbeScope_Init(10000); // Initialize Oscilloscope for Micrium - imported
 8001aec:	f242 7010 	movw	r0, #10000	; 0x2710
 8001af0:	f000 fde4 	bl	80026bc <ProbeScope_Init>
 8001af4:	b662      	cpsie	i
	//	encoder_interrupt_init();	// Interrupt generated by Encoder
	__enable_irq();				// built in interrupt enable function
	pi_init();					// initialize PID data
 8001af6:	f000 fd4d 	bl	8002594 <pi_init>
	motor_data_init(1000, 100); // initialize motor_data for transforms
 8001afa:	f44f 707a 	mov.w	r0, #1000	; 0x3e8
 8001afe:	2164      	movs	r1, #100	; 0x64
 8001b00:	f002 f822 	bl	8003b48 <motor_data_init>
	//	init_io();

	while (1U)
	{
		/* Infinite loop */
		infinite_loop();
 8001b04:	f7ff ffe2 	bl	8001acc <infinite_loop>
	}
 8001b08:	e7fc      	b.n	8001b04 <main+0x2c>
 8001b0a:	bf00      	nop

08001b0c <init_position>:
 * B High -> wait -> A High 0 -> wait
 * Reset: Theta | Position | Timers_old
 * Disable PWM output
 */
void init_position(void) // 
{
 8001b0c:	b580      	push	{r7, lr}
 8001b0e:	af00      	add	r7, sp, #0
	motion_on();		   // Enable PWM pins
 8001b10:	f7ff febe 	bl	8001890 <motion_on>
	pwm_update(0, 1000);   // Apply voltage on B Phase
 8001b14:	2000      	movs	r0, #0
 8001b16:	f44f 717a 	mov.w	r1, #1000	; 0x3e8
 8001b1a:	f7ff fdf7 	bl	800170c <pwm_update>
	delay_t(SECOND_1 / 2); // Wait 0.5s
 8001b1e:	f241 3088 	movw	r0, #5000	; 0x1388
 8001b22:	f001 fffb 	bl	8003b1c <delay_t>

	pwm_update(1000, 0);   // Apply voltage on A Phase
 8001b26:	f44f 707a 	mov.w	r0, #1000	; 0x3e8
 8001b2a:	2100      	movs	r1, #0
 8001b2c:	f7ff fdee 	bl	800170c <pwm_update>
	delay_t(SECOND_1 / 2); // Wait 0.5s
 8001b30:	f241 3088 	movw	r0, #5000	; 0x1388
 8001b34:	f001 fff2 	bl	8003b1c <delay_t>

	theta_fast = 0;
 8001b38:	4b08      	ldr	r3, [pc, #32]	; (8001b5c <init_position+0x50>)
 8001b3a:	f04f 0200 	mov.w	r2, #0
 8001b3e:	601a      	str	r2, [r3, #0]
	mechanical_position_fast = 0;
 8001b40:	4b07      	ldr	r3, [pc, #28]	; (8001b60 <init_position+0x54>)
 8001b42:	2200      	movs	r2, #0
 8001b44:	601a      	str	r2, [r3, #0]
	timer_value_old_fast = CCU40_CC40->TIMER;
 8001b46:	4b07      	ldr	r3, [pc, #28]	; (8001b64 <init_position+0x58>)
 8001b48:	6f1b      	ldr	r3, [r3, #112]	; 0x70
 8001b4a:	b29a      	uxth	r2, r3
 8001b4c:	4b06      	ldr	r3, [pc, #24]	; (8001b68 <init_position+0x5c>)
 8001b4e:	801a      	strh	r2, [r3, #0]
	timer_value_old_slow = CCU40_CC40->TIMER;
 8001b50:	4b04      	ldr	r3, [pc, #16]	; (8001b64 <init_position+0x58>)
 8001b52:	6f1b      	ldr	r3, [r3, #112]	; 0x70
 8001b54:	b29a      	uxth	r2, r3
 8001b56:	4b05      	ldr	r3, [pc, #20]	; (8001b6c <init_position+0x60>)
 8001b58:	801a      	strh	r2, [r3, #0]
}
 8001b5a:	bd80      	pop	{r7, pc}
 8001b5c:	1fff0680 	.word	0x1fff0680
 8001b60:	1fff0678 	.word	0x1fff0678
 8001b64:	4000c100 	.word	0x4000c100
 8001b68:	1fff068e 	.word	0x1fff068e
 8001b6c:	1ffe883a 	.word	0x1ffe883a

08001b70 <compute_speed>:
/*
 * Compute current speed
 * Slow loop
 */
void compute_speed(void)
{
 8001b70:	b480      	push	{r7}
 8001b72:	af00      	add	r7, sp, #0
	timer_value_slow = CCU40_CC40->TIMER;
 8001b74:	4b26      	ldr	r3, [pc, #152]	; (8001c10 <compute_speed+0xa0>)
 8001b76:	6f1b      	ldr	r3, [r3, #112]	; 0x70
 8001b78:	b29a      	uxth	r2, r3
 8001b7a:	4b26      	ldr	r3, [pc, #152]	; (8001c14 <compute_speed+0xa4>)
 8001b7c:	801a      	strh	r2, [r3, #0]
//	motor_spd = timer_value_old_slow - timer_value_slow;

	if (timer_value_slow >= timer_value_old_slow)
 8001b7e:	4b25      	ldr	r3, [pc, #148]	; (8001c14 <compute_speed+0xa4>)
 8001b80:	881a      	ldrh	r2, [r3, #0]
 8001b82:	4b25      	ldr	r3, [pc, #148]	; (8001c18 <compute_speed+0xa8>)
 8001b84:	881b      	ldrh	r3, [r3, #0]
 8001b86:	429a      	cmp	r2, r3
 8001b88:	d31b      	bcc.n	8001bc2 <compute_speed+0x52>
	{
		timer_diff = timer_value_slow - timer_value_old_slow;
 8001b8a:	4b22      	ldr	r3, [pc, #136]	; (8001c14 <compute_speed+0xa4>)
 8001b8c:	881a      	ldrh	r2, [r3, #0]
 8001b8e:	4b22      	ldr	r3, [pc, #136]	; (8001c18 <compute_speed+0xa8>)
 8001b90:	881b      	ldrh	r3, [r3, #0]
 8001b92:	1ad3      	subs	r3, r2, r3
 8001b94:	b29a      	uxth	r2, r3
 8001b96:	4b21      	ldr	r3, [pc, #132]	; (8001c1c <compute_speed+0xac>)
 8001b98:	801a      	strh	r2, [r3, #0]
		if (timer_diff > (UINT16_MAX / 2))
 8001b9a:	4b20      	ldr	r3, [pc, #128]	; (8001c1c <compute_speed+0xac>)
 8001b9c:	881b      	ldrh	r3, [r3, #0]
 8001b9e:	b29b      	uxth	r3, r3
 8001ba0:	b21b      	sxth	r3, r3
 8001ba2:	2b00      	cmp	r3, #0
 8001ba4:	da06      	bge.n	8001bb4 <compute_speed+0x44>
		{
			motor_spd = (int16_t)(-((UINT16_MAX - timer_diff) + 1));
 8001ba6:	4b1d      	ldr	r3, [pc, #116]	; (8001c1c <compute_speed+0xac>)
 8001ba8:	881b      	ldrh	r3, [r3, #0]
 8001baa:	b29b      	uxth	r3, r3
 8001bac:	b21b      	sxth	r3, r3
 8001bae:	4a1c      	ldr	r2, [pc, #112]	; (8001c20 <compute_speed+0xb0>)
 8001bb0:	6013      	str	r3, [r2, #0]
 8001bb2:	e025      	b.n	8001c00 <compute_speed+0x90>
		}
		else
		{
			motor_spd = (int16_t)timer_diff;
 8001bb4:	4b19      	ldr	r3, [pc, #100]	; (8001c1c <compute_speed+0xac>)
 8001bb6:	881b      	ldrh	r3, [r3, #0]
 8001bb8:	b29b      	uxth	r3, r3
 8001bba:	b21b      	sxth	r3, r3
 8001bbc:	4a18      	ldr	r2, [pc, #96]	; (8001c20 <compute_speed+0xb0>)
 8001bbe:	6013      	str	r3, [r2, #0]
 8001bc0:	e01e      	b.n	8001c00 <compute_speed+0x90>
		}
	}
	else
	{
		timer_diff = timer_value_old_slow - timer_value_slow;
 8001bc2:	4b15      	ldr	r3, [pc, #84]	; (8001c18 <compute_speed+0xa8>)
 8001bc4:	881a      	ldrh	r2, [r3, #0]
 8001bc6:	4b13      	ldr	r3, [pc, #76]	; (8001c14 <compute_speed+0xa4>)
 8001bc8:	881b      	ldrh	r3, [r3, #0]
 8001bca:	1ad3      	subs	r3, r2, r3
 8001bcc:	b29a      	uxth	r2, r3
 8001bce:	4b13      	ldr	r3, [pc, #76]	; (8001c1c <compute_speed+0xac>)
 8001bd0:	801a      	strh	r2, [r3, #0]
		if (timer_diff > (UINT16_MAX / 2))
 8001bd2:	4b12      	ldr	r3, [pc, #72]	; (8001c1c <compute_speed+0xac>)
 8001bd4:	881b      	ldrh	r3, [r3, #0]
 8001bd6:	b29b      	uxth	r3, r3
 8001bd8:	b21b      	sxth	r3, r3
 8001bda:	2b00      	cmp	r3, #0
 8001bdc:	da08      	bge.n	8001bf0 <compute_speed+0x80>
		{
			motor_spd = (int16_t)((UINT16_MAX - timer_diff) + 1);
 8001bde:	4b0f      	ldr	r3, [pc, #60]	; (8001c1c <compute_speed+0xac>)
 8001be0:	881b      	ldrh	r3, [r3, #0]
 8001be2:	425b      	negs	r3, r3
 8001be4:	b29b      	uxth	r3, r3
 8001be6:	b29b      	uxth	r3, r3
 8001be8:	b21b      	sxth	r3, r3
 8001bea:	4a0d      	ldr	r2, [pc, #52]	; (8001c20 <compute_speed+0xb0>)
 8001bec:	6013      	str	r3, [r2, #0]
 8001bee:	e007      	b.n	8001c00 <compute_speed+0x90>
		}
		else
		{
			motor_spd = (int16_t)(-timer_diff);
 8001bf0:	4b0a      	ldr	r3, [pc, #40]	; (8001c1c <compute_speed+0xac>)
 8001bf2:	881b      	ldrh	r3, [r3, #0]
 8001bf4:	425b      	negs	r3, r3
 8001bf6:	b29b      	uxth	r3, r3
 8001bf8:	b29b      	uxth	r3, r3
 8001bfa:	b21b      	sxth	r3, r3
 8001bfc:	4a08      	ldr	r2, [pc, #32]	; (8001c20 <compute_speed+0xb0>)
 8001bfe:	6013      	str	r3, [r2, #0]
		}
	}

	timer_value_old_slow = timer_value_slow;
 8001c00:	4b04      	ldr	r3, [pc, #16]	; (8001c14 <compute_speed+0xa4>)
 8001c02:	881a      	ldrh	r2, [r3, #0]
 8001c04:	4b04      	ldr	r3, [pc, #16]	; (8001c18 <compute_speed+0xa8>)
 8001c06:	801a      	strh	r2, [r3, #0]
}
 8001c08:	46bd      	mov	sp, r7
 8001c0a:	f85d 7b04 	ldr.w	r7, [sp], #4
 8001c0e:	4770      	bx	lr
 8001c10:	4000c100 	.word	0x4000c100
 8001c14:	1ffe8838 	.word	0x1ffe8838
 8001c18:	1ffe883a 	.word	0x1ffe883a
 8001c1c:	1fff06ce 	.word	0x1fff06ce
 8001c20:	1ffe8834 	.word	0x1ffe8834

08001c24 <pi_regulator_i_q>:
	PI regulator for Iq
	Input: i_q
	Output u_q_ref
*/
void pi_regulator_i_q(void) 
{
 8001c24:	b480      	push	{r7}
 8001c26:	af00      	add	r7, sp, #0
	current_q.error = i_q_ref - i_q;
 8001c28:	4b51      	ldr	r3, [pc, #324]	; (8001d70 <pi_regulator_i_q+0x14c>)
 8001c2a:	ed93 7a00 	vldr	s14, [r3]
 8001c2e:	4b51      	ldr	r3, [pc, #324]	; (8001d74 <pi_regulator_i_q+0x150>)
 8001c30:	edd3 7a00 	vldr	s15, [r3]
 8001c34:	ee77 7a67 	vsub.f32	s15, s14, s15
 8001c38:	4b4f      	ldr	r3, [pc, #316]	; (8001d78 <pi_regulator_i_q+0x154>)
 8001c3a:	edc3 7a03 	vstr	s15, [r3, #12]

	// Proportional part computation
	current_q.p_part = current_q.error * current_q.kp;
 8001c3e:	4b4e      	ldr	r3, [pc, #312]	; (8001d78 <pi_regulator_i_q+0x154>)
 8001c40:	ed93 7a03 	vldr	s14, [r3, #12]
 8001c44:	4b4c      	ldr	r3, [pc, #304]	; (8001d78 <pi_regulator_i_q+0x154>)
 8001c46:	edd3 7a00 	vldr	s15, [r3]
 8001c4a:	ee67 7a27 	vmul.f32	s15, s14, s15
 8001c4e:	4b4a      	ldr	r3, [pc, #296]	; (8001d78 <pi_regulator_i_q+0x154>)
 8001c50:	edc3 7a05 	vstr	s15, [r3, #20]
	if (current_q.p_part > current_q.sat_out)
 8001c54:	4b48      	ldr	r3, [pc, #288]	; (8001d78 <pi_regulator_i_q+0x154>)
 8001c56:	ed93 7a05 	vldr	s14, [r3, #20]
 8001c5a:	4b47      	ldr	r3, [pc, #284]	; (8001d78 <pi_regulator_i_q+0x154>)
 8001c5c:	edd3 7a08 	vldr	s15, [r3, #32]
 8001c60:	eeb4 7ae7 	vcmpe.f32	s14, s15
 8001c64:	eef1 fa10 	vmrs	APSR_nzcv, fpscr
 8001c68:	dd04      	ble.n	8001c74 <pi_regulator_i_q+0x50>
	{
		current_q.p_part = current_q.sat_out;
 8001c6a:	4b43      	ldr	r3, [pc, #268]	; (8001d78 <pi_regulator_i_q+0x154>)
 8001c6c:	6a1b      	ldr	r3, [r3, #32]
 8001c6e:	4a42      	ldr	r2, [pc, #264]	; (8001d78 <pi_regulator_i_q+0x154>)
 8001c70:	6153      	str	r3, [r2, #20]
 8001c72:	e014      	b.n	8001c9e <pi_regulator_i_q+0x7a>
	}
	else if (current_q.p_part < -current_q.sat_out)
 8001c74:	4b40      	ldr	r3, [pc, #256]	; (8001d78 <pi_regulator_i_q+0x154>)
 8001c76:	ed93 7a05 	vldr	s14, [r3, #20]
 8001c7a:	4b3f      	ldr	r3, [pc, #252]	; (8001d78 <pi_regulator_i_q+0x154>)
 8001c7c:	edd3 7a08 	vldr	s15, [r3, #32]
 8001c80:	eef1 7a67 	vneg.f32	s15, s15
 8001c84:	eeb4 7ae7 	vcmpe.f32	s14, s15
 8001c88:	eef1 fa10 	vmrs	APSR_nzcv, fpscr
 8001c8c:	d507      	bpl.n	8001c9e <pi_regulator_i_q+0x7a>
	{
		current_q.p_part = -current_q.sat_out;
 8001c8e:	4b3a      	ldr	r3, [pc, #232]	; (8001d78 <pi_regulator_i_q+0x154>)
 8001c90:	edd3 7a08 	vldr	s15, [r3, #32]
 8001c94:	eef1 7a67 	vneg.f32	s15, s15
 8001c98:	4b37      	ldr	r3, [pc, #220]	; (8001d78 <pi_regulator_i_q+0x154>)
 8001c9a:	edc3 7a05 	vstr	s15, [r3, #20]
	}

	// Integral part computation
	current_q.i_part += current_q.error * current_q.ki;
 8001c9e:	4b36      	ldr	r3, [pc, #216]	; (8001d78 <pi_regulator_i_q+0x154>)
 8001ca0:	ed93 7a06 	vldr	s14, [r3, #24]
 8001ca4:	4b34      	ldr	r3, [pc, #208]	; (8001d78 <pi_regulator_i_q+0x154>)
 8001ca6:	edd3 6a03 	vldr	s13, [r3, #12]
 8001caa:	4b33      	ldr	r3, [pc, #204]	; (8001d78 <pi_regulator_i_q+0x154>)
 8001cac:	edd3 7a01 	vldr	s15, [r3, #4]
 8001cb0:	ee66 7aa7 	vmul.f32	s15, s13, s15
 8001cb4:	ee77 7a27 	vadd.f32	s15, s14, s15
 8001cb8:	4b2f      	ldr	r3, [pc, #188]	; (8001d78 <pi_regulator_i_q+0x154>)
 8001cba:	edc3 7a06 	vstr	s15, [r3, #24]
	if (current_q.i_part > current_q.sat_i_part)
 8001cbe:	4b2e      	ldr	r3, [pc, #184]	; (8001d78 <pi_regulator_i_q+0x154>)
 8001cc0:	ed93 7a06 	vldr	s14, [r3, #24]
 8001cc4:	4b2c      	ldr	r3, [pc, #176]	; (8001d78 <pi_regulator_i_q+0x154>)
 8001cc6:	edd3 7a09 	vldr	s15, [r3, #36]	; 0x24
 8001cca:	eeb4 7ae7 	vcmpe.f32	s14, s15
 8001cce:	eef1 fa10 	vmrs	APSR_nzcv, fpscr
 8001cd2:	dd04      	ble.n	8001cde <pi_regulator_i_q+0xba>
	{
		current_q.i_part = current_q.sat_i_part;
 8001cd4:	4b28      	ldr	r3, [pc, #160]	; (8001d78 <pi_regulator_i_q+0x154>)
 8001cd6:	6a5b      	ldr	r3, [r3, #36]	; 0x24
 8001cd8:	4a27      	ldr	r2, [pc, #156]	; (8001d78 <pi_regulator_i_q+0x154>)
 8001cda:	6193      	str	r3, [r2, #24]
 8001cdc:	e014      	b.n	8001d08 <pi_regulator_i_q+0xe4>
	}
	else if (current_q.i_part < -current_q.sat_i_part)
 8001cde:	4b26      	ldr	r3, [pc, #152]	; (8001d78 <pi_regulator_i_q+0x154>)
 8001ce0:	ed93 7a06 	vldr	s14, [r3, #24]
 8001ce4:	4b24      	ldr	r3, [pc, #144]	; (8001d78 <pi_regulator_i_q+0x154>)
 8001ce6:	edd3 7a09 	vldr	s15, [r3, #36]	; 0x24
 8001cea:	eef1 7a67 	vneg.f32	s15, s15
 8001cee:	eeb4 7ae7 	vcmpe.f32	s14, s15
 8001cf2:	eef1 fa10 	vmrs	APSR_nzcv, fpscr
 8001cf6:	d507      	bpl.n	8001d08 <pi_regulator_i_q+0xe4>
	{
		current_q.i_part = -current_q.sat_i_part;
 8001cf8:	4b1f      	ldr	r3, [pc, #124]	; (8001d78 <pi_regulator_i_q+0x154>)
 8001cfa:	edd3 7a09 	vldr	s15, [r3, #36]	; 0x24
 8001cfe:	eef1 7a67 	vneg.f32	s15, s15
 8001d02:	4b1d      	ldr	r3, [pc, #116]	; (8001d78 <pi_regulator_i_q+0x154>)
 8001d04:	edc3 7a06 	vstr	s15, [r3, #24]
	}

	// Output
	u_q_ref = current_q.p_part + current_q.i_part;
 8001d08:	4b1b      	ldr	r3, [pc, #108]	; (8001d78 <pi_regulator_i_q+0x154>)
 8001d0a:	ed93 7a05 	vldr	s14, [r3, #20]
 8001d0e:	4b1a      	ldr	r3, [pc, #104]	; (8001d78 <pi_regulator_i_q+0x154>)
 8001d10:	edd3 7a06 	vldr	s15, [r3, #24]
 8001d14:	ee77 7a27 	vadd.f32	s15, s14, s15
 8001d18:	4b18      	ldr	r3, [pc, #96]	; (8001d7c <pi_regulator_i_q+0x158>)
 8001d1a:	edc3 7a00 	vstr	s15, [r3]

	if (u_q_ref > current_q.sat_out)
 8001d1e:	4b16      	ldr	r3, [pc, #88]	; (8001d78 <pi_regulator_i_q+0x154>)
 8001d20:	ed93 7a08 	vldr	s14, [r3, #32]
 8001d24:	4b15      	ldr	r3, [pc, #84]	; (8001d7c <pi_regulator_i_q+0x158>)
 8001d26:	edd3 7a00 	vldr	s15, [r3]
 8001d2a:	eeb4 7ae7 	vcmpe.f32	s14, s15
 8001d2e:	eef1 fa10 	vmrs	APSR_nzcv, fpscr
 8001d32:	d504      	bpl.n	8001d3e <pi_regulator_i_q+0x11a>
	{
		u_q_ref = current_q.sat_out;
 8001d34:	4b10      	ldr	r3, [pc, #64]	; (8001d78 <pi_regulator_i_q+0x154>)
 8001d36:	6a1b      	ldr	r3, [r3, #32]
 8001d38:	4a10      	ldr	r2, [pc, #64]	; (8001d7c <pi_regulator_i_q+0x158>)
 8001d3a:	6013      	str	r3, [r2, #0]
 8001d3c:	e014      	b.n	8001d68 <pi_regulator_i_q+0x144>
	}
	else if (u_q_ref < -current_q.sat_out)
 8001d3e:	4b0e      	ldr	r3, [pc, #56]	; (8001d78 <pi_regulator_i_q+0x154>)
 8001d40:	edd3 7a08 	vldr	s15, [r3, #32]
 8001d44:	eeb1 7a67 	vneg.f32	s14, s15
 8001d48:	4b0c      	ldr	r3, [pc, #48]	; (8001d7c <pi_regulator_i_q+0x158>)
 8001d4a:	edd3 7a00 	vldr	s15, [r3]
 8001d4e:	eeb4 7ae7 	vcmpe.f32	s14, s15
 8001d52:	eef1 fa10 	vmrs	APSR_nzcv, fpscr
 8001d56:	dd07      	ble.n	8001d68 <pi_regulator_i_q+0x144>
	{
		u_q_ref = -current_q.sat_out;
 8001d58:	4b07      	ldr	r3, [pc, #28]	; (8001d78 <pi_regulator_i_q+0x154>)
 8001d5a:	edd3 7a08 	vldr	s15, [r3, #32]
 8001d5e:	eef1 7a67 	vneg.f32	s15, s15
 8001d62:	4b06      	ldr	r3, [pc, #24]	; (8001d7c <pi_regulator_i_q+0x158>)
 8001d64:	edc3 7a00 	vstr	s15, [r3]
	}
}
 8001d68:	46bd      	mov	sp, r7
 8001d6a:	f85d 7b04 	ldr.w	r7, [sp], #4
 8001d6e:	4770      	bx	lr
 8001d70:	1ffe883c 	.word	0x1ffe883c
 8001d74:	1fff07dc 	.word	0x1fff07dc
 8001d78:	1fff0770 	.word	0x1fff0770
 8001d7c:	1ffe884c 	.word	0x1ffe884c

08001d80 <pi_regulator_i_d>:
	PI regulator for Id
	Input: i_d
	Output u_d_ref
*/
void pi_regulator_i_d(void) 
{
 8001d80:	b480      	push	{r7}
 8001d82:	af00      	add	r7, sp, #0
	current_d.error = i_d_ref - i_d;
 8001d84:	4b51      	ldr	r3, [pc, #324]	; (8001ecc <pi_regulator_i_d+0x14c>)
 8001d86:	ed93 7a00 	vldr	s14, [r3]
 8001d8a:	4b51      	ldr	r3, [pc, #324]	; (8001ed0 <pi_regulator_i_d+0x150>)
 8001d8c:	edd3 7a00 	vldr	s15, [r3]
 8001d90:	ee77 7a67 	vsub.f32	s15, s14, s15
 8001d94:	4b4f      	ldr	r3, [pc, #316]	; (8001ed4 <pi_regulator_i_d+0x154>)
 8001d96:	edc3 7a03 	vstr	s15, [r3, #12]

	// Proportional part computation
	current_d.p_part = current_d.error * current_d.kp;
 8001d9a:	4b4e      	ldr	r3, [pc, #312]	; (8001ed4 <pi_regulator_i_d+0x154>)
 8001d9c:	ed93 7a03 	vldr	s14, [r3, #12]
 8001da0:	4b4c      	ldr	r3, [pc, #304]	; (8001ed4 <pi_regulator_i_d+0x154>)
 8001da2:	edd3 7a00 	vldr	s15, [r3]
 8001da6:	ee67 7a27 	vmul.f32	s15, s14, s15
 8001daa:	4b4a      	ldr	r3, [pc, #296]	; (8001ed4 <pi_regulator_i_d+0x154>)
 8001dac:	edc3 7a05 	vstr	s15, [r3, #20]
	if (current_d.p_part > current_d.sat_out)
 8001db0:	4b48      	ldr	r3, [pc, #288]	; (8001ed4 <pi_regulator_i_d+0x154>)
 8001db2:	ed93 7a05 	vldr	s14, [r3, #20]
 8001db6:	4b47      	ldr	r3, [pc, #284]	; (8001ed4 <pi_regulator_i_d+0x154>)
 8001db8:	edd3 7a08 	vldr	s15, [r3, #32]
 8001dbc:	eeb4 7ae7 	vcmpe.f32	s14, s15
 8001dc0:	eef1 fa10 	vmrs	APSR_nzcv, fpscr
 8001dc4:	dd04      	ble.n	8001dd0 <pi_regulator_i_d+0x50>
	{
		current_d.p_part = current_d.sat_out;
 8001dc6:	4b43      	ldr	r3, [pc, #268]	; (8001ed4 <pi_regulator_i_d+0x154>)
 8001dc8:	6a1b      	ldr	r3, [r3, #32]
 8001dca:	4a42      	ldr	r2, [pc, #264]	; (8001ed4 <pi_regulator_i_d+0x154>)
 8001dcc:	6153      	str	r3, [r2, #20]
 8001dce:	e014      	b.n	8001dfa <pi_regulator_i_d+0x7a>
	}
	else if (current_d.p_part < -current_d.sat_out)
 8001dd0:	4b40      	ldr	r3, [pc, #256]	; (8001ed4 <pi_regulator_i_d+0x154>)
 8001dd2:	ed93 7a05 	vldr	s14, [r3, #20]
 8001dd6:	4b3f      	ldr	r3, [pc, #252]	; (8001ed4 <pi_regulator_i_d+0x154>)
 8001dd8:	edd3 7a08 	vldr	s15, [r3, #32]
 8001ddc:	eef1 7a67 	vneg.f32	s15, s15
 8001de0:	eeb4 7ae7 	vcmpe.f32	s14, s15
 8001de4:	eef1 fa10 	vmrs	APSR_nzcv, fpscr
 8001de8:	d507      	bpl.n	8001dfa <pi_regulator_i_d+0x7a>
	{
		current_d.p_part = -current_d.sat_out;
 8001dea:	4b3a      	ldr	r3, [pc, #232]	; (8001ed4 <pi_regulator_i_d+0x154>)
 8001dec:	edd3 7a08 	vldr	s15, [r3, #32]
 8001df0:	eef1 7a67 	vneg.f32	s15, s15
 8001df4:	4b37      	ldr	r3, [pc, #220]	; (8001ed4 <pi_regulator_i_d+0x154>)
 8001df6:	edc3 7a05 	vstr	s15, [r3, #20]
	}

	// Integral part computation
	current_d.i_part += current_d.error * current_d.ki;
 8001dfa:	4b36      	ldr	r3, [pc, #216]	; (8001ed4 <pi_regulator_i_d+0x154>)
 8001dfc:	ed93 7a06 	vldr	s14, [r3, #24]
 8001e00:	4b34      	ldr	r3, [pc, #208]	; (8001ed4 <pi_regulator_i_d+0x154>)
 8001e02:	edd3 6a03 	vldr	s13, [r3, #12]
 8001e06:	4b33      	ldr	r3, [pc, #204]	; (8001ed4 <pi_regulator_i_d+0x154>)
 8001e08:	edd3 7a01 	vldr	s15, [r3, #4]
 8001e0c:	ee66 7aa7 	vmul.f32	s15, s13, s15
 8001e10:	ee77 7a27 	vadd.f32	s15, s14, s15
 8001e14:	4b2f      	ldr	r3, [pc, #188]	; (8001ed4 <pi_regulator_i_d+0x154>)
 8001e16:	edc3 7a06 	vstr	s15, [r3, #24]
	if (current_d.i_part > current_d.sat_i_part)
 8001e1a:	4b2e      	ldr	r3, [pc, #184]	; (8001ed4 <pi_regulator_i_d+0x154>)
 8001e1c:	ed93 7a06 	vldr	s14, [r3, #24]
 8001e20:	4b2c      	ldr	r3, [pc, #176]	; (8001ed4 <pi_regulator_i_d+0x154>)
 8001e22:	edd3 7a09 	vldr	s15, [r3, #36]	; 0x24
 8001e26:	eeb4 7ae7 	vcmpe.f32	s14, s15
 8001e2a:	eef1 fa10 	vmrs	APSR_nzcv, fpscr
 8001e2e:	dd04      	ble.n	8001e3a <pi_regulator_i_d+0xba>
	{
		current_d.i_part = current_d.sat_i_part;
 8001e30:	4b28      	ldr	r3, [pc, #160]	; (8001ed4 <pi_regulator_i_d+0x154>)
 8001e32:	6a5b      	ldr	r3, [r3, #36]	; 0x24
 8001e34:	4a27      	ldr	r2, [pc, #156]	; (8001ed4 <pi_regulator_i_d+0x154>)
 8001e36:	6193      	str	r3, [r2, #24]
 8001e38:	e014      	b.n	8001e64 <pi_regulator_i_d+0xe4>
	}
	else if (current_d.i_part < -current_d.sat_i_part)
 8001e3a:	4b26      	ldr	r3, [pc, #152]	; (8001ed4 <pi_regulator_i_d+0x154>)
 8001e3c:	ed93 7a06 	vldr	s14, [r3, #24]
 8001e40:	4b24      	ldr	r3, [pc, #144]	; (8001ed4 <pi_regulator_i_d+0x154>)
 8001e42:	edd3 7a09 	vldr	s15, [r3, #36]	; 0x24
 8001e46:	eef1 7a67 	vneg.f32	s15, s15
 8001e4a:	eeb4 7ae7 	vcmpe.f32	s14, s15
 8001e4e:	eef1 fa10 	vmrs	APSR_nzcv, fpscr
 8001e52:	d507      	bpl.n	8001e64 <pi_regulator_i_d+0xe4>
	{
		current_d.i_part = -current_d.sat_i_part;
 8001e54:	4b1f      	ldr	r3, [pc, #124]	; (8001ed4 <pi_regulator_i_d+0x154>)
 8001e56:	edd3 7a09 	vldr	s15, [r3, #36]	; 0x24
 8001e5a:	eef1 7a67 	vneg.f32	s15, s15
 8001e5e:	4b1d      	ldr	r3, [pc, #116]	; (8001ed4 <pi_regulator_i_d+0x154>)
 8001e60:	edc3 7a06 	vstr	s15, [r3, #24]
	}

	// Output
	u_d_ref = current_d.p_part + current_d.i_part;
 8001e64:	4b1b      	ldr	r3, [pc, #108]	; (8001ed4 <pi_regulator_i_d+0x154>)
 8001e66:	ed93 7a05 	vldr	s14, [r3, #20]
 8001e6a:	4b1a      	ldr	r3, [pc, #104]	; (8001ed4 <pi_regulator_i_d+0x154>)
 8001e6c:	edd3 7a06 	vldr	s15, [r3, #24]
 8001e70:	ee77 7a27 	vadd.f32	s15, s14, s15
 8001e74:	4b18      	ldr	r3, [pc, #96]	; (8001ed8 <pi_regulator_i_d+0x158>)
 8001e76:	edc3 7a00 	vstr	s15, [r3]

	if (u_d_ref > current_d.sat_out)
 8001e7a:	4b16      	ldr	r3, [pc, #88]	; (8001ed4 <pi_regulator_i_d+0x154>)
 8001e7c:	ed93 7a08 	vldr	s14, [r3, #32]
 8001e80:	4b15      	ldr	r3, [pc, #84]	; (8001ed8 <pi_regulator_i_d+0x158>)
 8001e82:	edd3 7a00 	vldr	s15, [r3]
 8001e86:	eeb4 7ae7 	vcmpe.f32	s14, s15
 8001e8a:	eef1 fa10 	vmrs	APSR_nzcv, fpscr
 8001e8e:	d504      	bpl.n	8001e9a <pi_regulator_i_d+0x11a>
	{
		u_d_ref = current_d.sat_out;
 8001e90:	4b10      	ldr	r3, [pc, #64]	; (8001ed4 <pi_regulator_i_d+0x154>)
 8001e92:	6a1b      	ldr	r3, [r3, #32]
 8001e94:	4a10      	ldr	r2, [pc, #64]	; (8001ed8 <pi_regulator_i_d+0x158>)
 8001e96:	6013      	str	r3, [r2, #0]
 8001e98:	e014      	b.n	8001ec4 <pi_regulator_i_d+0x144>
	}
	else if (u_d_ref < -current_d.sat_out)
 8001e9a:	4b0e      	ldr	r3, [pc, #56]	; (8001ed4 <pi_regulator_i_d+0x154>)
 8001e9c:	edd3 7a08 	vldr	s15, [r3, #32]
 8001ea0:	eeb1 7a67 	vneg.f32	s14, s15
 8001ea4:	4b0c      	ldr	r3, [pc, #48]	; (8001ed8 <pi_regulator_i_d+0x158>)
 8001ea6:	edd3 7a00 	vldr	s15, [r3]
 8001eaa:	eeb4 7ae7 	vcmpe.f32	s14, s15
 8001eae:	eef1 fa10 	vmrs	APSR_nzcv, fpscr
 8001eb2:	dd07      	ble.n	8001ec4 <pi_regulator_i_d+0x144>
	{
		u_d_ref = -current_d.sat_out;
 8001eb4:	4b07      	ldr	r3, [pc, #28]	; (8001ed4 <pi_regulator_i_d+0x154>)
 8001eb6:	edd3 7a08 	vldr	s15, [r3, #32]
 8001eba:	eef1 7a67 	vneg.f32	s15, s15
 8001ebe:	4b06      	ldr	r3, [pc, #24]	; (8001ed8 <pi_regulator_i_d+0x158>)
 8001ec0:	edc3 7a00 	vstr	s15, [r3]
	}
}
 8001ec4:	46bd      	mov	sp, r7
 8001ec6:	f85d 7b04 	ldr.w	r7, [sp], #4
 8001eca:	4770      	bx	lr
 8001ecc:	1ffe8840 	.word	0x1ffe8840
 8001ed0:	1fff07e0 	.word	0x1fff07e0
 8001ed4:	1fff0720 	.word	0x1fff0720
 8001ed8:	1ffe8850 	.word	0x1ffe8850

08001edc <pi_regulator_speed>:
	PI regulator for Spd
	Input: motor_spd
	Output i_q_ref
*/
void pi_regulator_speed(void) 
{
 8001edc:	b480      	push	{r7}
 8001ede:	af00      	add	r7, sp, #0
	speed.error = spd_ref - motor_spd;
 8001ee0:	4b53      	ldr	r3, [pc, #332]	; (8002030 <pi_regulator_speed+0x154>)
 8001ee2:	ed93 7a00 	vldr	s14, [r3]
 8001ee6:	4b53      	ldr	r3, [pc, #332]	; (8002034 <pi_regulator_speed+0x158>)
 8001ee8:	681b      	ldr	r3, [r3, #0]
 8001eea:	ee07 3a90 	vmov	s15, r3
 8001eee:	eef8 7ae7 	vcvt.f32.s32	s15, s15
 8001ef2:	ee77 7a67 	vsub.f32	s15, s14, s15
 8001ef6:	4b50      	ldr	r3, [pc, #320]	; (8002038 <pi_regulator_speed+0x15c>)
 8001ef8:	edc3 7a03 	vstr	s15, [r3, #12]

	// Proportional part computation
	speed.p_part = speed.error * speed.kp;
 8001efc:	4b4e      	ldr	r3, [pc, #312]	; (8002038 <pi_regulator_speed+0x15c>)
 8001efe:	ed93 7a03 	vldr	s14, [r3, #12]
 8001f02:	4b4d      	ldr	r3, [pc, #308]	; (8002038 <pi_regulator_speed+0x15c>)
 8001f04:	edd3 7a00 	vldr	s15, [r3]
 8001f08:	ee67 7a27 	vmul.f32	s15, s14, s15
 8001f0c:	4b4a      	ldr	r3, [pc, #296]	; (8002038 <pi_regulator_speed+0x15c>)
 8001f0e:	edc3 7a05 	vstr	s15, [r3, #20]
	if (speed.p_part > speed.sat_out)
 8001f12:	4b49      	ldr	r3, [pc, #292]	; (8002038 <pi_regulator_speed+0x15c>)
 8001f14:	ed93 7a05 	vldr	s14, [r3, #20]
 8001f18:	4b47      	ldr	r3, [pc, #284]	; (8002038 <pi_regulator_speed+0x15c>)
 8001f1a:	edd3 7a08 	vldr	s15, [r3, #32]
 8001f1e:	eeb4 7ae7 	vcmpe.f32	s14, s15
 8001f22:	eef1 fa10 	vmrs	APSR_nzcv, fpscr
 8001f26:	dd04      	ble.n	8001f32 <pi_regulator_speed+0x56>
	{
		speed.p_part = speed.sat_out;
 8001f28:	4b43      	ldr	r3, [pc, #268]	; (8002038 <pi_regulator_speed+0x15c>)
 8001f2a:	6a1b      	ldr	r3, [r3, #32]
 8001f2c:	4a42      	ldr	r2, [pc, #264]	; (8002038 <pi_regulator_speed+0x15c>)
 8001f2e:	6153      	str	r3, [r2, #20]
 8001f30:	e014      	b.n	8001f5c <pi_regulator_speed+0x80>
	}
	else if (speed.p_part < -speed.sat_out)
 8001f32:	4b41      	ldr	r3, [pc, #260]	; (8002038 <pi_regulator_speed+0x15c>)
 8001f34:	ed93 7a05 	vldr	s14, [r3, #20]
 8001f38:	4b3f      	ldr	r3, [pc, #252]	; (8002038 <pi_regulator_speed+0x15c>)
 8001f3a:	edd3 7a08 	vldr	s15, [r3, #32]
 8001f3e:	eef1 7a67 	vneg.f32	s15, s15
 8001f42:	eeb4 7ae7 	vcmpe.f32	s14, s15
 8001f46:	eef1 fa10 	vmrs	APSR_nzcv, fpscr
 8001f4a:	d507      	bpl.n	8001f5c <pi_regulator_speed+0x80>
	{
		speed.p_part = -speed.sat_out;
 8001f4c:	4b3a      	ldr	r3, [pc, #232]	; (8002038 <pi_regulator_speed+0x15c>)
 8001f4e:	edd3 7a08 	vldr	s15, [r3, #32]
 8001f52:	eef1 7a67 	vneg.f32	s15, s15
 8001f56:	4b38      	ldr	r3, [pc, #224]	; (8002038 <pi_regulator_speed+0x15c>)
 8001f58:	edc3 7a05 	vstr	s15, [r3, #20]
	}

	// Integral part computation
	speed.i_part += speed.error * speed.ki;
 8001f5c:	4b36      	ldr	r3, [pc, #216]	; (8002038 <pi_regulator_speed+0x15c>)
 8001f5e:	ed93 7a06 	vldr	s14, [r3, #24]
 8001f62:	4b35      	ldr	r3, [pc, #212]	; (8002038 <pi_regulator_speed+0x15c>)
 8001f64:	edd3 6a03 	vldr	s13, [r3, #12]
 8001f68:	4b33      	ldr	r3, [pc, #204]	; (8002038 <pi_regulator_speed+0x15c>)
 8001f6a:	edd3 7a01 	vldr	s15, [r3, #4]
 8001f6e:	ee66 7aa7 	vmul.f32	s15, s13, s15
 8001f72:	ee77 7a27 	vadd.f32	s15, s14, s15
 8001f76:	4b30      	ldr	r3, [pc, #192]	; (8002038 <pi_regulator_speed+0x15c>)
 8001f78:	edc3 7a06 	vstr	s15, [r3, #24]
	if (speed.i_part > speed.sat_i_part)
 8001f7c:	4b2e      	ldr	r3, [pc, #184]	; (8002038 <pi_regulator_speed+0x15c>)
 8001f7e:	ed93 7a06 	vldr	s14, [r3, #24]
 8001f82:	4b2d      	ldr	r3, [pc, #180]	; (8002038 <pi_regulator_speed+0x15c>)
 8001f84:	edd3 7a09 	vldr	s15, [r3, #36]	; 0x24
 8001f88:	eeb4 7ae7 	vcmpe.f32	s14, s15
 8001f8c:	eef1 fa10 	vmrs	APSR_nzcv, fpscr
 8001f90:	dd04      	ble.n	8001f9c <pi_regulator_speed+0xc0>
	{
		speed.i_part = speed.sat_i_part;
 8001f92:	4b29      	ldr	r3, [pc, #164]	; (8002038 <pi_regulator_speed+0x15c>)
 8001f94:	6a5b      	ldr	r3, [r3, #36]	; 0x24
 8001f96:	4a28      	ldr	r2, [pc, #160]	; (8002038 <pi_regulator_speed+0x15c>)
 8001f98:	6193      	str	r3, [r2, #24]
 8001f9a:	e014      	b.n	8001fc6 <pi_regulator_speed+0xea>
	}
	else if (speed.i_part < -speed.sat_i_part)
 8001f9c:	4b26      	ldr	r3, [pc, #152]	; (8002038 <pi_regulator_speed+0x15c>)
 8001f9e:	ed93 7a06 	vldr	s14, [r3, #24]
 8001fa2:	4b25      	ldr	r3, [pc, #148]	; (8002038 <pi_regulator_speed+0x15c>)
 8001fa4:	edd3 7a09 	vldr	s15, [r3, #36]	; 0x24
 8001fa8:	eef1 7a67 	vneg.f32	s15, s15
 8001fac:	eeb4 7ae7 	vcmpe.f32	s14, s15
 8001fb0:	eef1 fa10 	vmrs	APSR_nzcv, fpscr
 8001fb4:	d507      	bpl.n	8001fc6 <pi_regulator_speed+0xea>
	{
		speed.i_part = -speed.sat_i_part;
 8001fb6:	4b20      	ldr	r3, [pc, #128]	; (8002038 <pi_regulator_speed+0x15c>)
 8001fb8:	edd3 7a09 	vldr	s15, [r3, #36]	; 0x24
 8001fbc:	eef1 7a67 	vneg.f32	s15, s15
 8001fc0:	4b1d      	ldr	r3, [pc, #116]	; (8002038 <pi_regulator_speed+0x15c>)
 8001fc2:	edc3 7a06 	vstr	s15, [r3, #24]
	}

	// Output
	i_q_ref = speed.p_part + speed.i_part;
 8001fc6:	4b1c      	ldr	r3, [pc, #112]	; (8002038 <pi_regulator_speed+0x15c>)
 8001fc8:	ed93 7a05 	vldr	s14, [r3, #20]
 8001fcc:	4b1a      	ldr	r3, [pc, #104]	; (8002038 <pi_regulator_speed+0x15c>)
 8001fce:	edd3 7a06 	vldr	s15, [r3, #24]
 8001fd2:	ee77 7a27 	vadd.f32	s15, s14, s15
 8001fd6:	4b19      	ldr	r3, [pc, #100]	; (800203c <pi_regulator_speed+0x160>)
 8001fd8:	edc3 7a00 	vstr	s15, [r3]

	if (i_q_ref > speed.sat_out)
 8001fdc:	4b16      	ldr	r3, [pc, #88]	; (8002038 <pi_regulator_speed+0x15c>)
 8001fde:	ed93 7a08 	vldr	s14, [r3, #32]
 8001fe2:	4b16      	ldr	r3, [pc, #88]	; (800203c <pi_regulator_speed+0x160>)
 8001fe4:	edd3 7a00 	vldr	s15, [r3]
 8001fe8:	eeb4 7ae7 	vcmpe.f32	s14, s15
 8001fec:	eef1 fa10 	vmrs	APSR_nzcv, fpscr
 8001ff0:	d504      	bpl.n	8001ffc <pi_regulator_speed+0x120>
	{
		i_q_ref = speed.sat_out;
 8001ff2:	4b11      	ldr	r3, [pc, #68]	; (8002038 <pi_regulator_speed+0x15c>)
 8001ff4:	6a1b      	ldr	r3, [r3, #32]
 8001ff6:	4a11      	ldr	r2, [pc, #68]	; (800203c <pi_regulator_speed+0x160>)
 8001ff8:	6013      	str	r3, [r2, #0]
 8001ffa:	e014      	b.n	8002026 <pi_regulator_speed+0x14a>
	}
	else if (i_q_ref < -speed.sat_out)
 8001ffc:	4b0e      	ldr	r3, [pc, #56]	; (8002038 <pi_regulator_speed+0x15c>)
 8001ffe:	edd3 7a08 	vldr	s15, [r3, #32]
 8002002:	eeb1 7a67 	vneg.f32	s14, s15
 8002006:	4b0d      	ldr	r3, [pc, #52]	; (800203c <pi_regulator_speed+0x160>)
 8002008:	edd3 7a00 	vldr	s15, [r3]
 800200c:	eeb4 7ae7 	vcmpe.f32	s14, s15
 8002010:	eef1 fa10 	vmrs	APSR_nzcv, fpscr
 8002014:	dd07      	ble.n	8002026 <pi_regulator_speed+0x14a>
	{
		i_q_ref = -speed.sat_out;
 8002016:	4b08      	ldr	r3, [pc, #32]	; (8002038 <pi_regulator_speed+0x15c>)
 8002018:	edd3 7a08 	vldr	s15, [r3, #32]
 800201c:	eef1 7a67 	vneg.f32	s15, s15
 8002020:	4b06      	ldr	r3, [pc, #24]	; (800203c <pi_regulator_speed+0x160>)
 8002022:	edc3 7a00 	vstr	s15, [r3]
	}
}
 8002026:	46bd      	mov	sp, r7
 8002028:	f85d 7b04 	ldr.w	r7, [sp], #4
 800202c:	4770      	bx	lr
 800202e:	bf00      	nop
 8002030:	1ffe8848 	.word	0x1ffe8848
 8002034:	1ffe8834 	.word	0x1ffe8834
 8002038:	1fff0748 	.word	0x1fff0748
 800203c:	1ffe883c 	.word	0x1ffe883c

08002040 <pid_regulator_pos>:
	PID regulator for Pos
	Input: mechanical_position_fast
	Output: spd_ref | i_q_ref
*/
void pid_regulator_pos(void) // mechanical_position_fast -> spd_ref
{
 8002040:	b480      	push	{r7}
 8002042:	b083      	sub	sp, #12
 8002044:	af00      	add	r7, sp, #0
	int i = !(LOOP_SPD_ENABLE);
 8002046:	4bbd      	ldr	r3, [pc, #756]	; (800233c <pid_regulator_pos+0x2fc>)
 8002048:	881b      	ldrh	r3, [r3, #0]
 800204a:	f403 7300 	and.w	r3, r3, #512	; 0x200
 800204e:	2b00      	cmp	r3, #0
 8002050:	bf0c      	ite	eq
 8002052:	2301      	moveq	r3, #1
 8002054:	2300      	movne	r3, #0
 8002056:	b2db      	uxtb	r3, r3
 8002058:	607b      	str	r3, [r7, #4]

	position[i].error = pos_ref - mechanical_position_fast;
 800205a:	4bb9      	ldr	r3, [pc, #740]	; (8002340 <pid_regulator_pos+0x300>)
 800205c:	ed93 7a00 	vldr	s14, [r3]
 8002060:	4bb8      	ldr	r3, [pc, #736]	; (8002344 <pid_regulator_pos+0x304>)
 8002062:	681b      	ldr	r3, [r3, #0]
 8002064:	ee07 3a90 	vmov	s15, r3
 8002068:	eef8 7ae7 	vcvt.f32.s32	s15, s15
 800206c:	ee77 7a67 	vsub.f32	s15, s14, s15
 8002070:	49b5      	ldr	r1, [pc, #724]	; (8002348 <pid_regulator_pos+0x308>)
 8002072:	687a      	ldr	r2, [r7, #4]
 8002074:	4613      	mov	r3, r2
 8002076:	009b      	lsls	r3, r3, #2
 8002078:	4413      	add	r3, r2
 800207a:	00db      	lsls	r3, r3, #3
 800207c:	440b      	add	r3, r1
 800207e:	3308      	adds	r3, #8
 8002080:	edc3 7a01 	vstr	s15, [r3, #4]

	// Proportional part computation
	position[i].p_part = position[i].error * position[i].kp;
 8002084:	49b0      	ldr	r1, [pc, #704]	; (8002348 <pid_regulator_pos+0x308>)
 8002086:	687a      	ldr	r2, [r7, #4]
 8002088:	4613      	mov	r3, r2
 800208a:	009b      	lsls	r3, r3, #2
 800208c:	4413      	add	r3, r2
 800208e:	00db      	lsls	r3, r3, #3
 8002090:	440b      	add	r3, r1
 8002092:	3308      	adds	r3, #8
 8002094:	ed93 7a01 	vldr	s14, [r3, #4]
 8002098:	49ab      	ldr	r1, [pc, #684]	; (8002348 <pid_regulator_pos+0x308>)
 800209a:	687a      	ldr	r2, [r7, #4]
 800209c:	4613      	mov	r3, r2
 800209e:	009b      	lsls	r3, r3, #2
 80020a0:	4413      	add	r3, r2
 80020a2:	00db      	lsls	r3, r3, #3
 80020a4:	440b      	add	r3, r1
 80020a6:	edd3 7a00 	vldr	s15, [r3]
 80020aa:	ee67 7a27 	vmul.f32	s15, s14, s15
 80020ae:	49a6      	ldr	r1, [pc, #664]	; (8002348 <pid_regulator_pos+0x308>)
 80020b0:	687a      	ldr	r2, [r7, #4]
 80020b2:	4613      	mov	r3, r2
 80020b4:	009b      	lsls	r3, r3, #2
 80020b6:	4413      	add	r3, r2
 80020b8:	00db      	lsls	r3, r3, #3
 80020ba:	440b      	add	r3, r1
 80020bc:	3310      	adds	r3, #16
 80020be:	edc3 7a01 	vstr	s15, [r3, #4]
	if (position[i].p_part > position[i].sat_out)
 80020c2:	49a1      	ldr	r1, [pc, #644]	; (8002348 <pid_regulator_pos+0x308>)
 80020c4:	687a      	ldr	r2, [r7, #4]
 80020c6:	4613      	mov	r3, r2
 80020c8:	009b      	lsls	r3, r3, #2
 80020ca:	4413      	add	r3, r2
 80020cc:	00db      	lsls	r3, r3, #3
 80020ce:	440b      	add	r3, r1
 80020d0:	3310      	adds	r3, #16
 80020d2:	ed93 7a01 	vldr	s14, [r3, #4]
 80020d6:	499c      	ldr	r1, [pc, #624]	; (8002348 <pid_regulator_pos+0x308>)
 80020d8:	687a      	ldr	r2, [r7, #4]
 80020da:	4613      	mov	r3, r2
 80020dc:	009b      	lsls	r3, r3, #2
 80020de:	4413      	add	r3, r2
 80020e0:	00db      	lsls	r3, r3, #3
 80020e2:	440b      	add	r3, r1
 80020e4:	3320      	adds	r3, #32
 80020e6:	edd3 7a00 	vldr	s15, [r3]
 80020ea:	eeb4 7ae7 	vcmpe.f32	s14, s15
 80020ee:	eef1 fa10 	vmrs	APSR_nzcv, fpscr
 80020f2:	dd12      	ble.n	800211a <pid_regulator_pos+0xda>
	{
		position[i].p_part = position[i].sat_out;
 80020f4:	4994      	ldr	r1, [pc, #592]	; (8002348 <pid_regulator_pos+0x308>)
 80020f6:	687a      	ldr	r2, [r7, #4]
 80020f8:	4613      	mov	r3, r2
 80020fa:	009b      	lsls	r3, r3, #2
 80020fc:	4413      	add	r3, r2
 80020fe:	00db      	lsls	r3, r3, #3
 8002100:	440b      	add	r3, r1
 8002102:	3320      	adds	r3, #32
 8002104:	6819      	ldr	r1, [r3, #0]
 8002106:	4890      	ldr	r0, [pc, #576]	; (8002348 <pid_regulator_pos+0x308>)
 8002108:	687a      	ldr	r2, [r7, #4]
 800210a:	4613      	mov	r3, r2
 800210c:	009b      	lsls	r3, r3, #2
 800210e:	4413      	add	r3, r2
 8002110:	00db      	lsls	r3, r3, #3
 8002112:	4403      	add	r3, r0
 8002114:	3310      	adds	r3, #16
 8002116:	6059      	str	r1, [r3, #4]
 8002118:	e030      	b.n	800217c <pid_regulator_pos+0x13c>
	}
	else if (position[i].p_part < -position[i].sat_out)
 800211a:	498b      	ldr	r1, [pc, #556]	; (8002348 <pid_regulator_pos+0x308>)
 800211c:	687a      	ldr	r2, [r7, #4]
 800211e:	4613      	mov	r3, r2
 8002120:	009b      	lsls	r3, r3, #2
 8002122:	4413      	add	r3, r2
 8002124:	00db      	lsls	r3, r3, #3
 8002126:	440b      	add	r3, r1
 8002128:	3310      	adds	r3, #16
 800212a:	ed93 7a01 	vldr	s14, [r3, #4]
 800212e:	4986      	ldr	r1, [pc, #536]	; (8002348 <pid_regulator_pos+0x308>)
 8002130:	687a      	ldr	r2, [r7, #4]
 8002132:	4613      	mov	r3, r2
 8002134:	009b      	lsls	r3, r3, #2
 8002136:	4413      	add	r3, r2
 8002138:	00db      	lsls	r3, r3, #3
 800213a:	440b      	add	r3, r1
 800213c:	3320      	adds	r3, #32
 800213e:	edd3 7a00 	vldr	s15, [r3]
 8002142:	eef1 7a67 	vneg.f32	s15, s15
 8002146:	eeb4 7ae7 	vcmpe.f32	s14, s15
 800214a:	eef1 fa10 	vmrs	APSR_nzcv, fpscr
 800214e:	d515      	bpl.n	800217c <pid_regulator_pos+0x13c>
	{
		position[i].p_part = -position[i].sat_out;
 8002150:	497d      	ldr	r1, [pc, #500]	; (8002348 <pid_regulator_pos+0x308>)
 8002152:	687a      	ldr	r2, [r7, #4]
 8002154:	4613      	mov	r3, r2
 8002156:	009b      	lsls	r3, r3, #2
 8002158:	4413      	add	r3, r2
 800215a:	00db      	lsls	r3, r3, #3
 800215c:	440b      	add	r3, r1
 800215e:	3320      	adds	r3, #32
 8002160:	edd3 7a00 	vldr	s15, [r3]
 8002164:	eef1 7a67 	vneg.f32	s15, s15
 8002168:	4977      	ldr	r1, [pc, #476]	; (8002348 <pid_regulator_pos+0x308>)
 800216a:	687a      	ldr	r2, [r7, #4]
 800216c:	4613      	mov	r3, r2
 800216e:	009b      	lsls	r3, r3, #2
 8002170:	4413      	add	r3, r2
 8002172:	00db      	lsls	r3, r3, #3
 8002174:	440b      	add	r3, r1
 8002176:	3310      	adds	r3, #16
 8002178:	edc3 7a01 	vstr	s15, [r3, #4]
	}

	// Integral part computation
	position[i].i_part += position[i].error * position[i].ki;
 800217c:	4972      	ldr	r1, [pc, #456]	; (8002348 <pid_regulator_pos+0x308>)
 800217e:	687a      	ldr	r2, [r7, #4]
 8002180:	4613      	mov	r3, r2
 8002182:	009b      	lsls	r3, r3, #2
 8002184:	4413      	add	r3, r2
 8002186:	00db      	lsls	r3, r3, #3
 8002188:	440b      	add	r3, r1
 800218a:	3318      	adds	r3, #24
 800218c:	ed93 7a00 	vldr	s14, [r3]
 8002190:	496d      	ldr	r1, [pc, #436]	; (8002348 <pid_regulator_pos+0x308>)
 8002192:	687a      	ldr	r2, [r7, #4]
 8002194:	4613      	mov	r3, r2
 8002196:	009b      	lsls	r3, r3, #2
 8002198:	4413      	add	r3, r2
 800219a:	00db      	lsls	r3, r3, #3
 800219c:	440b      	add	r3, r1
 800219e:	3308      	adds	r3, #8
 80021a0:	edd3 6a01 	vldr	s13, [r3, #4]
 80021a4:	4968      	ldr	r1, [pc, #416]	; (8002348 <pid_regulator_pos+0x308>)
 80021a6:	687a      	ldr	r2, [r7, #4]
 80021a8:	4613      	mov	r3, r2
 80021aa:	009b      	lsls	r3, r3, #2
 80021ac:	4413      	add	r3, r2
 80021ae:	00db      	lsls	r3, r3, #3
 80021b0:	440b      	add	r3, r1
 80021b2:	edd3 7a01 	vldr	s15, [r3, #4]
 80021b6:	ee66 7aa7 	vmul.f32	s15, s13, s15
 80021ba:	ee77 7a27 	vadd.f32	s15, s14, s15
 80021be:	4962      	ldr	r1, [pc, #392]	; (8002348 <pid_regulator_pos+0x308>)
 80021c0:	687a      	ldr	r2, [r7, #4]
 80021c2:	4613      	mov	r3, r2
 80021c4:	009b      	lsls	r3, r3, #2
 80021c6:	4413      	add	r3, r2
 80021c8:	00db      	lsls	r3, r3, #3
 80021ca:	440b      	add	r3, r1
 80021cc:	3318      	adds	r3, #24
 80021ce:	edc3 7a00 	vstr	s15, [r3]
	if (position[i].i_part > position[i].sat_i_part)
 80021d2:	495d      	ldr	r1, [pc, #372]	; (8002348 <pid_regulator_pos+0x308>)
 80021d4:	687a      	ldr	r2, [r7, #4]
 80021d6:	4613      	mov	r3, r2
 80021d8:	009b      	lsls	r3, r3, #2
 80021da:	4413      	add	r3, r2
 80021dc:	00db      	lsls	r3, r3, #3
 80021de:	440b      	add	r3, r1
 80021e0:	3318      	adds	r3, #24
 80021e2:	ed93 7a00 	vldr	s14, [r3]
 80021e6:	4958      	ldr	r1, [pc, #352]	; (8002348 <pid_regulator_pos+0x308>)
 80021e8:	687a      	ldr	r2, [r7, #4]
 80021ea:	4613      	mov	r3, r2
 80021ec:	009b      	lsls	r3, r3, #2
 80021ee:	4413      	add	r3, r2
 80021f0:	00db      	lsls	r3, r3, #3
 80021f2:	440b      	add	r3, r1
 80021f4:	3320      	adds	r3, #32
 80021f6:	edd3 7a01 	vldr	s15, [r3, #4]
 80021fa:	eeb4 7ae7 	vcmpe.f32	s14, s15
 80021fe:	eef1 fa10 	vmrs	APSR_nzcv, fpscr
 8002202:	dd12      	ble.n	800222a <pid_regulator_pos+0x1ea>
	{
		position[i].i_part = position[i].sat_i_part;
 8002204:	4950      	ldr	r1, [pc, #320]	; (8002348 <pid_regulator_pos+0x308>)
 8002206:	687a      	ldr	r2, [r7, #4]
 8002208:	4613      	mov	r3, r2
 800220a:	009b      	lsls	r3, r3, #2
 800220c:	4413      	add	r3, r2
 800220e:	00db      	lsls	r3, r3, #3
 8002210:	440b      	add	r3, r1
 8002212:	3320      	adds	r3, #32
 8002214:	6859      	ldr	r1, [r3, #4]
 8002216:	484c      	ldr	r0, [pc, #304]	; (8002348 <pid_regulator_pos+0x308>)
 8002218:	687a      	ldr	r2, [r7, #4]
 800221a:	4613      	mov	r3, r2
 800221c:	009b      	lsls	r3, r3, #2
 800221e:	4413      	add	r3, r2
 8002220:	00db      	lsls	r3, r3, #3
 8002222:	4403      	add	r3, r0
 8002224:	3318      	adds	r3, #24
 8002226:	6019      	str	r1, [r3, #0]
 8002228:	e030      	b.n	800228c <pid_regulator_pos+0x24c>
	}
	else if (position[i].i_part < -position[i].sat_i_part)
 800222a:	4947      	ldr	r1, [pc, #284]	; (8002348 <pid_regulator_pos+0x308>)
 800222c:	687a      	ldr	r2, [r7, #4]
 800222e:	4613      	mov	r3, r2
 8002230:	009b      	lsls	r3, r3, #2
 8002232:	4413      	add	r3, r2
 8002234:	00db      	lsls	r3, r3, #3
 8002236:	440b      	add	r3, r1
 8002238:	3318      	adds	r3, #24
 800223a:	ed93 7a00 	vldr	s14, [r3]
 800223e:	4942      	ldr	r1, [pc, #264]	; (8002348 <pid_regulator_pos+0x308>)
 8002240:	687a      	ldr	r2, [r7, #4]
 8002242:	4613      	mov	r3, r2
 8002244:	009b      	lsls	r3, r3, #2
 8002246:	4413      	add	r3, r2
 8002248:	00db      	lsls	r3, r3, #3
 800224a:	440b      	add	r3, r1
 800224c:	3320      	adds	r3, #32
 800224e:	edd3 7a01 	vldr	s15, [r3, #4]
 8002252:	eef1 7a67 	vneg.f32	s15, s15
 8002256:	eeb4 7ae7 	vcmpe.f32	s14, s15
 800225a:	eef1 fa10 	vmrs	APSR_nzcv, fpscr
 800225e:	d515      	bpl.n	800228c <pid_regulator_pos+0x24c>
	{
		position[i].i_part = -position[i].sat_i_part;
 8002260:	4939      	ldr	r1, [pc, #228]	; (8002348 <pid_regulator_pos+0x308>)
 8002262:	687a      	ldr	r2, [r7, #4]
 8002264:	4613      	mov	r3, r2
 8002266:	009b      	lsls	r3, r3, #2
 8002268:	4413      	add	r3, r2
 800226a:	00db      	lsls	r3, r3, #3
 800226c:	440b      	add	r3, r1
 800226e:	3320      	adds	r3, #32
 8002270:	edd3 7a01 	vldr	s15, [r3, #4]
 8002274:	eef1 7a67 	vneg.f32	s15, s15
 8002278:	4933      	ldr	r1, [pc, #204]	; (8002348 <pid_regulator_pos+0x308>)
 800227a:	687a      	ldr	r2, [r7, #4]
 800227c:	4613      	mov	r3, r2
 800227e:	009b      	lsls	r3, r3, #2
 8002280:	4413      	add	r3, r2
 8002282:	00db      	lsls	r3, r3, #3
 8002284:	440b      	add	r3, r1
 8002286:	3318      	adds	r3, #24
 8002288:	edc3 7a00 	vstr	s15, [r3]
	}

	// Derived part computation	
	position[i].d_part = (position[i].error - position[i].error_old) * position[i].kd;
 800228c:	492e      	ldr	r1, [pc, #184]	; (8002348 <pid_regulator_pos+0x308>)
 800228e:	687a      	ldr	r2, [r7, #4]
 8002290:	4613      	mov	r3, r2
 8002292:	009b      	lsls	r3, r3, #2
 8002294:	4413      	add	r3, r2
 8002296:	00db      	lsls	r3, r3, #3
 8002298:	440b      	add	r3, r1
 800229a:	3308      	adds	r3, #8
 800229c:	ed93 7a01 	vldr	s14, [r3, #4]
 80022a0:	4929      	ldr	r1, [pc, #164]	; (8002348 <pid_regulator_pos+0x308>)
 80022a2:	687a      	ldr	r2, [r7, #4]
 80022a4:	4613      	mov	r3, r2
 80022a6:	009b      	lsls	r3, r3, #2
 80022a8:	4413      	add	r3, r2
 80022aa:	00db      	lsls	r3, r3, #3
 80022ac:	440b      	add	r3, r1
 80022ae:	3310      	adds	r3, #16
 80022b0:	edd3 7a00 	vldr	s15, [r3]
 80022b4:	ee37 7a67 	vsub.f32	s14, s14, s15
 80022b8:	4923      	ldr	r1, [pc, #140]	; (8002348 <pid_regulator_pos+0x308>)
 80022ba:	687a      	ldr	r2, [r7, #4]
 80022bc:	4613      	mov	r3, r2
 80022be:	009b      	lsls	r3, r3, #2
 80022c0:	4413      	add	r3, r2
 80022c2:	00db      	lsls	r3, r3, #3
 80022c4:	440b      	add	r3, r1
 80022c6:	3308      	adds	r3, #8
 80022c8:	edd3 7a00 	vldr	s15, [r3]
 80022cc:	ee67 7a27 	vmul.f32	s15, s14, s15
 80022d0:	491d      	ldr	r1, [pc, #116]	; (8002348 <pid_regulator_pos+0x308>)
 80022d2:	687a      	ldr	r2, [r7, #4]
 80022d4:	4613      	mov	r3, r2
 80022d6:	009b      	lsls	r3, r3, #2
 80022d8:	4413      	add	r3, r2
 80022da:	00db      	lsls	r3, r3, #3
 80022dc:	440b      	add	r3, r1
 80022de:	3318      	adds	r3, #24
 80022e0:	edc3 7a01 	vstr	s15, [r3, #4]
	if (position[i].d_part > position[i].sat_out)
 80022e4:	4918      	ldr	r1, [pc, #96]	; (8002348 <pid_regulator_pos+0x308>)
 80022e6:	687a      	ldr	r2, [r7, #4]
 80022e8:	4613      	mov	r3, r2
 80022ea:	009b      	lsls	r3, r3, #2
 80022ec:	4413      	add	r3, r2
 80022ee:	00db      	lsls	r3, r3, #3
 80022f0:	440b      	add	r3, r1
 80022f2:	3318      	adds	r3, #24
 80022f4:	ed93 7a01 	vldr	s14, [r3, #4]
 80022f8:	4913      	ldr	r1, [pc, #76]	; (8002348 <pid_regulator_pos+0x308>)
 80022fa:	687a      	ldr	r2, [r7, #4]
 80022fc:	4613      	mov	r3, r2
 80022fe:	009b      	lsls	r3, r3, #2
 8002300:	4413      	add	r3, r2
 8002302:	00db      	lsls	r3, r3, #3
 8002304:	440b      	add	r3, r1
 8002306:	3320      	adds	r3, #32
 8002308:	edd3 7a00 	vldr	s15, [r3]
 800230c:	eeb4 7ae7 	vcmpe.f32	s14, s15
 8002310:	eef1 fa10 	vmrs	APSR_nzcv, fpscr
 8002314:	dd1a      	ble.n	800234c <pid_regulator_pos+0x30c>
	{
		position[i].d_part = position[i].sat_out;
 8002316:	490c      	ldr	r1, [pc, #48]	; (8002348 <pid_regulator_pos+0x308>)
 8002318:	687a      	ldr	r2, [r7, #4]
 800231a:	4613      	mov	r3, r2
 800231c:	009b      	lsls	r3, r3, #2
 800231e:	4413      	add	r3, r2
 8002320:	00db      	lsls	r3, r3, #3
 8002322:	440b      	add	r3, r1
 8002324:	3320      	adds	r3, #32
 8002326:	6819      	ldr	r1, [r3, #0]
 8002328:	4807      	ldr	r0, [pc, #28]	; (8002348 <pid_regulator_pos+0x308>)
 800232a:	687a      	ldr	r2, [r7, #4]
 800232c:	4613      	mov	r3, r2
 800232e:	009b      	lsls	r3, r3, #2
 8002330:	4413      	add	r3, r2
 8002332:	00db      	lsls	r3, r3, #3
 8002334:	4403      	add	r3, r0
 8002336:	3318      	adds	r3, #24
 8002338:	6059      	str	r1, [r3, #4]
 800233a:	e038      	b.n	80023ae <pid_regulator_pos+0x36e>
 800233c:	1fff0672 	.word	0x1fff0672
 8002340:	1ffe8844 	.word	0x1ffe8844
 8002344:	1fff0678 	.word	0x1fff0678
 8002348:	1fff06d0 	.word	0x1fff06d0
	}
	else if (position[i].d_part < -position[i].sat_out)
 800234c:	498e      	ldr	r1, [pc, #568]	; (8002588 <pid_regulator_pos+0x548>)
 800234e:	687a      	ldr	r2, [r7, #4]
 8002350:	4613      	mov	r3, r2
 8002352:	009b      	lsls	r3, r3, #2
 8002354:	4413      	add	r3, r2
 8002356:	00db      	lsls	r3, r3, #3
 8002358:	440b      	add	r3, r1
 800235a:	3318      	adds	r3, #24
 800235c:	ed93 7a01 	vldr	s14, [r3, #4]
 8002360:	4989      	ldr	r1, [pc, #548]	; (8002588 <pid_regulator_pos+0x548>)
 8002362:	687a      	ldr	r2, [r7, #4]
 8002364:	4613      	mov	r3, r2
 8002366:	009b      	lsls	r3, r3, #2
 8002368:	4413      	add	r3, r2
 800236a:	00db      	lsls	r3, r3, #3
 800236c:	440b      	add	r3, r1
 800236e:	3320      	adds	r3, #32
 8002370:	edd3 7a00 	vldr	s15, [r3]
 8002374:	eef1 7a67 	vneg.f32	s15, s15
 8002378:	eeb4 7ae7 	vcmpe.f32	s14, s15
 800237c:	eef1 fa10 	vmrs	APSR_nzcv, fpscr
 8002380:	d515      	bpl.n	80023ae <pid_regulator_pos+0x36e>
	{
		position[i].d_part = -position[i].sat_out;
 8002382:	4981      	ldr	r1, [pc, #516]	; (8002588 <pid_regulator_pos+0x548>)
 8002384:	687a      	ldr	r2, [r7, #4]
 8002386:	4613      	mov	r3, r2
 8002388:	009b      	lsls	r3, r3, #2
 800238a:	4413      	add	r3, r2
 800238c:	00db      	lsls	r3, r3, #3
 800238e:	440b      	add	r3, r1
 8002390:	3320      	adds	r3, #32
 8002392:	edd3 7a00 	vldr	s15, [r3]
 8002396:	eef1 7a67 	vneg.f32	s15, s15
 800239a:	497b      	ldr	r1, [pc, #492]	; (8002588 <pid_regulator_pos+0x548>)
 800239c:	687a      	ldr	r2, [r7, #4]
 800239e:	4613      	mov	r3, r2
 80023a0:	009b      	lsls	r3, r3, #2
 80023a2:	4413      	add	r3, r2
 80023a4:	00db      	lsls	r3, r3, #3
 80023a6:	440b      	add	r3, r1
 80023a8:	3318      	adds	r3, #24
 80023aa:	edc3 7a01 	vstr	s15, [r3, #4]
	}
	position[i].error_old = position[i].error;
 80023ae:	4976      	ldr	r1, [pc, #472]	; (8002588 <pid_regulator_pos+0x548>)
 80023b0:	687a      	ldr	r2, [r7, #4]
 80023b2:	4613      	mov	r3, r2
 80023b4:	009b      	lsls	r3, r3, #2
 80023b6:	4413      	add	r3, r2
 80023b8:	00db      	lsls	r3, r3, #3
 80023ba:	440b      	add	r3, r1
 80023bc:	3308      	adds	r3, #8
 80023be:	6859      	ldr	r1, [r3, #4]
 80023c0:	4871      	ldr	r0, [pc, #452]	; (8002588 <pid_regulator_pos+0x548>)
 80023c2:	687a      	ldr	r2, [r7, #4]
 80023c4:	4613      	mov	r3, r2
 80023c6:	009b      	lsls	r3, r3, #2
 80023c8:	4413      	add	r3, r2
 80023ca:	00db      	lsls	r3, r3, #3
 80023cc:	4403      	add	r3, r0
 80023ce:	3310      	adds	r3, #16
 80023d0:	6019      	str	r1, [r3, #0]

	// Output SPD or I
	switch (i)
 80023d2:	687b      	ldr	r3, [r7, #4]
 80023d4:	2b00      	cmp	r3, #0
 80023d6:	d002      	beq.n	80023de <pid_regulator_pos+0x39e>
 80023d8:	2b01      	cmp	r3, #1
 80023da:	d068      	beq.n	80024ae <pid_regulator_pos+0x46e>
			i_q_ref = -position[i].sat_out;
		}
		break;

	default:
		break;
 80023dc:	e0cf      	b.n	800257e <pid_regulator_pos+0x53e>

	// Output SPD or I
	switch (i)
	{
	case (SPD_REF):
		spd_ref = position[i].p_part + position[i].i_part + position[i].d_part;
 80023de:	496a      	ldr	r1, [pc, #424]	; (8002588 <pid_regulator_pos+0x548>)
 80023e0:	687a      	ldr	r2, [r7, #4]
 80023e2:	4613      	mov	r3, r2
 80023e4:	009b      	lsls	r3, r3, #2
 80023e6:	4413      	add	r3, r2
 80023e8:	00db      	lsls	r3, r3, #3
 80023ea:	440b      	add	r3, r1
 80023ec:	3310      	adds	r3, #16
 80023ee:	ed93 7a01 	vldr	s14, [r3, #4]
 80023f2:	4965      	ldr	r1, [pc, #404]	; (8002588 <pid_regulator_pos+0x548>)
 80023f4:	687a      	ldr	r2, [r7, #4]
 80023f6:	4613      	mov	r3, r2
 80023f8:	009b      	lsls	r3, r3, #2
 80023fa:	4413      	add	r3, r2
 80023fc:	00db      	lsls	r3, r3, #3
 80023fe:	440b      	add	r3, r1
 8002400:	3318      	adds	r3, #24
 8002402:	edd3 7a00 	vldr	s15, [r3]
 8002406:	ee37 7a27 	vadd.f32	s14, s14, s15
 800240a:	495f      	ldr	r1, [pc, #380]	; (8002588 <pid_regulator_pos+0x548>)
 800240c:	687a      	ldr	r2, [r7, #4]
 800240e:	4613      	mov	r3, r2
 8002410:	009b      	lsls	r3, r3, #2
 8002412:	4413      	add	r3, r2
 8002414:	00db      	lsls	r3, r3, #3
 8002416:	440b      	add	r3, r1
 8002418:	3318      	adds	r3, #24
 800241a:	edd3 7a01 	vldr	s15, [r3, #4]
 800241e:	ee77 7a27 	vadd.f32	s15, s14, s15
 8002422:	4b5a      	ldr	r3, [pc, #360]	; (800258c <pid_regulator_pos+0x54c>)
 8002424:	edc3 7a00 	vstr	s15, [r3]

		if (spd_ref > position[i].sat_out)
 8002428:	4957      	ldr	r1, [pc, #348]	; (8002588 <pid_regulator_pos+0x548>)
 800242a:	687a      	ldr	r2, [r7, #4]
 800242c:	4613      	mov	r3, r2
 800242e:	009b      	lsls	r3, r3, #2
 8002430:	4413      	add	r3, r2
 8002432:	00db      	lsls	r3, r3, #3
 8002434:	440b      	add	r3, r1
 8002436:	3320      	adds	r3, #32
 8002438:	ed93 7a00 	vldr	s14, [r3]
 800243c:	4b53      	ldr	r3, [pc, #332]	; (800258c <pid_regulator_pos+0x54c>)
 800243e:	edd3 7a00 	vldr	s15, [r3]
 8002442:	eeb4 7ae7 	vcmpe.f32	s14, s15
 8002446:	eef1 fa10 	vmrs	APSR_nzcv, fpscr
 800244a:	d50b      	bpl.n	8002464 <pid_regulator_pos+0x424>
		{
			spd_ref = position[i].sat_out;
 800244c:	494e      	ldr	r1, [pc, #312]	; (8002588 <pid_regulator_pos+0x548>)
 800244e:	687a      	ldr	r2, [r7, #4]
 8002450:	4613      	mov	r3, r2
 8002452:	009b      	lsls	r3, r3, #2
 8002454:	4413      	add	r3, r2
 8002456:	00db      	lsls	r3, r3, #3
 8002458:	440b      	add	r3, r1
 800245a:	3320      	adds	r3, #32
 800245c:	681b      	ldr	r3, [r3, #0]
 800245e:	4a4b      	ldr	r2, [pc, #300]	; (800258c <pid_regulator_pos+0x54c>)
 8002460:	6013      	str	r3, [r2, #0]
		}
		else if (spd_ref < -position[i].sat_out)
		{
			spd_ref = -position[i].sat_out;
		}
		break;
 8002462:	e08c      	b.n	800257e <pid_regulator_pos+0x53e>

		if (spd_ref > position[i].sat_out)
		{
			spd_ref = position[i].sat_out;
		}
		else if (spd_ref < -position[i].sat_out)
 8002464:	4948      	ldr	r1, [pc, #288]	; (8002588 <pid_regulator_pos+0x548>)
 8002466:	687a      	ldr	r2, [r7, #4]
 8002468:	4613      	mov	r3, r2
 800246a:	009b      	lsls	r3, r3, #2
 800246c:	4413      	add	r3, r2
 800246e:	00db      	lsls	r3, r3, #3
 8002470:	440b      	add	r3, r1
 8002472:	3320      	adds	r3, #32
 8002474:	edd3 7a00 	vldr	s15, [r3]
 8002478:	eeb1 7a67 	vneg.f32	s14, s15
 800247c:	4b43      	ldr	r3, [pc, #268]	; (800258c <pid_regulator_pos+0x54c>)
 800247e:	edd3 7a00 	vldr	s15, [r3]
 8002482:	eeb4 7ae7 	vcmpe.f32	s14, s15
 8002486:	eef1 fa10 	vmrs	APSR_nzcv, fpscr
 800248a:	dc00      	bgt.n	800248e <pid_regulator_pos+0x44e>
		{
			spd_ref = -position[i].sat_out;
		}
		break;
 800248c:	e077      	b.n	800257e <pid_regulator_pos+0x53e>
		{
			spd_ref = position[i].sat_out;
		}
		else if (spd_ref < -position[i].sat_out)
		{
			spd_ref = -position[i].sat_out;
 800248e:	493e      	ldr	r1, [pc, #248]	; (8002588 <pid_regulator_pos+0x548>)
 8002490:	687a      	ldr	r2, [r7, #4]
 8002492:	4613      	mov	r3, r2
 8002494:	009b      	lsls	r3, r3, #2
 8002496:	4413      	add	r3, r2
 8002498:	00db      	lsls	r3, r3, #3
 800249a:	440b      	add	r3, r1
 800249c:	3320      	adds	r3, #32
 800249e:	edd3 7a00 	vldr	s15, [r3]
 80024a2:	eef1 7a67 	vneg.f32	s15, s15
 80024a6:	4b39      	ldr	r3, [pc, #228]	; (800258c <pid_regulator_pos+0x54c>)
 80024a8:	edc3 7a00 	vstr	s15, [r3]
		}
		break;
 80024ac:	e067      	b.n	800257e <pid_regulator_pos+0x53e>

	case (I_REF):
		i_q_ref = position[i].p_part + position[i].i_part + position[i].d_part;
 80024ae:	4936      	ldr	r1, [pc, #216]	; (8002588 <pid_regulator_pos+0x548>)
 80024b0:	687a      	ldr	r2, [r7, #4]
 80024b2:	4613      	mov	r3, r2
 80024b4:	009b      	lsls	r3, r3, #2
 80024b6:	4413      	add	r3, r2
 80024b8:	00db      	lsls	r3, r3, #3
 80024ba:	440b      	add	r3, r1
 80024bc:	3310      	adds	r3, #16
 80024be:	ed93 7a01 	vldr	s14, [r3, #4]
 80024c2:	4931      	ldr	r1, [pc, #196]	; (8002588 <pid_regulator_pos+0x548>)
 80024c4:	687a      	ldr	r2, [r7, #4]
 80024c6:	4613      	mov	r3, r2
 80024c8:	009b      	lsls	r3, r3, #2
 80024ca:	4413      	add	r3, r2
 80024cc:	00db      	lsls	r3, r3, #3
 80024ce:	440b      	add	r3, r1
 80024d0:	3318      	adds	r3, #24
 80024d2:	edd3 7a00 	vldr	s15, [r3]
 80024d6:	ee37 7a27 	vadd.f32	s14, s14, s15
 80024da:	492b      	ldr	r1, [pc, #172]	; (8002588 <pid_regulator_pos+0x548>)
 80024dc:	687a      	ldr	r2, [r7, #4]
 80024de:	4613      	mov	r3, r2
 80024e0:	009b      	lsls	r3, r3, #2
 80024e2:	4413      	add	r3, r2
 80024e4:	00db      	lsls	r3, r3, #3
 80024e6:	440b      	add	r3, r1
 80024e8:	3318      	adds	r3, #24
 80024ea:	edd3 7a01 	vldr	s15, [r3, #4]
 80024ee:	ee77 7a27 	vadd.f32	s15, s14, s15
 80024f2:	4b27      	ldr	r3, [pc, #156]	; (8002590 <pid_regulator_pos+0x550>)
 80024f4:	edc3 7a00 	vstr	s15, [r3]

		if (i_q_ref > position[i].sat_out)
 80024f8:	4923      	ldr	r1, [pc, #140]	; (8002588 <pid_regulator_pos+0x548>)
 80024fa:	687a      	ldr	r2, [r7, #4]
 80024fc:	4613      	mov	r3, r2
 80024fe:	009b      	lsls	r3, r3, #2
 8002500:	4413      	add	r3, r2
 8002502:	00db      	lsls	r3, r3, #3
 8002504:	440b      	add	r3, r1
 8002506:	3320      	adds	r3, #32
 8002508:	ed93 7a00 	vldr	s14, [r3]
 800250c:	4b20      	ldr	r3, [pc, #128]	; (8002590 <pid_regulator_pos+0x550>)
 800250e:	edd3 7a00 	vldr	s15, [r3]
 8002512:	eeb4 7ae7 	vcmpe.f32	s14, s15
 8002516:	eef1 fa10 	vmrs	APSR_nzcv, fpscr
 800251a:	d50b      	bpl.n	8002534 <pid_regulator_pos+0x4f4>
		{
			i_q_ref = position[i].sat_out;
 800251c:	491a      	ldr	r1, [pc, #104]	; (8002588 <pid_regulator_pos+0x548>)
 800251e:	687a      	ldr	r2, [r7, #4]
 8002520:	4613      	mov	r3, r2
 8002522:	009b      	lsls	r3, r3, #2
 8002524:	4413      	add	r3, r2
 8002526:	00db      	lsls	r3, r3, #3
 8002528:	440b      	add	r3, r1
 800252a:	3320      	adds	r3, #32
 800252c:	681b      	ldr	r3, [r3, #0]
 800252e:	4a18      	ldr	r2, [pc, #96]	; (8002590 <pid_regulator_pos+0x550>)
 8002530:	6013      	str	r3, [r2, #0]
		}
		else if (i_q_ref < -position[i].sat_out)
		{
			i_q_ref = -position[i].sat_out;
		}
		break;
 8002532:	e023      	b.n	800257c <pid_regulator_pos+0x53c>

		if (i_q_ref > position[i].sat_out)
		{
			i_q_ref = position[i].sat_out;
		}
		else if (i_q_ref < -position[i].sat_out)
 8002534:	4914      	ldr	r1, [pc, #80]	; (8002588 <pid_regulator_pos+0x548>)
 8002536:	687a      	ldr	r2, [r7, #4]
 8002538:	4613      	mov	r3, r2
 800253a:	009b      	lsls	r3, r3, #2
 800253c:	4413      	add	r3, r2
 800253e:	00db      	lsls	r3, r3, #3
 8002540:	440b      	add	r3, r1
 8002542:	3320      	adds	r3, #32
 8002544:	edd3 7a00 	vldr	s15, [r3]
 8002548:	eeb1 7a67 	vneg.f32	s14, s15
 800254c:	4b10      	ldr	r3, [pc, #64]	; (8002590 <pid_regulator_pos+0x550>)
 800254e:	edd3 7a00 	vldr	s15, [r3]
 8002552:	eeb4 7ae7 	vcmpe.f32	s14, s15
 8002556:	eef1 fa10 	vmrs	APSR_nzcv, fpscr
 800255a:	dc00      	bgt.n	800255e <pid_regulator_pos+0x51e>
		{
			i_q_ref = -position[i].sat_out;
		}
		break;
 800255c:	e00e      	b.n	800257c <pid_regulator_pos+0x53c>
		{
			i_q_ref = position[i].sat_out;
		}
		else if (i_q_ref < -position[i].sat_out)
		{
			i_q_ref = -position[i].sat_out;
 800255e:	490a      	ldr	r1, [pc, #40]	; (8002588 <pid_regulator_pos+0x548>)
 8002560:	687a      	ldr	r2, [r7, #4]
 8002562:	4613      	mov	r3, r2
 8002564:	009b      	lsls	r3, r3, #2
 8002566:	4413      	add	r3, r2
 8002568:	00db      	lsls	r3, r3, #3
 800256a:	440b      	add	r3, r1
 800256c:	3320      	adds	r3, #32
 800256e:	edd3 7a00 	vldr	s15, [r3]
 8002572:	eef1 7a67 	vneg.f32	s15, s15
 8002576:	4b06      	ldr	r3, [pc, #24]	; (8002590 <pid_regulator_pos+0x550>)
 8002578:	edc3 7a00 	vstr	s15, [r3]
		}
		break;
 800257c:	bf00      	nop

	default:
		break;
	}
}
 800257e:	370c      	adds	r7, #12
 8002580:	46bd      	mov	sp, r7
 8002582:	f85d 7b04 	ldr.w	r7, [sp], #4
 8002586:	4770      	bx	lr
 8002588:	1fff06d0 	.word	0x1fff06d0
 800258c:	1ffe8848 	.word	0x1ffe8848
 8002590:	1ffe883c 	.word	0x1ffe883c

08002594 <pi_init>:
/*
	Refulator data initialization
	TODO: Position to current
*/
void pi_init(void)
{
 8002594:	b480      	push	{r7}
 8002596:	af00      	add	r7, sp, #0
	current_q.kp = 1.5;
 8002598:	4b3c      	ldr	r3, [pc, #240]	; (800268c <pi_init+0xf8>)
 800259a:	f04f 527f 	mov.w	r2, #1069547520	; 0x3fc00000
 800259e:	601a      	str	r2, [r3, #0]
	current_q.ki = 0.05;
 80025a0:	4b3a      	ldr	r3, [pc, #232]	; (800268c <pi_init+0xf8>)
 80025a2:	4a3b      	ldr	r2, [pc, #236]	; (8002690 <pi_init+0xfc>)
 80025a4:	605a      	str	r2, [r3, #4]
	current_q.kd = 0;
 80025a6:	4b39      	ldr	r3, [pc, #228]	; (800268c <pi_init+0xf8>)
 80025a8:	f04f 0200 	mov.w	r2, #0
 80025ac:	609a      	str	r2, [r3, #8]
	current_q.sat_out = 20000;
 80025ae:	4b37      	ldr	r3, [pc, #220]	; (800268c <pi_init+0xf8>)
 80025b0:	4a38      	ldr	r2, [pc, #224]	; (8002694 <pi_init+0x100>)
 80025b2:	621a      	str	r2, [r3, #32]
	current_q.sat_i_part = current_q.sat_out / 10;
 80025b4:	4b35      	ldr	r3, [pc, #212]	; (800268c <pi_init+0xf8>)
 80025b6:	edd3 7a08 	vldr	s15, [r3, #32]
 80025ba:	eeb2 7a04 	vmov.f32	s14, #36	; 0x24
 80025be:	eec7 7a87 	vdiv.f32	s15, s15, s14
 80025c2:	4b32      	ldr	r3, [pc, #200]	; (800268c <pi_init+0xf8>)
 80025c4:	edc3 7a09 	vstr	s15, [r3, #36]	; 0x24

	current_d.kp = current_q.kp;
 80025c8:	4b30      	ldr	r3, [pc, #192]	; (800268c <pi_init+0xf8>)
 80025ca:	681b      	ldr	r3, [r3, #0]
 80025cc:	4a32      	ldr	r2, [pc, #200]	; (8002698 <pi_init+0x104>)
 80025ce:	6013      	str	r3, [r2, #0]
	current_d.ki = current_q.ki;
 80025d0:	4b2e      	ldr	r3, [pc, #184]	; (800268c <pi_init+0xf8>)
 80025d2:	685b      	ldr	r3, [r3, #4]
 80025d4:	4a30      	ldr	r2, [pc, #192]	; (8002698 <pi_init+0x104>)
 80025d6:	6053      	str	r3, [r2, #4]
	current_d.kd = current_q.kd;
 80025d8:	4b2c      	ldr	r3, [pc, #176]	; (800268c <pi_init+0xf8>)
 80025da:	689b      	ldr	r3, [r3, #8]
 80025dc:	4a2e      	ldr	r2, [pc, #184]	; (8002698 <pi_init+0x104>)
 80025de:	6093      	str	r3, [r2, #8]
	current_d.sat_out = current_q.sat_out;
 80025e0:	4b2a      	ldr	r3, [pc, #168]	; (800268c <pi_init+0xf8>)
 80025e2:	6a1b      	ldr	r3, [r3, #32]
 80025e4:	4a2c      	ldr	r2, [pc, #176]	; (8002698 <pi_init+0x104>)
 80025e6:	6213      	str	r3, [r2, #32]
	current_d.sat_i_part = current_q.sat_i_part;
 80025e8:	4b28      	ldr	r3, [pc, #160]	; (800268c <pi_init+0xf8>)
 80025ea:	6a5b      	ldr	r3, [r3, #36]	; 0x24
 80025ec:	4a2a      	ldr	r2, [pc, #168]	; (8002698 <pi_init+0x104>)
 80025ee:	6253      	str	r3, [r2, #36]	; 0x24

	speed.kp = 60;
 80025f0:	4b2a      	ldr	r3, [pc, #168]	; (800269c <pi_init+0x108>)
 80025f2:	4a2b      	ldr	r2, [pc, #172]	; (80026a0 <pi_init+0x10c>)
 80025f4:	601a      	str	r2, [r3, #0]
	speed.ki = 15;
 80025f6:	4b29      	ldr	r3, [pc, #164]	; (800269c <pi_init+0x108>)
 80025f8:	4a2a      	ldr	r2, [pc, #168]	; (80026a4 <pi_init+0x110>)
 80025fa:	605a      	str	r2, [r3, #4]
	speed.kd = 0;
 80025fc:	4b27      	ldr	r3, [pc, #156]	; (800269c <pi_init+0x108>)
 80025fe:	f04f 0200 	mov.w	r2, #0
 8002602:	609a      	str	r2, [r3, #8]
	speed.sat_out = 20000;
 8002604:	4b25      	ldr	r3, [pc, #148]	; (800269c <pi_init+0x108>)
 8002606:	4a23      	ldr	r2, [pc, #140]	; (8002694 <pi_init+0x100>)
 8002608:	621a      	str	r2, [r3, #32]
	speed.sat_i_part = speed.sat_out / 10;
 800260a:	4b24      	ldr	r3, [pc, #144]	; (800269c <pi_init+0x108>)
 800260c:	edd3 7a08 	vldr	s15, [r3, #32]
 8002610:	eeb2 7a04 	vmov.f32	s14, #36	; 0x24
 8002614:	eec7 7a87 	vdiv.f32	s15, s15, s14
 8002618:	4b20      	ldr	r3, [pc, #128]	; (800269c <pi_init+0x108>)
 800261a:	edc3 7a09 	vstr	s15, [r3, #36]	; 0x24
	
	//Position to speed
	position[0].kp = 0.5;
 800261e:	4b22      	ldr	r3, [pc, #136]	; (80026a8 <pi_init+0x114>)
 8002620:	f04f 527c 	mov.w	r2, #1056964608	; 0x3f000000
 8002624:	601a      	str	r2, [r3, #0]
	position[0].ki = 0.01;
 8002626:	4b20      	ldr	r3, [pc, #128]	; (80026a8 <pi_init+0x114>)
 8002628:	4a20      	ldr	r2, [pc, #128]	; (80026ac <pi_init+0x118>)
 800262a:	605a      	str	r2, [r3, #4]
	position[0].kd = 0;
 800262c:	4b1e      	ldr	r3, [pc, #120]	; (80026a8 <pi_init+0x114>)
 800262e:	f04f 0200 	mov.w	r2, #0
 8002632:	609a      	str	r2, [r3, #8]
	position[0].sat_out = 200;
 8002634:	4b1c      	ldr	r3, [pc, #112]	; (80026a8 <pi_init+0x114>)
 8002636:	4a1e      	ldr	r2, [pc, #120]	; (80026b0 <pi_init+0x11c>)
 8002638:	621a      	str	r2, [r3, #32]
	position[0].sat_i_part = position[0].sat_out / 10;
 800263a:	4b1b      	ldr	r3, [pc, #108]	; (80026a8 <pi_init+0x114>)
 800263c:	edd3 7a08 	vldr	s15, [r3, #32]
 8002640:	eeb2 7a04 	vmov.f32	s14, #36	; 0x24
 8002644:	eec7 7a87 	vdiv.f32	s15, s15, s14
 8002648:	4b17      	ldr	r3, [pc, #92]	; (80026a8 <pi_init+0x114>)
 800264a:	edc3 7a09 	vstr	s15, [r3, #36]	; 0x24

	//Position to current
	position[1].kp = 10;
 800264e:	4b16      	ldr	r3, [pc, #88]	; (80026a8 <pi_init+0x114>)
 8002650:	4a18      	ldr	r2, [pc, #96]	; (80026b4 <pi_init+0x120>)
 8002652:	629a      	str	r2, [r3, #40]	; 0x28
	position[1].ki = 0.05;
 8002654:	4b14      	ldr	r3, [pc, #80]	; (80026a8 <pi_init+0x114>)
 8002656:	4a0e      	ldr	r2, [pc, #56]	; (8002690 <pi_init+0xfc>)
 8002658:	62da      	str	r2, [r3, #44]	; 0x2c
	position[1].kd = 20;
 800265a:	4b13      	ldr	r3, [pc, #76]	; (80026a8 <pi_init+0x114>)
 800265c:	4a16      	ldr	r2, [pc, #88]	; (80026b8 <pi_init+0x124>)
 800265e:	631a      	str	r2, [r3, #48]	; 0x30
	position[1].sat_out = 20000;
 8002660:	4b11      	ldr	r3, [pc, #68]	; (80026a8 <pi_init+0x114>)
 8002662:	4a0c      	ldr	r2, [pc, #48]	; (8002694 <pi_init+0x100>)
 8002664:	649a      	str	r2, [r3, #72]	; 0x48
	position[1].sat_i_part = position[1].sat_out / 10;
 8002666:	4b10      	ldr	r3, [pc, #64]	; (80026a8 <pi_init+0x114>)
 8002668:	edd3 7a12 	vldr	s15, [r3, #72]	; 0x48
 800266c:	eeb2 7a04 	vmov.f32	s14, #36	; 0x24
 8002670:	eec7 7a87 	vdiv.f32	s15, s15, s14
 8002674:	4b0c      	ldr	r3, [pc, #48]	; (80026a8 <pi_init+0x114>)
 8002676:	edc3 7a13 	vstr	s15, [r3, #76]	; 0x4c
	position[1].error_old = 0;
 800267a:	4b0b      	ldr	r3, [pc, #44]	; (80026a8 <pi_init+0x114>)
 800267c:	f04f 0200 	mov.w	r2, #0
 8002680:	639a      	str	r2, [r3, #56]	; 0x38

}
 8002682:	46bd      	mov	sp, r7
 8002684:	f85d 7b04 	ldr.w	r7, [sp], #4
 8002688:	4770      	bx	lr
 800268a:	bf00      	nop
 800268c:	1fff0770 	.word	0x1fff0770
 8002690:	3d4ccccd 	.word	0x3d4ccccd
 8002694:	469c4000 	.word	0x469c4000
 8002698:	1fff0720 	.word	0x1fff0720
 800269c:	1fff0748 	.word	0x1fff0748
 80026a0:	42700000 	.word	0x42700000
 80026a4:	41700000 	.word	0x41700000
 80026a8:	1fff06d0 	.word	0x1fff06d0
 80026ac:	3c23d70a 	.word	0x3c23d70a
 80026b0:	43480000 	.word	0x43480000
 80026b4:	41200000 	.word	0x41200000
 80026b8:	41a00000 	.word	0x41a00000

080026bc <ProbeScope_Init>:
* Returns    : none
************************************************************************************************************************
*/

void  ProbeScope_Init (uint32_t  sampling_clk_hz)
{
 80026bc:	b480      	push	{r7}
 80026be:	b083      	sub	sp, #12
 80026c0:	af00      	add	r7, sp, #0
 80026c2:	6078      	str	r0, [r7, #4]
    static  CPU_INT32U  temp = 0;


    ProbeScope_Ch1.En             = 0;
 80026c4:	4b37      	ldr	r3, [pc, #220]	; (80027a4 <ProbeScope_Init+0xe8>)
 80026c6:	2200      	movs	r2, #0
 80026c8:	601a      	str	r2, [r3, #0]
#if PROBE_SCOPE_MAX_CH >= 2       
    ProbeScope_Ch2.En             = 0;
 80026ca:	4b37      	ldr	r3, [pc, #220]	; (80027a8 <ProbeScope_Init+0xec>)
 80026cc:	2200      	movs	r2, #0
 80026ce:	601a      	str	r2, [r3, #0]
#endif                            
#if PROBE_SCOPE_MAX_CH >= 3       
    ProbeScope_Ch3.En             = 0;
 80026d0:	4b36      	ldr	r3, [pc, #216]	; (80027ac <ProbeScope_Init+0xf0>)
 80026d2:	2200      	movs	r2, #0
 80026d4:	601a      	str	r2, [r3, #0]
#endif                            
#if PROBE_SCOPE_MAX_CH >= 4       
    ProbeScope_Ch4.En             = 0;
 80026d6:	4b36      	ldr	r3, [pc, #216]	; (80027b0 <ProbeScope_Init+0xf4>)
 80026d8:	2200      	movs	r2, #0
 80026da:	601a      	str	r2, [r3, #0]
#endif                            
#if PROBE_SCOPE_MAX_CH >= 5       
    ProbeScope_Ch5.En             = 0;
 80026dc:	4b35      	ldr	r3, [pc, #212]	; (80027b4 <ProbeScope_Init+0xf8>)
 80026de:	2200      	movs	r2, #0
 80026e0:	601a      	str	r2, [r3, #0]
#endif                            
#if PROBE_SCOPE_MAX_CH >= 6       
    ProbeScope_Ch6.En             = 0;
 80026e2:	4b35      	ldr	r3, [pc, #212]	; (80027b8 <ProbeScope_Init+0xfc>)
 80026e4:	2200      	movs	r2, #0
 80026e6:	601a      	str	r2, [r3, #0]
#endif                            
#if PROBE_SCOPE_MAX_CH >= 7       
    ProbeScope_Ch7.En             = 0;
 80026e8:	4b34      	ldr	r3, [pc, #208]	; (80027bc <ProbeScope_Init+0x100>)
 80026ea:	2200      	movs	r2, #0
 80026ec:	601a      	str	r2, [r3, #0]
#endif                            
#if PROBE_SCOPE_MAX_CH >= 8       
    ProbeScope_Ch8.En             = 0;
 80026ee:	4b34      	ldr	r3, [pc, #208]	; (80027c0 <ProbeScope_Init+0x104>)
 80026f0:	2200      	movs	r2, #0
 80026f2:	601a      	str	r2, [r3, #0]
#endif

    ProbeScope_Mode               = PROBE_SCOPE_MODE_OFF;
 80026f4:	4b33      	ldr	r3, [pc, #204]	; (80027c4 <ProbeScope_Init+0x108>)
 80026f6:	2200      	movs	r2, #0
 80026f8:	701a      	strb	r2, [r3, #0]
    ProbeScope_State              = PROBE_SCOPE_STATE_START;
 80026fa:	4b33      	ldr	r3, [pc, #204]	; (80027c8 <ProbeScope_Init+0x10c>)
 80026fc:	2200      	movs	r2, #0
 80026fe:	701a      	strb	r2, [r3, #0]
    ProbeScope_TrigChSel          = PROBE_SCOPE_CH1;                         // Default trigger channel
 8002700:	4b32      	ldr	r3, [pc, #200]	; (80027cc <ProbeScope_Init+0x110>)
 8002702:	2201      	movs	r2, #1
 8002704:	701a      	strb	r2, [r3, #0]
    ProbeScope_SampleIxPrev       = 0;
 8002706:	4b32      	ldr	r3, [pc, #200]	; (80027d0 <ProbeScope_Init+0x114>)
 8002708:	2200      	movs	r2, #0
 800270a:	601a      	str	r2, [r3, #0]
    ProbeScope_SampleIxCur        = 0;
 800270c:	4b31      	ldr	r3, [pc, #196]	; (80027d4 <ProbeScope_Init+0x118>)
 800270e:	2200      	movs	r2, #0
 8002710:	601a      	str	r2, [r3, #0]
    ProbeScope_TrigFlag           = 0;
 8002712:	4b31      	ldr	r3, [pc, #196]	; (80027d8 <ProbeScope_Init+0x11c>)
 8002714:	2200      	movs	r2, #0
 8002716:	601a      	str	r2, [r3, #0]
    ProbeScope_TrigDispPos        = 0;
 8002718:	4b30      	ldr	r3, [pc, #192]	; (80027dc <ProbeScope_Init+0x120>)
 800271a:	2200      	movs	r2, #0
 800271c:	601a      	str	r2, [r3, #0]
    ProbeScope_TrigHoldOff        = 0;
 800271e:	4b30      	ldr	r3, [pc, #192]	; (80027e0 <ProbeScope_Init+0x124>)
 8002720:	2200      	movs	r2, #0
 8002722:	601a      	str	r2, [r3, #0]
    ProbeScope_TrigHoldOffCtr     = 0;
 8002724:	4b2f      	ldr	r3, [pc, #188]	; (80027e4 <ProbeScope_Init+0x128>)
 8002726:	2200      	movs	r2, #0
 8002728:	601a      	str	r2, [r3, #0]
    ProbeScope_DataRdyFlag        = 0;
 800272a:	4b2f      	ldr	r3, [pc, #188]	; (80027e8 <ProbeScope_Init+0x12c>)
 800272c:	2200      	movs	r2, #0
 800272e:	601a      	str	r2, [r3, #0]
    ProbeScope_SamplesPreTrigCtr  = ProbeScope_TrigDispPos;
 8002730:	4b2a      	ldr	r3, [pc, #168]	; (80027dc <ProbeScope_Init+0x120>)
 8002732:	681b      	ldr	r3, [r3, #0]
 8002734:	4a2d      	ldr	r2, [pc, #180]	; (80027ec <ProbeScope_Init+0x130>)
 8002736:	6013      	str	r3, [r2, #0]
    ProbeScope_SamplesPostTrigCtr = PROBE_SCOPE_MAX_SAMPLES;
 8002738:	4b2d      	ldr	r3, [pc, #180]	; (80027f0 <ProbeScope_Init+0x134>)
 800273a:	f44f 727a 	mov.w	r2, #1000	; 0x3e8
 800273e:	601a      	str	r2, [r3, #0]
    ProbeScope_TrigSlope          = PROBE_SCOPE_TRIG_POS;                    // We assume a positive going signal by default
 8002740:	4b2c      	ldr	r3, [pc, #176]	; (80027f4 <ProbeScope_Init+0x138>)
 8002742:	2201      	movs	r2, #1
 8002744:	601a      	str	r2, [r3, #0]
    temp                          = ProbeScopeDbg_MaxSamples;
 8002746:	4b2c      	ldr	r3, [pc, #176]	; (80027f8 <ProbeScope_Init+0x13c>)
 8002748:	881b      	ldrh	r3, [r3, #0]
 800274a:	b29b      	uxth	r3, r3
 800274c:	461a      	mov	r2, r3
 800274e:	4b2b      	ldr	r3, [pc, #172]	; (80027fc <ProbeScope_Init+0x140>)
 8002750:	601a      	str	r2, [r3, #0]
    temp                         += ProbeScopeDbg_MaxCh;
 8002752:	4b2b      	ldr	r3, [pc, #172]	; (8002800 <ProbeScope_Init+0x144>)
 8002754:	781b      	ldrb	r3, [r3, #0]
 8002756:	b2db      	uxtb	r3, r3
 8002758:	461a      	mov	r2, r3
 800275a:	4b28      	ldr	r3, [pc, #160]	; (80027fc <ProbeScope_Init+0x140>)
 800275c:	681b      	ldr	r3, [r3, #0]
 800275e:	4413      	add	r3, r2
 8002760:	4a26      	ldr	r2, [pc, #152]	; (80027fc <ProbeScope_Init+0x140>)
 8002762:	6013      	str	r3, [r2, #0]
    temp                         += ProbeScopeDbg_16BitEn;
 8002764:	4b27      	ldr	r3, [pc, #156]	; (8002804 <ProbeScope_Init+0x148>)
 8002766:	681a      	ldr	r2, [r3, #0]
 8002768:	4b24      	ldr	r3, [pc, #144]	; (80027fc <ProbeScope_Init+0x140>)
 800276a:	681b      	ldr	r3, [r3, #0]
 800276c:	4413      	add	r3, r2
 800276e:	4a23      	ldr	r2, [pc, #140]	; (80027fc <ProbeScope_Init+0x140>)
 8002770:	6013      	str	r3, [r2, #0]
    temp                         += ProbeScopeDbg_32BitEn;
 8002772:	4b25      	ldr	r3, [pc, #148]	; (8002808 <ProbeScope_Init+0x14c>)
 8002774:	681a      	ldr	r2, [r3, #0]
 8002776:	4b21      	ldr	r3, [pc, #132]	; (80027fc <ProbeScope_Init+0x140>)
 8002778:	681b      	ldr	r3, [r3, #0]
 800277a:	4413      	add	r3, r2
 800277c:	4a1f      	ldr	r2, [pc, #124]	; (80027fc <ProbeScope_Init+0x140>)
 800277e:	6013      	str	r3, [r2, #0]
    ProbeScope_SamplingClkDiv     =    1;
 8002780:	4b22      	ldr	r3, [pc, #136]	; (800280c <ProbeScope_Init+0x150>)
 8002782:	2201      	movs	r2, #1
 8002784:	801a      	strh	r2, [r3, #0]
    ProbeScope_SamplingClkDivCtr  =    0;
 8002786:	4b22      	ldr	r3, [pc, #136]	; (8002810 <ProbeScope_Init+0x154>)
 8002788:	2200      	movs	r2, #0
 800278a:	801a      	strh	r2, [r3, #0]
    ProbeScope_SamplingClkHz      = sampling_clk_hz;
 800278c:	4a21      	ldr	r2, [pc, #132]	; (8002814 <ProbeScope_Init+0x158>)
 800278e:	687b      	ldr	r3, [r7, #4]
 8002790:	6013      	str	r3, [r2, #0]
    ProbeScope_InitFlag           =    1;
 8002792:	4b21      	ldr	r3, [pc, #132]	; (8002818 <ProbeScope_Init+0x15c>)
 8002794:	2201      	movs	r2, #1
 8002796:	601a      	str	r2, [r3, #0]
}
 8002798:	370c      	adds	r7, #12
 800279a:	46bd      	mov	sp, r7
 800279c:	f85d 7b04 	ldr.w	r7, [sp], #4
 80027a0:	4770      	bx	lr
 80027a2:	bf00      	nop
 80027a4:	1ffe8854 	.word	0x1ffe8854
 80027a8:	1ffe980c 	.word	0x1ffe980c
 80027ac:	1ffea7c4 	.word	0x1ffea7c4
 80027b0:	1ffeb77c 	.word	0x1ffeb77c
 80027b4:	1ffec734 	.word	0x1ffec734
 80027b8:	1ffed6ec 	.word	0x1ffed6ec
 80027bc:	1ffee6a4 	.word	0x1ffee6a4
 80027c0:	1ffef65c 	.word	0x1ffef65c
 80027c4:	1fff0614 	.word	0x1fff0614
 80027c8:	1fff0634 	.word	0x1fff0634
 80027cc:	1fff0615 	.word	0x1fff0615
 80027d0:	1fff0620 	.word	0x1fff0620
 80027d4:	1fff0624 	.word	0x1fff0624
 80027d8:	1fff0798 	.word	0x1fff0798
 80027dc:	1fff07a4 	.word	0x1fff07a4
 80027e0:	1fff07a8 	.word	0x1fff07a8
 80027e4:	1fff0618 	.word	0x1fff0618
 80027e8:	1fff07b0 	.word	0x1fff07b0
 80027ec:	1fff0628 	.word	0x1fff0628
 80027f0:	1fff062c 	.word	0x1fff062c
 80027f4:	1fff061c 	.word	0x1fff061c
 80027f8:	1ffe880e 	.word	0x1ffe880e
 80027fc:	1fff0638 	.word	0x1fff0638
 8002800:	1ffe8810 	.word	0x1ffe8810
 8002804:	1ffe8814 	.word	0x1ffe8814
 8002808:	1ffe8818 	.word	0x1ffe8818
 800280c:	1fff0630 	.word	0x1fff0630
 8002810:	1fff0632 	.word	0x1fff0632
 8002814:	1fff079c 	.word	0x1fff079c
 8002818:	1fff07ac 	.word	0x1fff07ac

0800281c <ProbeScope_Sampling>:
* Returns    : none
************************************************************************************************************************
*/

void  ProbeScope_Sampling (void)
{
 800281c:	b580      	push	{r7, lr}
 800281e:	af00      	add	r7, sp, #0
    switch (ProbeScope_Mode) {
 8002820:	4b0e      	ldr	r3, [pc, #56]	; (800285c <ProbeScope_Sampling+0x40>)
 8002822:	781b      	ldrb	r3, [r3, #0]
 8002824:	2b03      	cmp	r3, #3
 8002826:	d817      	bhi.n	8002858 <ProbeScope_Sampling+0x3c>
 8002828:	a201      	add	r2, pc, #4	; (adr r2, 8002830 <ProbeScope_Sampling+0x14>)
 800282a:	f852 f023 	ldr.w	pc, [r2, r3, lsl #2]
 800282e:	bf00      	nop
 8002830:	08002841 	.word	0x08002841
 8002834:	08002847 	.word	0x08002847
 8002838:	0800284d 	.word	0x0800284d
 800283c:	08002853 	.word	0x08002853
        case PROBE_SCOPE_MODE_OFF:
             ProbeScope_ModeOff();
 8002840:	f000 f80e 	bl	8002860 <ProbeScope_ModeOff>
             break;
 8002844:	e008      	b.n	8002858 <ProbeScope_Sampling+0x3c>
    
        case PROBE_SCOPE_MODE_SINGLE:
             ProbeScope_ModeTrig();
 8002846:	f000 f85d 	bl	8002904 <ProbeScope_ModeTrig>
             break;
 800284a:	e005      	b.n	8002858 <ProbeScope_Sampling+0x3c>
    
        case PROBE_SCOPE_MODE_CONTINUOUS:
             ProbeScope_ModeContinuous();
 800284c:	f000 f81c 	bl	8002888 <ProbeScope_ModeContinuous>
             break;
 8002850:	e002      	b.n	8002858 <ProbeScope_Sampling+0x3c>
    
        case PROBE_SCOPE_MODE_TRIG:
             ProbeScope_ModeTrig(); 
 8002852:	f000 f857 	bl	8002904 <ProbeScope_ModeTrig>
             break;
 8002856:	bf00      	nop
    }
}
 8002858:	bd80      	pop	{r7, pc}
 800285a:	bf00      	nop
 800285c:	1fff0614 	.word	0x1fff0614

08002860 <ProbeScope_ModeOff>:
* Returns    : none
************************************************************************************************************************
*/

static  void  ProbeScope_ModeOff (void)
{
 8002860:	b480      	push	{r7}
 8002862:	af00      	add	r7, sp, #0
    ProbeScope_State = PROBE_SCOPE_STATE_START;                                // Force Triggered mode state to START
 8002864:	4b06      	ldr	r3, [pc, #24]	; (8002880 <ProbeScope_ModeOff+0x20>)
 8002866:	2200      	movs	r2, #0
 8002868:	701a      	strb	r2, [r3, #0]
    if (ProbeScope_SamplingClkDiv == 0) {
 800286a:	4b06      	ldr	r3, [pc, #24]	; (8002884 <ProbeScope_ModeOff+0x24>)
 800286c:	881b      	ldrh	r3, [r3, #0]
 800286e:	2b00      	cmp	r3, #0
 8002870:	d102      	bne.n	8002878 <ProbeScope_ModeOff+0x18>
        ProbeScope_SamplingClkDiv =  1;
 8002872:	4b04      	ldr	r3, [pc, #16]	; (8002884 <ProbeScope_ModeOff+0x24>)
 8002874:	2201      	movs	r2, #1
 8002876:	801a      	strh	r2, [r3, #0]
    }
}
 8002878:	46bd      	mov	sp, r7
 800287a:	f85d 7b04 	ldr.w	r7, [sp], #4
 800287e:	4770      	bx	lr
 8002880:	1fff0634 	.word	0x1fff0634
 8002884:	1fff0630 	.word	0x1fff0630

08002888 <ProbeScope_ModeContinuous>:
* Returns    : none
************************************************************************************************************************
*/

static  void  ProbeScope_ModeContinuous (void)
{
 8002888:	b580      	push	{r7, lr}
 800288a:	af00      	add	r7, sp, #0
    if (ProbeScope_DataRdyFlag == 0) {                                          // Read one buffer's worth of data
 800288c:	4b17      	ldr	r3, [pc, #92]	; (80028ec <ProbeScope_ModeContinuous+0x64>)
 800288e:	681b      	ldr	r3, [r3, #0]
 8002890:	2b00      	cmp	r3, #0
 8002892:	d126      	bne.n	80028e2 <ProbeScope_ModeContinuous+0x5a>
        ProbeScope_TrigFlag = 0;
 8002894:	4b16      	ldr	r3, [pc, #88]	; (80028f0 <ProbeScope_ModeContinuous+0x68>)
 8002896:	2200      	movs	r2, #0
 8002898:	601a      	str	r2, [r3, #0]
        if (ProbeScope_SamplingClkDivCtr > 1) {
 800289a:	4b16      	ldr	r3, [pc, #88]	; (80028f4 <ProbeScope_ModeContinuous+0x6c>)
 800289c:	881b      	ldrh	r3, [r3, #0]
 800289e:	2b01      	cmp	r3, #1
 80028a0:	d906      	bls.n	80028b0 <ProbeScope_ModeContinuous+0x28>
            ProbeScope_SamplingClkDivCtr--;
 80028a2:	4b14      	ldr	r3, [pc, #80]	; (80028f4 <ProbeScope_ModeContinuous+0x6c>)
 80028a4:	881b      	ldrh	r3, [r3, #0]
 80028a6:	3b01      	subs	r3, #1
 80028a8:	b29a      	uxth	r2, r3
 80028aa:	4b12      	ldr	r3, [pc, #72]	; (80028f4 <ProbeScope_ModeContinuous+0x6c>)
 80028ac:	801a      	strh	r2, [r3, #0]
 80028ae:	e018      	b.n	80028e2 <ProbeScope_ModeContinuous+0x5a>
        } else {
            if (ProbeScope_SamplingClkDiv == 0) {                               // Make sure clock divider is not 0
 80028b0:	4b11      	ldr	r3, [pc, #68]	; (80028f8 <ProbeScope_ModeContinuous+0x70>)
 80028b2:	881b      	ldrh	r3, [r3, #0]
 80028b4:	2b00      	cmp	r3, #0
 80028b6:	d102      	bne.n	80028be <ProbeScope_ModeContinuous+0x36>
                ProbeScope_SamplingClkDiv =  1;
 80028b8:	4b0f      	ldr	r3, [pc, #60]	; (80028f8 <ProbeScope_ModeContinuous+0x70>)
 80028ba:	2201      	movs	r2, #1
 80028bc:	801a      	strh	r2, [r3, #0]
            }
            ProbeScope_SamplingClkDivCtr  = ProbeScope_SamplingClkDiv;
 80028be:	4b0e      	ldr	r3, [pc, #56]	; (80028f8 <ProbeScope_ModeContinuous+0x70>)
 80028c0:	881a      	ldrh	r2, [r3, #0]
 80028c2:	4b0c      	ldr	r3, [pc, #48]	; (80028f4 <ProbeScope_ModeContinuous+0x6c>)
 80028c4:	801a      	strh	r2, [r3, #0]
            ProbeScope_SampleChAll();                                           // Get the first sample to create a 'previous' value for triggering
 80028c6:	f000 f8e5 	bl	8002a94 <ProbeScope_SampleChAll>
            ProbeScope_SamplePosNext();                                         // Position to next sample
 80028ca:	f000 fa0b 	bl	8002ce4 <ProbeScope_SamplePosNext>
            if (ProbeScope_SampleIxCur == 0) {                                  // Read one buffer's worth of data
 80028ce:	4b0b      	ldr	r3, [pc, #44]	; (80028fc <ProbeScope_ModeContinuous+0x74>)
 80028d0:	681b      	ldr	r3, [r3, #0]
 80028d2:	2b00      	cmp	r3, #0
 80028d4:	d105      	bne.n	80028e2 <ProbeScope_ModeContinuous+0x5a>
                ProbeScope_DataRdyFlag = 1;   
 80028d6:	4b05      	ldr	r3, [pc, #20]	; (80028ec <ProbeScope_ModeContinuous+0x64>)
 80028d8:	2201      	movs	r2, #1
 80028da:	601a      	str	r2, [r3, #0]
                ProbeScope_TrigFlag    = 1;
 80028dc:	4b04      	ldr	r3, [pc, #16]	; (80028f0 <ProbeScope_ModeContinuous+0x68>)
 80028de:	2201      	movs	r2, #1
 80028e0:	601a      	str	r2, [r3, #0]
            }
        }
    }
    ProbeScope_State = PROBE_SCOPE_STATE_START;                                 // Force Triggered mode state to START
 80028e2:	4b07      	ldr	r3, [pc, #28]	; (8002900 <ProbeScope_ModeContinuous+0x78>)
 80028e4:	2200      	movs	r2, #0
 80028e6:	701a      	strb	r2, [r3, #0]
}
 80028e8:	bd80      	pop	{r7, pc}
 80028ea:	bf00      	nop
 80028ec:	1fff07b0 	.word	0x1fff07b0
 80028f0:	1fff0798 	.word	0x1fff0798
 80028f4:	1fff0632 	.word	0x1fff0632
 80028f8:	1fff0630 	.word	0x1fff0630
 80028fc:	1fff0624 	.word	0x1fff0624
 8002900:	1fff0634 	.word	0x1fff0634

08002904 <ProbeScope_ModeTrig>:
* Returns    : none
************************************************************************************************************************
*/

static  void  ProbeScope_ModeTrig (void)
{
 8002904:	b580      	push	{r7, lr}
 8002906:	af00      	add	r7, sp, #0
    if (ProbeScope_SamplingClkDivCtr > 1) {
 8002908:	4b55      	ldr	r3, [pc, #340]	; (8002a60 <ProbeScope_ModeTrig+0x15c>)
 800290a:	881b      	ldrh	r3, [r3, #0]
 800290c:	2b01      	cmp	r3, #1
 800290e:	d906      	bls.n	800291e <ProbeScope_ModeTrig+0x1a>
        ProbeScope_SamplingClkDivCtr--;
 8002910:	4b53      	ldr	r3, [pc, #332]	; (8002a60 <ProbeScope_ModeTrig+0x15c>)
 8002912:	881b      	ldrh	r3, [r3, #0]
 8002914:	3b01      	subs	r3, #1
 8002916:	b29a      	uxth	r2, r3
 8002918:	4b51      	ldr	r3, [pc, #324]	; (8002a60 <ProbeScope_ModeTrig+0x15c>)
 800291a:	801a      	strh	r2, [r3, #0]
 800291c:	e09e      	b.n	8002a5c <ProbeScope_ModeTrig+0x158>
    } else { 
        if (ProbeScope_SamplingClkDiv == 0) {                                        // Make sure clock divider is not 0
 800291e:	4b51      	ldr	r3, [pc, #324]	; (8002a64 <ProbeScope_ModeTrig+0x160>)
 8002920:	881b      	ldrh	r3, [r3, #0]
 8002922:	2b00      	cmp	r3, #0
 8002924:	d102      	bne.n	800292c <ProbeScope_ModeTrig+0x28>
            ProbeScope_SamplingClkDiv =  1;
 8002926:	4b4f      	ldr	r3, [pc, #316]	; (8002a64 <ProbeScope_ModeTrig+0x160>)
 8002928:	2201      	movs	r2, #1
 800292a:	801a      	strh	r2, [r3, #0]
        }
        ProbeScope_SamplingClkDivCtr = ProbeScope_SamplingClkDiv;
 800292c:	4b4d      	ldr	r3, [pc, #308]	; (8002a64 <ProbeScope_ModeTrig+0x160>)
 800292e:	881a      	ldrh	r2, [r3, #0]
 8002930:	4b4b      	ldr	r3, [pc, #300]	; (8002a60 <ProbeScope_ModeTrig+0x15c>)
 8002932:	801a      	strh	r2, [r3, #0]
        switch (ProbeScope_State) {
 8002934:	4b4c      	ldr	r3, [pc, #304]	; (8002a68 <ProbeScope_ModeTrig+0x164>)
 8002936:	781b      	ldrb	r3, [r3, #0]
 8002938:	2b03      	cmp	r3, #3
 800293a:	f200 808b 	bhi.w	8002a54 <ProbeScope_ModeTrig+0x150>
 800293e:	a201      	add	r2, pc, #4	; (adr r2, 8002944 <ProbeScope_ModeTrig+0x40>)
 8002940:	f852 f023 	ldr.w	pc, [r2, r3, lsl #2]
 8002944:	08002955 	.word	0x08002955
 8002948:	08002991 	.word	0x08002991
 800294c:	080029d1 	.word	0x080029d1
 8002950:	08002a19 	.word	0x08002a19
            case PROBE_SCOPE_STATE_START:
                 ProbeScope_DataRdyFlag        = 0;
 8002954:	4b45      	ldr	r3, [pc, #276]	; (8002a6c <ProbeScope_ModeTrig+0x168>)
 8002956:	2200      	movs	r2, #0
 8002958:	601a      	str	r2, [r3, #0]
                 ProbeScope_TrigFlag           = 0;
 800295a:	4b45      	ldr	r3, [pc, #276]	; (8002a70 <ProbeScope_ModeTrig+0x16c>)
 800295c:	2200      	movs	r2, #0
 800295e:	601a      	str	r2, [r3, #0]
                 ProbeScope_SampleIxPrev       = 0;
 8002960:	4b44      	ldr	r3, [pc, #272]	; (8002a74 <ProbeScope_ModeTrig+0x170>)
 8002962:	2200      	movs	r2, #0
 8002964:	601a      	str	r2, [r3, #0]
                 ProbeScope_SampleIxCur        = 0;
 8002966:	4b44      	ldr	r3, [pc, #272]	; (8002a78 <ProbeScope_ModeTrig+0x174>)
 8002968:	2200      	movs	r2, #0
 800296a:	601a      	str	r2, [r3, #0]
                 ProbeScope_TrigHoldOffCtr     = 0;
 800296c:	4b43      	ldr	r3, [pc, #268]	; (8002a7c <ProbeScope_ModeTrig+0x178>)
 800296e:	2200      	movs	r2, #0
 8002970:	601a      	str	r2, [r3, #0]
                 ProbeScope_SamplesPostTrigCtr = 0;
 8002972:	4b43      	ldr	r3, [pc, #268]	; (8002a80 <ProbeScope_ModeTrig+0x17c>)
 8002974:	2200      	movs	r2, #0
 8002976:	601a      	str	r2, [r3, #0]
                 ProbeScope_SamplesPreTrigCtr  = ProbeScope_TrigDispPos;            // Minimum number of samples pre-trigger
 8002978:	4b42      	ldr	r3, [pc, #264]	; (8002a84 <ProbeScope_ModeTrig+0x180>)
 800297a:	681b      	ldr	r3, [r3, #0]
 800297c:	4a42      	ldr	r2, [pc, #264]	; (8002a88 <ProbeScope_ModeTrig+0x184>)
 800297e:	6013      	str	r3, [r2, #0]
                 ProbeScope_SampleChAll();                                          // Get the first sample to create a 'previous' value for triggering
 8002980:	f000 f888 	bl	8002a94 <ProbeScope_SampleChAll>
                 ProbeScope_SamplePosNext();
 8002984:	f000 f9ae 	bl	8002ce4 <ProbeScope_SamplePosNext>
                 ProbeScope_State              = PROBE_SCOPE_STATE_SAMPLING_PRE_TRIG;
 8002988:	4b37      	ldr	r3, [pc, #220]	; (8002a68 <ProbeScope_ModeTrig+0x164>)
 800298a:	2201      	movs	r2, #1
 800298c:	701a      	strb	r2, [r3, #0]
                 break;
 800298e:	e065      	b.n	8002a5c <ProbeScope_ModeTrig+0x158>
                 
            case PROBE_SCOPE_STATE_SAMPLING_PRE_TRIG:
                 ProbeScope_SampleChAll();                                          // Get the next sample
 8002990:	f000 f880 	bl	8002a94 <ProbeScope_SampleChAll>
                 if (ProbeScope_SamplesPreTrigCtr > 0) {                            // We need a minimum number of samples before the trigger
 8002994:	4b3c      	ldr	r3, [pc, #240]	; (8002a88 <ProbeScope_ModeTrig+0x184>)
 8002996:	681b      	ldr	r3, [r3, #0]
 8002998:	2b00      	cmp	r3, #0
 800299a:	d005      	beq.n	80029a8 <ProbeScope_ModeTrig+0xa4>
                     ProbeScope_SamplesPreTrigCtr--;                               
 800299c:	4b3a      	ldr	r3, [pc, #232]	; (8002a88 <ProbeScope_ModeTrig+0x184>)
 800299e:	681b      	ldr	r3, [r3, #0]
 80029a0:	3b01      	subs	r3, #1
 80029a2:	4a39      	ldr	r2, [pc, #228]	; (8002a88 <ProbeScope_ModeTrig+0x184>)
 80029a4:	6013      	str	r3, [r2, #0]
 80029a6:	e001      	b.n	80029ac <ProbeScope_ModeTrig+0xa8>
                 } else {
                     ProbeScope_IsTrig();                                           // See if we detected the trigger
 80029a8:	f000 f9b8 	bl	8002d1c <ProbeScope_IsTrig>
                 }
                 ProbeScope_SamplePosNext();
 80029ac:	f000 f99a 	bl	8002ce4 <ProbeScope_SamplePosNext>
                 if (ProbeScope_TrigFlag == 1) {                                    // Remaining number of samples to collect before data available
 80029b0:	4b2f      	ldr	r3, [pc, #188]	; (8002a70 <ProbeScope_ModeTrig+0x16c>)
 80029b2:	681b      	ldr	r3, [r3, #0]
 80029b4:	2b01      	cmp	r3, #1
 80029b6:	d10a      	bne.n	80029ce <ProbeScope_ModeTrig+0xca>
                     ProbeScope_SamplesPostTrigCtr = PROBE_SCOPE_MAX_SAMPLES - ProbeScope_TrigDispPos - 2;  
 80029b8:	4b32      	ldr	r3, [pc, #200]	; (8002a84 <ProbeScope_ModeTrig+0x180>)
 80029ba:	681b      	ldr	r3, [r3, #0]
 80029bc:	f5c3 7379 	rsb	r3, r3, #996	; 0x3e4
 80029c0:	3302      	adds	r3, #2
 80029c2:	4a2f      	ldr	r2, [pc, #188]	; (8002a80 <ProbeScope_ModeTrig+0x17c>)
 80029c4:	6013      	str	r3, [r2, #0]
                     ProbeScope_State              = PROBE_SCOPE_STATE_SAMPLING_POST_TRIG;
 80029c6:	4b28      	ldr	r3, [pc, #160]	; (8002a68 <ProbeScope_ModeTrig+0x164>)
 80029c8:	2202      	movs	r2, #2
 80029ca:	701a      	strb	r2, [r3, #0]
                 }
                 break;
 80029cc:	e046      	b.n	8002a5c <ProbeScope_ModeTrig+0x158>
 80029ce:	e045      	b.n	8002a5c <ProbeScope_ModeTrig+0x158>
                 
            case PROBE_SCOPE_STATE_SAMPLING_POST_TRIG:
                 ProbeScope_SampleChAll();                                          // Get the next sample
 80029d0:	f000 f860 	bl	8002a94 <ProbeScope_SampleChAll>
                 ProbeScope_SamplePosNext();
 80029d4:	f000 f986 	bl	8002ce4 <ProbeScope_SamplePosNext>
                 if (ProbeScope_SamplesPostTrigCtr > 0) {
 80029d8:	4b29      	ldr	r3, [pc, #164]	; (8002a80 <ProbeScope_ModeTrig+0x17c>)
 80029da:	681b      	ldr	r3, [r3, #0]
 80029dc:	2b00      	cmp	r3, #0
 80029de:	d005      	beq.n	80029ec <ProbeScope_ModeTrig+0xe8>
                     ProbeScope_SamplesPostTrigCtr--;
 80029e0:	4b27      	ldr	r3, [pc, #156]	; (8002a80 <ProbeScope_ModeTrig+0x17c>)
 80029e2:	681b      	ldr	r3, [r3, #0]
 80029e4:	3b01      	subs	r3, #1
 80029e6:	4a26      	ldr	r2, [pc, #152]	; (8002a80 <ProbeScope_ModeTrig+0x17c>)
 80029e8:	6013      	str	r3, [r2, #0]
                         ProbeScope_TrigHoldOffCtr = ProbeScope_TrigHoldOff;        // Load hold-off counter
                         ProbeScope_State          = PROBE_SCOPE_STATE_DATA_RDY;    
                     }                                                              
                     ProbeScope_DataRdyFlag = 1;                                    // Trace is available in the buffer
                 }                                                                  
                 break;                                                             
 80029ea:	e037      	b.n	8002a5c <ProbeScope_ModeTrig+0x158>
                 ProbeScope_SampleChAll();                                          // Get the next sample
                 ProbeScope_SamplePosNext();
                 if (ProbeScope_SamplesPostTrigCtr > 0) {
                     ProbeScope_SamplesPostTrigCtr--;
                 } else {
                     if (ProbeScope_Mode == PROBE_SCOPE_MODE_SINGLE) {
 80029ec:	4b27      	ldr	r3, [pc, #156]	; (8002a8c <ProbeScope_ModeTrig+0x188>)
 80029ee:	781b      	ldrb	r3, [r3, #0]
 80029f0:	2b01      	cmp	r3, #1
 80029f2:	d106      	bne.n	8002a02 <ProbeScope_ModeTrig+0xfe>
                         ProbeScope_Mode           = PROBE_SCOPE_MODE_OFF;
 80029f4:	4b25      	ldr	r3, [pc, #148]	; (8002a8c <ProbeScope_ModeTrig+0x188>)
 80029f6:	2200      	movs	r2, #0
 80029f8:	701a      	strb	r2, [r3, #0]
                         ProbeScope_State          = PROBE_SCOPE_STATE_START;
 80029fa:	4b1b      	ldr	r3, [pc, #108]	; (8002a68 <ProbeScope_ModeTrig+0x164>)
 80029fc:	2200      	movs	r2, #0
 80029fe:	701a      	strb	r2, [r3, #0]
 8002a00:	e006      	b.n	8002a10 <ProbeScope_ModeTrig+0x10c>
                     } else {
                         ProbeScope_TrigHoldOffCtr = ProbeScope_TrigHoldOff;        // Load hold-off counter
 8002a02:	4b23      	ldr	r3, [pc, #140]	; (8002a90 <ProbeScope_ModeTrig+0x18c>)
 8002a04:	681b      	ldr	r3, [r3, #0]
 8002a06:	4a1d      	ldr	r2, [pc, #116]	; (8002a7c <ProbeScope_ModeTrig+0x178>)
 8002a08:	6013      	str	r3, [r2, #0]
                         ProbeScope_State          = PROBE_SCOPE_STATE_DATA_RDY;    
 8002a0a:	4b17      	ldr	r3, [pc, #92]	; (8002a68 <ProbeScope_ModeTrig+0x164>)
 8002a0c:	2203      	movs	r2, #3
 8002a0e:	701a      	strb	r2, [r3, #0]
                     }                                                              
                     ProbeScope_DataRdyFlag = 1;                                    // Trace is available in the buffer
 8002a10:	4b16      	ldr	r3, [pc, #88]	; (8002a6c <ProbeScope_ModeTrig+0x168>)
 8002a12:	2201      	movs	r2, #1
 8002a14:	601a      	str	r2, [r3, #0]
                 }                                                                  
                 break;                                                             
 8002a16:	e021      	b.n	8002a5c <ProbeScope_ModeTrig+0x158>
                                                                                    
            case PROBE_SCOPE_STATE_DATA_RDY:                                        
                 if (ProbeScope_TrigHoldOffCtr > 0) {                               // Hold-off before beeing able to re-trigger
 8002a18:	4b18      	ldr	r3, [pc, #96]	; (8002a7c <ProbeScope_ModeTrig+0x178>)
 8002a1a:	681b      	ldr	r3, [r3, #0]
 8002a1c:	2b00      	cmp	r3, #0
 8002a1e:	d005      	beq.n	8002a2c <ProbeScope_ModeTrig+0x128>
                     ProbeScope_TrigHoldOffCtr--;                                   
 8002a20:	4b16      	ldr	r3, [pc, #88]	; (8002a7c <ProbeScope_ModeTrig+0x178>)
 8002a22:	681b      	ldr	r3, [r3, #0]
 8002a24:	3b01      	subs	r3, #1
 8002a26:	4a15      	ldr	r2, [pc, #84]	; (8002a7c <ProbeScope_ModeTrig+0x178>)
 8002a28:	6013      	str	r3, [r2, #0]
 8002a2a:	e012      	b.n	8002a52 <ProbeScope_ModeTrig+0x14e>
                 } else {                                                           
                     if (ProbeScope_DataRdyFlag == 0) {                             // Give Probe time to collect and display the waveform(s)
 8002a2c:	4b0f      	ldr	r3, [pc, #60]	; (8002a6c <ProbeScope_ModeTrig+0x168>)
 8002a2e:	681b      	ldr	r3, [r3, #0]
 8002a30:	2b00      	cmp	r3, #0
 8002a32:	d10e      	bne.n	8002a52 <ProbeScope_ModeTrig+0x14e>
                         ProbeScope_TrigFlag          = 0;
 8002a34:	4b0e      	ldr	r3, [pc, #56]	; (8002a70 <ProbeScope_ModeTrig+0x16c>)
 8002a36:	2200      	movs	r2, #0
 8002a38:	601a      	str	r2, [r3, #0]
                         ProbeScope_SamplesPreTrigCtr = ProbeScope_TrigDispPos;     // Minimum number of samples pre-trigger
 8002a3a:	4b12      	ldr	r3, [pc, #72]	; (8002a84 <ProbeScope_ModeTrig+0x180>)
 8002a3c:	681b      	ldr	r3, [r3, #0]
 8002a3e:	4a12      	ldr	r2, [pc, #72]	; (8002a88 <ProbeScope_ModeTrig+0x184>)
 8002a40:	6013      	str	r3, [r2, #0]
                         ProbeScope_State             = PROBE_SCOPE_STATE_SAMPLING_PRE_TRIG;
 8002a42:	4b09      	ldr	r3, [pc, #36]	; (8002a68 <ProbeScope_ModeTrig+0x164>)
 8002a44:	2201      	movs	r2, #1
 8002a46:	701a      	strb	r2, [r3, #0]
                         ProbeScope_SampleChAll();                                  // Get the first sample to create a 'previous' value for triggering
 8002a48:	f000 f824 	bl	8002a94 <ProbeScope_SampleChAll>
                         ProbeScope_SamplePosNext();
 8002a4c:	f000 f94a 	bl	8002ce4 <ProbeScope_SamplePosNext>
                     }
                 }
                 break;
 8002a50:	e004      	b.n	8002a5c <ProbeScope_ModeTrig+0x158>
 8002a52:	e003      	b.n	8002a5c <ProbeScope_ModeTrig+0x158>
                 
            default:
                 ProbeScope_State = PROBE_SCOPE_STATE_START;
 8002a54:	4b04      	ldr	r3, [pc, #16]	; (8002a68 <ProbeScope_ModeTrig+0x164>)
 8002a56:	2200      	movs	r2, #0
 8002a58:	701a      	strb	r2, [r3, #0]
                 break;
 8002a5a:	bf00      	nop
        }
    }
}
 8002a5c:	bd80      	pop	{r7, pc}
 8002a5e:	bf00      	nop
 8002a60:	1fff0632 	.word	0x1fff0632
 8002a64:	1fff0630 	.word	0x1fff0630
 8002a68:	1fff0634 	.word	0x1fff0634
 8002a6c:	1fff07b0 	.word	0x1fff07b0
 8002a70:	1fff0798 	.word	0x1fff0798
 8002a74:	1fff0620 	.word	0x1fff0620
 8002a78:	1fff0624 	.word	0x1fff0624
 8002a7c:	1fff0618 	.word	0x1fff0618
 8002a80:	1fff062c 	.word	0x1fff062c
 8002a84:	1fff07a4 	.word	0x1fff07a4
 8002a88:	1fff0628 	.word	0x1fff0628
 8002a8c:	1fff0614 	.word	0x1fff0614
 8002a90:	1fff07a8 	.word	0x1fff07a8

08002a94 <ProbeScope_SampleChAll>:
* Returns    : none
************************************************************************************************************************
*/

static  void  ProbeScope_SampleChAll (void)
{
 8002a94:	b580      	push	{r7, lr}
 8002a96:	af00      	add	r7, sp, #0
    ProbeScope_SampleCh(&ProbeScope_Ch1);
 8002a98:	480c      	ldr	r0, [pc, #48]	; (8002acc <ProbeScope_SampleChAll+0x38>)
 8002a9a:	f000 f827 	bl	8002aec <ProbeScope_SampleCh>

#if PROBE_SCOPE_MAX_CH >= 2
    ProbeScope_SampleCh(&ProbeScope_Ch2);
 8002a9e:	480c      	ldr	r0, [pc, #48]	; (8002ad0 <ProbeScope_SampleChAll+0x3c>)
 8002aa0:	f000 f824 	bl	8002aec <ProbeScope_SampleCh>
#endif

#if PROBE_SCOPE_MAX_CH >= 3                     
    ProbeScope_SampleCh(&ProbeScope_Ch3);
 8002aa4:	480b      	ldr	r0, [pc, #44]	; (8002ad4 <ProbeScope_SampleChAll+0x40>)
 8002aa6:	f000 f821 	bl	8002aec <ProbeScope_SampleCh>
#endif

#if PROBE_SCOPE_MAX_CH >= 4                     
    ProbeScope_SampleCh(&ProbeScope_Ch4);
 8002aaa:	480b      	ldr	r0, [pc, #44]	; (8002ad8 <ProbeScope_SampleChAll+0x44>)
 8002aac:	f000 f81e 	bl	8002aec <ProbeScope_SampleCh>
#endif                     

#if PROBE_SCOPE_MAX_CH >= 5
    ProbeScope_SampleCh(&ProbeScope_Ch5);
 8002ab0:	480a      	ldr	r0, [pc, #40]	; (8002adc <ProbeScope_SampleChAll+0x48>)
 8002ab2:	f000 f81b 	bl	8002aec <ProbeScope_SampleCh>
#endif

#if PROBE_SCOPE_MAX_CH >= 6                     
    ProbeScope_SampleCh(&ProbeScope_Ch6);
 8002ab6:	480a      	ldr	r0, [pc, #40]	; (8002ae0 <ProbeScope_SampleChAll+0x4c>)
 8002ab8:	f000 f818 	bl	8002aec <ProbeScope_SampleCh>
#endif

#if PROBE_SCOPE_MAX_CH >= 7                     
    ProbeScope_SampleCh(&ProbeScope_Ch7);
 8002abc:	4809      	ldr	r0, [pc, #36]	; (8002ae4 <ProbeScope_SampleChAll+0x50>)
 8002abe:	f000 f815 	bl	8002aec <ProbeScope_SampleCh>
#endif                     

#if PROBE_SCOPE_MAX_CH >= 8                     
    ProbeScope_SampleCh(&ProbeScope_Ch8);
 8002ac2:	4809      	ldr	r0, [pc, #36]	; (8002ae8 <ProbeScope_SampleChAll+0x54>)
 8002ac4:	f000 f812 	bl	8002aec <ProbeScope_SampleCh>
#endif                     
}
 8002ac8:	bd80      	pop	{r7, pc}
 8002aca:	bf00      	nop
 8002acc:	1ffe8854 	.word	0x1ffe8854
 8002ad0:	1ffe980c 	.word	0x1ffe980c
 8002ad4:	1ffea7c4 	.word	0x1ffea7c4
 8002ad8:	1ffeb77c 	.word	0x1ffeb77c
 8002adc:	1ffec734 	.word	0x1ffec734
 8002ae0:	1ffed6ec 	.word	0x1ffed6ec
 8002ae4:	1ffee6a4 	.word	0x1ffee6a4
 8002ae8:	1ffef65c 	.word	0x1ffef65c

08002aec <ProbeScope_SampleCh>:
* Returns    : none
************************************************************************************************************************
*/

static  void  ProbeScope_SampleCh (PROBE_SCOPE_CH  *p_ch)
{
 8002aec:	b480      	push	{r7}
 8002aee:	b085      	sub	sp, #20
 8002af0:	af00      	add	r7, sp, #0
 8002af2:	6078      	str	r0, [r7, #4]
    PROBE_SCOPE_CH_SAMPLE   msk;                                    // Mask used to select desired bit when in bit mode.
    PROBE_SCOPE_CH_SAMPLE  *p_sample;                               // Pointer to where the sample will be stored


    if (p_ch->En == 1) {
 8002af4:	687b      	ldr	r3, [r7, #4]
 8002af6:	681b      	ldr	r3, [r3, #0]
 8002af8:	2b01      	cmp	r3, #1
 8002afa:	f040 80eb 	bne.w	8002cd4 <ProbeScope_SampleCh+0x1e8>
        p_sample = &p_ch->Samples[ProbeScope_SampleIxCur];          // Point to current position in sampling buffer
 8002afe:	4b78      	ldr	r3, [pc, #480]	; (8002ce0 <ProbeScope_SampleCh+0x1f4>)
 8002b00:	681b      	ldr	r3, [r3, #0]
 8002b02:	3306      	adds	r3, #6
 8002b04:	009b      	lsls	r3, r3, #2
 8002b06:	687a      	ldr	r2, [r7, #4]
 8002b08:	4413      	add	r3, r2
 8002b0a:	60fb      	str	r3, [r7, #12]
        switch (p_ch->DataType) {
 8002b0c:	687b      	ldr	r3, [r7, #4]
 8002b0e:	791b      	ldrb	r3, [r3, #4]
 8002b10:	2b06      	cmp	r3, #6
 8002b12:	f200 80df 	bhi.w	8002cd4 <ProbeScope_SampleCh+0x1e8>
 8002b16:	a201      	add	r2, pc, #4	; (adr r2, 8002b1c <ProbeScope_SampleCh+0x30>)
 8002b18:	f852 f023 	ldr.w	pc, [r2, r3, lsl #2]
 8002b1c:	08002b39 	.word	0x08002b39
 8002b20:	08002b7d 	.word	0x08002b7d
 8002b24:	08002bc1 	.word	0x08002bc1
 8002b28:	08002c05 	.word	0x08002c05
 8002b2c:	08002c49 	.word	0x08002c49
 8002b30:	08002c89 	.word	0x08002c89
 8002b34:	08002cc9 	.word	0x08002cc9
            case PROBE_SCOPE_INT08U:
                 if (p_ch->BitEn == 0) {
 8002b38:	687b      	ldr	r3, [r7, #4]
 8002b3a:	689b      	ldr	r3, [r3, #8]
 8002b3c:	2b00      	cmp	r3, #0
 8002b3e:	d105      	bne.n	8002b4c <ProbeScope_SampleCh+0x60>
                     p_sample->Val08U     = *(CPU_INT08U *)p_ch->DataAddr;
 8002b40:	687b      	ldr	r3, [r7, #4]
 8002b42:	691b      	ldr	r3, [r3, #16]
 8002b44:	781a      	ldrb	r2, [r3, #0]
 8002b46:	68fb      	ldr	r3, [r7, #12]
 8002b48:	701a      	strb	r2, [r3, #0]
 8002b4a:	e016      	b.n	8002b7a <ProbeScope_SampleCh+0x8e>
                 } else {
                     msk.Val08U           =  (CPU_INT08U)1 << p_ch->BitSel;
 8002b4c:	687b      	ldr	r3, [r7, #4]
 8002b4e:	7b1b      	ldrb	r3, [r3, #12]
 8002b50:	461a      	mov	r2, r3
 8002b52:	2301      	movs	r3, #1
 8002b54:	4093      	lsls	r3, r2
 8002b56:	b2db      	uxtb	r3, r3
 8002b58:	723b      	strb	r3, [r7, #8]
                     if (*(CPU_INT08U *)p_ch->DataAddr & msk.Val08U) {
 8002b5a:	687b      	ldr	r3, [r7, #4]
 8002b5c:	691b      	ldr	r3, [r3, #16]
 8002b5e:	781a      	ldrb	r2, [r3, #0]
 8002b60:	7a3b      	ldrb	r3, [r7, #8]
 8002b62:	4013      	ands	r3, r2
 8002b64:	b2db      	uxtb	r3, r3
 8002b66:	2b00      	cmp	r3, #0
 8002b68:	d003      	beq.n	8002b72 <ProbeScope_SampleCh+0x86>
                         p_sample->Val08U = 1;
 8002b6a:	68fb      	ldr	r3, [r7, #12]
 8002b6c:	2201      	movs	r2, #1
 8002b6e:	701a      	strb	r2, [r3, #0]
 8002b70:	e003      	b.n	8002b7a <ProbeScope_SampleCh+0x8e>
                     } else {
                         p_sample->Val08U = 0;
 8002b72:	68fb      	ldr	r3, [r7, #12]
 8002b74:	2200      	movs	r2, #0
 8002b76:	701a      	strb	r2, [r3, #0]
                     }
                 }
                 break;
 8002b78:	e0ac      	b.n	8002cd4 <ProbeScope_SampleCh+0x1e8>
 8002b7a:	e0ab      	b.n	8002cd4 <ProbeScope_SampleCh+0x1e8>
                                  
            case PROBE_SCOPE_INT08S:
                 if (p_ch->BitEn == 0) {
 8002b7c:	687b      	ldr	r3, [r7, #4]
 8002b7e:	689b      	ldr	r3, [r3, #8]
 8002b80:	2b00      	cmp	r3, #0
 8002b82:	d105      	bne.n	8002b90 <ProbeScope_SampleCh+0xa4>
                     p_sample->Val08S     = *(CPU_INT08S *)p_ch->DataAddr;
 8002b84:	687b      	ldr	r3, [r7, #4]
 8002b86:	691b      	ldr	r3, [r3, #16]
 8002b88:	781a      	ldrb	r2, [r3, #0]
 8002b8a:	68fb      	ldr	r3, [r7, #12]
 8002b8c:	701a      	strb	r2, [r3, #0]
 8002b8e:	e016      	b.n	8002bbe <ProbeScope_SampleCh+0xd2>
                 } else {
                     msk.Val08S           =  (CPU_INT08S)1 << p_ch->BitSel;
 8002b90:	687b      	ldr	r3, [r7, #4]
 8002b92:	7b1b      	ldrb	r3, [r3, #12]
 8002b94:	461a      	mov	r2, r3
 8002b96:	2301      	movs	r3, #1
 8002b98:	4093      	lsls	r3, r2
 8002b9a:	b2db      	uxtb	r3, r3
 8002b9c:	723b      	strb	r3, [r7, #8]
                     if (*(CPU_INT08S *)p_ch->DataAddr & msk.Val08S) {
 8002b9e:	687b      	ldr	r3, [r7, #4]
 8002ba0:	691b      	ldr	r3, [r3, #16]
 8002ba2:	781a      	ldrb	r2, [r3, #0]
 8002ba4:	7a3b      	ldrb	r3, [r7, #8]
 8002ba6:	4013      	ands	r3, r2
 8002ba8:	b2db      	uxtb	r3, r3
 8002baa:	2b00      	cmp	r3, #0
 8002bac:	d003      	beq.n	8002bb6 <ProbeScope_SampleCh+0xca>
                         p_sample->Val08S = 1;
 8002bae:	68fb      	ldr	r3, [r7, #12]
 8002bb0:	2201      	movs	r2, #1
 8002bb2:	701a      	strb	r2, [r3, #0]
 8002bb4:	e003      	b.n	8002bbe <ProbeScope_SampleCh+0xd2>
                     } else {
                         p_sample->Val08S = 0;
 8002bb6:	68fb      	ldr	r3, [r7, #12]
 8002bb8:	2200      	movs	r2, #0
 8002bba:	701a      	strb	r2, [r3, #0]
                     }
                 }
                 break;
 8002bbc:	e08a      	b.n	8002cd4 <ProbeScope_SampleCh+0x1e8>
 8002bbe:	e089      	b.n	8002cd4 <ProbeScope_SampleCh+0x1e8>
                                  
#if PROBE_SCOPE_16_BIT_EN > 0                                   
            case PROBE_SCOPE_INT16U:
                 if (p_ch->BitEn == 0) {
 8002bc0:	687b      	ldr	r3, [r7, #4]
 8002bc2:	689b      	ldr	r3, [r3, #8]
 8002bc4:	2b00      	cmp	r3, #0
 8002bc6:	d105      	bne.n	8002bd4 <ProbeScope_SampleCh+0xe8>
                     p_sample->Val16U     = *(CPU_INT16U *)p_ch->DataAddr;
 8002bc8:	687b      	ldr	r3, [r7, #4]
 8002bca:	691b      	ldr	r3, [r3, #16]
 8002bcc:	881a      	ldrh	r2, [r3, #0]
 8002bce:	68fb      	ldr	r3, [r7, #12]
 8002bd0:	801a      	strh	r2, [r3, #0]
 8002bd2:	e016      	b.n	8002c02 <ProbeScope_SampleCh+0x116>
                 } else {
                     msk.Val16U           =  (CPU_INT16U)1 << p_ch->BitSel;
 8002bd4:	687b      	ldr	r3, [r7, #4]
 8002bd6:	7b1b      	ldrb	r3, [r3, #12]
 8002bd8:	461a      	mov	r2, r3
 8002bda:	2301      	movs	r3, #1
 8002bdc:	4093      	lsls	r3, r2
 8002bde:	b29b      	uxth	r3, r3
 8002be0:	813b      	strh	r3, [r7, #8]
                     if (*(CPU_INT16U *)p_ch->DataAddr & msk.Val16U) {
 8002be2:	687b      	ldr	r3, [r7, #4]
 8002be4:	691b      	ldr	r3, [r3, #16]
 8002be6:	881a      	ldrh	r2, [r3, #0]
 8002be8:	893b      	ldrh	r3, [r7, #8]
 8002bea:	4013      	ands	r3, r2
 8002bec:	b29b      	uxth	r3, r3
 8002bee:	2b00      	cmp	r3, #0
 8002bf0:	d003      	beq.n	8002bfa <ProbeScope_SampleCh+0x10e>
                         p_sample->Val16U = 1;
 8002bf2:	68fb      	ldr	r3, [r7, #12]
 8002bf4:	2201      	movs	r2, #1
 8002bf6:	801a      	strh	r2, [r3, #0]
 8002bf8:	e003      	b.n	8002c02 <ProbeScope_SampleCh+0x116>
                     } else {
                         p_sample->Val16U = 0;
 8002bfa:	68fb      	ldr	r3, [r7, #12]
 8002bfc:	2200      	movs	r2, #0
 8002bfe:	801a      	strh	r2, [r3, #0]
                     }
                 }
                 break;
 8002c00:	e068      	b.n	8002cd4 <ProbeScope_SampleCh+0x1e8>
 8002c02:	e067      	b.n	8002cd4 <ProbeScope_SampleCh+0x1e8>
                                  
            case PROBE_SCOPE_INT16S:
                 if (p_ch->BitEn == 0) {
 8002c04:	687b      	ldr	r3, [r7, #4]
 8002c06:	689b      	ldr	r3, [r3, #8]
 8002c08:	2b00      	cmp	r3, #0
 8002c0a:	d105      	bne.n	8002c18 <ProbeScope_SampleCh+0x12c>
                     p_sample->Val16S     = *(CPU_INT16S *)p_ch->DataAddr;
 8002c0c:	687b      	ldr	r3, [r7, #4]
 8002c0e:	691b      	ldr	r3, [r3, #16]
 8002c10:	881a      	ldrh	r2, [r3, #0]
 8002c12:	68fb      	ldr	r3, [r7, #12]
 8002c14:	801a      	strh	r2, [r3, #0]
 8002c16:	e016      	b.n	8002c46 <ProbeScope_SampleCh+0x15a>
                 } else {
                     msk.Val16S           =  (CPU_INT16S)1 << p_ch->BitSel;
 8002c18:	687b      	ldr	r3, [r7, #4]
 8002c1a:	7b1b      	ldrb	r3, [r3, #12]
 8002c1c:	461a      	mov	r2, r3
 8002c1e:	2301      	movs	r3, #1
 8002c20:	4093      	lsls	r3, r2
 8002c22:	b29b      	uxth	r3, r3
 8002c24:	813b      	strh	r3, [r7, #8]
                     if (*(CPU_INT16S *)p_ch->DataAddr & msk.Val16S) {
 8002c26:	687b      	ldr	r3, [r7, #4]
 8002c28:	691b      	ldr	r3, [r3, #16]
 8002c2a:	881a      	ldrh	r2, [r3, #0]
 8002c2c:	893b      	ldrh	r3, [r7, #8]
 8002c2e:	4013      	ands	r3, r2
 8002c30:	b29b      	uxth	r3, r3
 8002c32:	2b00      	cmp	r3, #0
 8002c34:	d003      	beq.n	8002c3e <ProbeScope_SampleCh+0x152>
                         p_sample->Val16S = 1;
 8002c36:	68fb      	ldr	r3, [r7, #12]
 8002c38:	2201      	movs	r2, #1
 8002c3a:	801a      	strh	r2, [r3, #0]
 8002c3c:	e003      	b.n	8002c46 <ProbeScope_SampleCh+0x15a>
                     } else {
                         p_sample->Val16S = 0;
 8002c3e:	68fb      	ldr	r3, [r7, #12]
 8002c40:	2200      	movs	r2, #0
 8002c42:	801a      	strh	r2, [r3, #0]
                     }
                 }
                 break;
 8002c44:	e046      	b.n	8002cd4 <ProbeScope_SampleCh+0x1e8>
 8002c46:	e045      	b.n	8002cd4 <ProbeScope_SampleCh+0x1e8>
#endif

#if PROBE_SCOPE_32_BIT_EN > 0                                   
            case PROBE_SCOPE_INT32U:
                 if (p_ch->BitEn == 0) {
 8002c48:	687b      	ldr	r3, [r7, #4]
 8002c4a:	689b      	ldr	r3, [r3, #8]
 8002c4c:	2b00      	cmp	r3, #0
 8002c4e:	d105      	bne.n	8002c5c <ProbeScope_SampleCh+0x170>
                     p_sample->Val32U     = *(CPU_INT32U *)p_ch->DataAddr;
 8002c50:	687b      	ldr	r3, [r7, #4]
 8002c52:	691b      	ldr	r3, [r3, #16]
 8002c54:	681a      	ldr	r2, [r3, #0]
 8002c56:	68fb      	ldr	r3, [r7, #12]
 8002c58:	601a      	str	r2, [r3, #0]
 8002c5a:	e014      	b.n	8002c86 <ProbeScope_SampleCh+0x19a>
                 } else {
                     msk.Val32U           =  (CPU_INT32U)1 << p_ch->BitSel;
 8002c5c:	687b      	ldr	r3, [r7, #4]
 8002c5e:	7b1b      	ldrb	r3, [r3, #12]
 8002c60:	461a      	mov	r2, r3
 8002c62:	2301      	movs	r3, #1
 8002c64:	4093      	lsls	r3, r2
 8002c66:	60bb      	str	r3, [r7, #8]
                     if (*(CPU_INT32U *)p_ch->DataAddr & msk.Val32U) {
 8002c68:	687b      	ldr	r3, [r7, #4]
 8002c6a:	691b      	ldr	r3, [r3, #16]
 8002c6c:	681a      	ldr	r2, [r3, #0]
 8002c6e:	68bb      	ldr	r3, [r7, #8]
 8002c70:	4013      	ands	r3, r2
 8002c72:	2b00      	cmp	r3, #0
 8002c74:	d003      	beq.n	8002c7e <ProbeScope_SampleCh+0x192>
                         p_sample->Val32U = 1;
 8002c76:	68fb      	ldr	r3, [r7, #12]
 8002c78:	2201      	movs	r2, #1
 8002c7a:	601a      	str	r2, [r3, #0]
 8002c7c:	e003      	b.n	8002c86 <ProbeScope_SampleCh+0x19a>
                     } else {
                         p_sample->Val32U = 0;
 8002c7e:	68fb      	ldr	r3, [r7, #12]
 8002c80:	2200      	movs	r2, #0
 8002c82:	601a      	str	r2, [r3, #0]
                     }
                 }
                 break;
 8002c84:	e026      	b.n	8002cd4 <ProbeScope_SampleCh+0x1e8>
 8002c86:	e025      	b.n	8002cd4 <ProbeScope_SampleCh+0x1e8>
                                  
            case PROBE_SCOPE_INT32S:
                 if (p_ch->BitEn == 0) {
 8002c88:	687b      	ldr	r3, [r7, #4]
 8002c8a:	689b      	ldr	r3, [r3, #8]
 8002c8c:	2b00      	cmp	r3, #0
 8002c8e:	d105      	bne.n	8002c9c <ProbeScope_SampleCh+0x1b0>
                     p_sample->Val32S     = *(CPU_INT32S *)p_ch->DataAddr;
 8002c90:	687b      	ldr	r3, [r7, #4]
 8002c92:	691b      	ldr	r3, [r3, #16]
 8002c94:	681a      	ldr	r2, [r3, #0]
 8002c96:	68fb      	ldr	r3, [r7, #12]
 8002c98:	601a      	str	r2, [r3, #0]
 8002c9a:	e014      	b.n	8002cc6 <ProbeScope_SampleCh+0x1da>
                 } else {
                     msk.Val32S           =  (CPU_INT32S)1 << p_ch->BitSel;
 8002c9c:	687b      	ldr	r3, [r7, #4]
 8002c9e:	7b1b      	ldrb	r3, [r3, #12]
 8002ca0:	461a      	mov	r2, r3
 8002ca2:	2301      	movs	r3, #1
 8002ca4:	4093      	lsls	r3, r2
 8002ca6:	60bb      	str	r3, [r7, #8]
                     if (*(CPU_INT32S *)p_ch->DataAddr & msk.Val32S) {
 8002ca8:	687b      	ldr	r3, [r7, #4]
 8002caa:	691b      	ldr	r3, [r3, #16]
 8002cac:	681a      	ldr	r2, [r3, #0]
 8002cae:	68bb      	ldr	r3, [r7, #8]
 8002cb0:	4013      	ands	r3, r2
 8002cb2:	2b00      	cmp	r3, #0
 8002cb4:	d003      	beq.n	8002cbe <ProbeScope_SampleCh+0x1d2>
                         p_sample->Val32S = 1;
 8002cb6:	68fb      	ldr	r3, [r7, #12]
 8002cb8:	2201      	movs	r2, #1
 8002cba:	601a      	str	r2, [r3, #0]
 8002cbc:	e003      	b.n	8002cc6 <ProbeScope_SampleCh+0x1da>
                     } else {
                         p_sample->Val32S = 0;
 8002cbe:	68fb      	ldr	r3, [r7, #12]
 8002cc0:	2200      	movs	r2, #0
 8002cc2:	601a      	str	r2, [r3, #0]
                     }
                 }
                 break;
 8002cc4:	e006      	b.n	8002cd4 <ProbeScope_SampleCh+0x1e8>
 8002cc6:	e005      	b.n	8002cd4 <ProbeScope_SampleCh+0x1e8>
                                  
            case PROBE_SCOPE_FP32:
                 p_sample->ValFP32  = *(CPU_FP32   *)p_ch->DataAddr;
 8002cc8:	687b      	ldr	r3, [r7, #4]
 8002cca:	691b      	ldr	r3, [r3, #16]
 8002ccc:	681a      	ldr	r2, [r3, #0]
 8002cce:	68fb      	ldr	r3, [r7, #12]
 8002cd0:	601a      	str	r2, [r3, #0]
                 break;
 8002cd2:	bf00      	nop
#endif
        }                          
    }
}
 8002cd4:	3714      	adds	r7, #20
 8002cd6:	46bd      	mov	sp, r7
 8002cd8:	f85d 7b04 	ldr.w	r7, [sp], #4
 8002cdc:	4770      	bx	lr
 8002cde:	bf00      	nop
 8002ce0:	1fff0624 	.word	0x1fff0624

08002ce4 <ProbeScope_SamplePosNext>:
* Returns    : none
************************************************************************************************************************
*/

static  void  ProbeScope_SamplePosNext (void)
{
 8002ce4:	b480      	push	{r7}
 8002ce6:	af00      	add	r7, sp, #0
    ProbeScope_SampleIxPrev = ProbeScope_SampleIxCur;              // Update the position of the previous sample
 8002ce8:	4b0a      	ldr	r3, [pc, #40]	; (8002d14 <ProbeScope_SamplePosNext+0x30>)
 8002cea:	681b      	ldr	r3, [r3, #0]
 8002cec:	4a0a      	ldr	r2, [pc, #40]	; (8002d18 <ProbeScope_SamplePosNext+0x34>)
 8002cee:	6013      	str	r3, [r2, #0]
    ProbeScope_SampleIxCur++;                                      // Position to where next sample will be placed
 8002cf0:	4b08      	ldr	r3, [pc, #32]	; (8002d14 <ProbeScope_SamplePosNext+0x30>)
 8002cf2:	681b      	ldr	r3, [r3, #0]
 8002cf4:	3301      	adds	r3, #1
 8002cf6:	4a07      	ldr	r2, [pc, #28]	; (8002d14 <ProbeScope_SamplePosNext+0x30>)
 8002cf8:	6013      	str	r3, [r2, #0]
    if (ProbeScope_SampleIxCur >= PROBE_SCOPE_MAX_SAMPLES) {       // See if we need to wrap around
 8002cfa:	4b06      	ldr	r3, [pc, #24]	; (8002d14 <ProbeScope_SamplePosNext+0x30>)
 8002cfc:	681b      	ldr	r3, [r3, #0]
 8002cfe:	f5b3 7f7a 	cmp.w	r3, #1000	; 0x3e8
 8002d02:	d302      	bcc.n	8002d0a <ProbeScope_SamplePosNext+0x26>
        ProbeScope_SampleIxCur = 0;                                // yes
 8002d04:	4b03      	ldr	r3, [pc, #12]	; (8002d14 <ProbeScope_SamplePosNext+0x30>)
 8002d06:	2200      	movs	r2, #0
 8002d08:	601a      	str	r2, [r3, #0]
    }
}
 8002d0a:	46bd      	mov	sp, r7
 8002d0c:	f85d 7b04 	ldr.w	r7, [sp], #4
 8002d10:	4770      	bx	lr
 8002d12:	bf00      	nop
 8002d14:	1fff0624 	.word	0x1fff0624
 8002d18:	1fff0620 	.word	0x1fff0620

08002d1c <ProbeScope_IsTrig>:
*              Sets ProbeScope_TrigFlag to 0 when no trigger is detected
************************************************************************************************************************
*/

static  void  ProbeScope_IsTrig (void)
{
 8002d1c:	b480      	push	{r7}
 8002d1e:	b085      	sub	sp, #20
 8002d20:	af00      	add	r7, sp, #0
    PROBE_SCOPE_CH          *p_ch;
    PROBE_SCOPE_CH_SAMPLE   *p_sample_prev;
    PROBE_SCOPE_CH_SAMPLE   *p_sample_cur;
    

    switch (ProbeScope_TrigChSel) {
 8002d22:	4b90      	ldr	r3, [pc, #576]	; (8002f64 <ProbeScope_IsTrig+0x248>)
 8002d24:	781b      	ldrb	r3, [r3, #0]
 8002d26:	3b01      	subs	r3, #1
 8002d28:	2b07      	cmp	r3, #7
 8002d2a:	d82b      	bhi.n	8002d84 <ProbeScope_IsTrig+0x68>
 8002d2c:	a201      	add	r2, pc, #4	; (adr r2, 8002d34 <ProbeScope_IsTrig+0x18>)
 8002d2e:	f852 f023 	ldr.w	pc, [r2, r3, lsl #2]
 8002d32:	bf00      	nop
 8002d34:	08002d55 	.word	0x08002d55
 8002d38:	08002d5b 	.word	0x08002d5b
 8002d3c:	08002d61 	.word	0x08002d61
 8002d40:	08002d67 	.word	0x08002d67
 8002d44:	08002d6d 	.word	0x08002d6d
 8002d48:	08002d73 	.word	0x08002d73
 8002d4c:	08002d79 	.word	0x08002d79
 8002d50:	08002d7f 	.word	0x08002d7f
        case PROBE_SCOPE_CH1:
             p_ch = &ProbeScope_Ch1;
 8002d54:	4b84      	ldr	r3, [pc, #528]	; (8002f68 <ProbeScope_IsTrig+0x24c>)
 8002d56:	60fb      	str	r3, [r7, #12]
             break;
 8002d58:	e01a      	b.n	8002d90 <ProbeScope_IsTrig+0x74>
             
#if PROBE_SCOPE_MAX_CH >= 2
        case PROBE_SCOPE_CH2:
             p_ch = &ProbeScope_Ch2;
 8002d5a:	4b84      	ldr	r3, [pc, #528]	; (8002f6c <ProbeScope_IsTrig+0x250>)
 8002d5c:	60fb      	str	r3, [r7, #12]
             break;
 8002d5e:	e017      	b.n	8002d90 <ProbeScope_IsTrig+0x74>
#endif
             
#if PROBE_SCOPE_MAX_CH >= 3
        case PROBE_SCOPE_CH3:
             p_ch = &ProbeScope_Ch3;
 8002d60:	4b83      	ldr	r3, [pc, #524]	; (8002f70 <ProbeScope_IsTrig+0x254>)
 8002d62:	60fb      	str	r3, [r7, #12]
             break;
 8002d64:	e014      	b.n	8002d90 <ProbeScope_IsTrig+0x74>
#endif             
             
#if PROBE_SCOPE_MAX_CH >= 4
        case PROBE_SCOPE_CH4:
             p_ch = &ProbeScope_Ch4;
 8002d66:	4b83      	ldr	r3, [pc, #524]	; (8002f74 <ProbeScope_IsTrig+0x258>)
 8002d68:	60fb      	str	r3, [r7, #12]
             break;
 8002d6a:	e011      	b.n	8002d90 <ProbeScope_IsTrig+0x74>
#endif
             
#if PROBE_SCOPE_MAX_CH >= 5
        case PROBE_SCOPE_CH5:
             p_ch = &ProbeScope_Ch5;
 8002d6c:	4b82      	ldr	r3, [pc, #520]	; (8002f78 <ProbeScope_IsTrig+0x25c>)
 8002d6e:	60fb      	str	r3, [r7, #12]
             break;
 8002d70:	e00e      	b.n	8002d90 <ProbeScope_IsTrig+0x74>
#endif
             
#if PROBE_SCOPE_MAX_CH >= 6
        case PROBE_SCOPE_CH6:
             p_ch = &ProbeScope_Ch6;
 8002d72:	4b82      	ldr	r3, [pc, #520]	; (8002f7c <ProbeScope_IsTrig+0x260>)
 8002d74:	60fb      	str	r3, [r7, #12]
             break;
 8002d76:	e00b      	b.n	8002d90 <ProbeScope_IsTrig+0x74>
#endif             
             
#if PROBE_SCOPE_MAX_CH >= 7
        case PROBE_SCOPE_CH7:
             p_ch = &ProbeScope_Ch7;
 8002d78:	4b81      	ldr	r3, [pc, #516]	; (8002f80 <ProbeScope_IsTrig+0x264>)
 8002d7a:	60fb      	str	r3, [r7, #12]
             break;
 8002d7c:	e008      	b.n	8002d90 <ProbeScope_IsTrig+0x74>
#endif
             
#if PROBE_SCOPE_MAX_CH >= 8
        case PROBE_SCOPE_CH8:
             p_ch = &ProbeScope_Ch8;
 8002d7e:	4b81      	ldr	r3, [pc, #516]	; (8002f84 <ProbeScope_IsTrig+0x268>)
 8002d80:	60fb      	str	r3, [r7, #12]
             break;
 8002d82:	e005      	b.n	8002d90 <ProbeScope_IsTrig+0x74>
#endif
             
        default:
             p_ch                 = &ProbeScope_Ch1;
 8002d84:	4b78      	ldr	r3, [pc, #480]	; (8002f68 <ProbeScope_IsTrig+0x24c>)
 8002d86:	60fb      	str	r3, [r7, #12]
             ProbeScope_TrigChSel = PROBE_SCOPE_CH1;
 8002d88:	4b76      	ldr	r3, [pc, #472]	; (8002f64 <ProbeScope_IsTrig+0x248>)
 8002d8a:	2201      	movs	r2, #1
 8002d8c:	701a      	strb	r2, [r3, #0]
             break;
 8002d8e:	bf00      	nop
    }         
    ProbeScope_TrigFlag = 0;
 8002d90:	4b7d      	ldr	r3, [pc, #500]	; (8002f88 <ProbeScope_IsTrig+0x26c>)
 8002d92:	2200      	movs	r2, #0
 8002d94:	601a      	str	r2, [r3, #0]
    if (p_ch->En == 1) {
 8002d96:	68fb      	ldr	r3, [r7, #12]
 8002d98:	681b      	ldr	r3, [r3, #0]
 8002d9a:	2b01      	cmp	r3, #1
 8002d9c:	f040 8308 	bne.w	80033b0 <ProbeScope_IsTrig+0x694>
        p_sample_prev = &p_ch->Samples[ProbeScope_SampleIxPrev];          // Point to previous position in sampling buffer
 8002da0:	4b7a      	ldr	r3, [pc, #488]	; (8002f8c <ProbeScope_IsTrig+0x270>)
 8002da2:	681b      	ldr	r3, [r3, #0]
 8002da4:	3306      	adds	r3, #6
 8002da6:	009b      	lsls	r3, r3, #2
 8002da8:	68fa      	ldr	r2, [r7, #12]
 8002daa:	4413      	add	r3, r2
 8002dac:	60bb      	str	r3, [r7, #8]
        p_sample_cur  = &p_ch->Samples[ProbeScope_SampleIxCur];           // Point to current  position in sampling buffer
 8002dae:	4b78      	ldr	r3, [pc, #480]	; (8002f90 <ProbeScope_IsTrig+0x274>)
 8002db0:	681b      	ldr	r3, [r3, #0]
 8002db2:	3306      	adds	r3, #6
 8002db4:	009b      	lsls	r3, r3, #2
 8002db6:	68fa      	ldr	r2, [r7, #12]
 8002db8:	4413      	add	r3, r2
 8002dba:	607b      	str	r3, [r7, #4]
        if (ProbeScope_TrigSlope == PROBE_SCOPE_TRIG_POS) {
 8002dbc:	4b75      	ldr	r3, [pc, #468]	; (8002f94 <ProbeScope_IsTrig+0x278>)
 8002dbe:	681b      	ldr	r3, [r3, #0]
 8002dc0:	2b01      	cmp	r3, #1
 8002dc2:	f040 8187 	bne.w	80030d4 <ProbeScope_IsTrig+0x3b8>
            switch (p_ch->DataType) {
 8002dc6:	68fb      	ldr	r3, [r7, #12]
 8002dc8:	791b      	ldrb	r3, [r3, #4]
 8002dca:	2b06      	cmp	r3, #6
 8002dcc:	f200 82f0 	bhi.w	80033b0 <ProbeScope_IsTrig+0x694>
 8002dd0:	a201      	add	r2, pc, #4	; (adr r2, 8002dd8 <ProbeScope_IsTrig+0xbc>)
 8002dd2:	f852 f023 	ldr.w	pc, [r2, r3, lsl #2]
 8002dd6:	bf00      	nop
 8002dd8:	08002df5 	.word	0x08002df5
 8002ddc:	08002e53 	.word	0x08002e53
 8002de0:	08002ebd 	.word	0x08002ebd
 8002de4:	08002f1b 	.word	0x08002f1b
 8002de8:	08002fbf 	.word	0x08002fbf
 8002dec:	0800301d 	.word	0x0800301d
 8002df0:	0800307b 	.word	0x0800307b
                case PROBE_SCOPE_INT08U:
                     if (p_ch->BitEn == 0) {
 8002df4:	68fb      	ldr	r3, [r7, #12]
 8002df6:	689b      	ldr	r3, [r3, #8]
 8002df8:	2b00      	cmp	r3, #0
 8002dfa:	d119      	bne.n	8002e30 <ProbeScope_IsTrig+0x114>
                         if (p_sample_prev->Val08U < p_sample_cur->Val08U) {
 8002dfc:	68bb      	ldr	r3, [r7, #8]
 8002dfe:	781a      	ldrb	r2, [r3, #0]
 8002e00:	687b      	ldr	r3, [r7, #4]
 8002e02:	781b      	ldrb	r3, [r3, #0]
 8002e04:	429a      	cmp	r2, r3
 8002e06:	d223      	bcs.n	8002e50 <ProbeScope_IsTrig+0x134>
                             if (p_sample_prev->Val08U <= p_ch->TrigLevel.Val08U) {
 8002e08:	68bb      	ldr	r3, [r7, #8]
 8002e0a:	781a      	ldrb	r2, [r3, #0]
 8002e0c:	68fb      	ldr	r3, [r7, #12]
 8002e0e:	7d1b      	ldrb	r3, [r3, #20]
 8002e10:	429a      	cmp	r2, r3
 8002e12:	d81d      	bhi.n	8002e50 <ProbeScope_IsTrig+0x134>
                                 if (p_sample_cur->Val08U >= p_ch->TrigLevel.Val08U) {
 8002e14:	687b      	ldr	r3, [r7, #4]
 8002e16:	781a      	ldrb	r2, [r3, #0]
 8002e18:	68fb      	ldr	r3, [r7, #12]
 8002e1a:	7d1b      	ldrb	r3, [r3, #20]
 8002e1c:	429a      	cmp	r2, r3
 8002e1e:	d317      	bcc.n	8002e50 <ProbeScope_IsTrig+0x134>
                                     ProbeScope_TrigFlag = 1;
 8002e20:	4b59      	ldr	r3, [pc, #356]	; (8002f88 <ProbeScope_IsTrig+0x26c>)
 8002e22:	2201      	movs	r2, #1
 8002e24:	601a      	str	r2, [r3, #0]
                                     ProbeScope_TrigIx   = ProbeScope_SampleIxCur; 
 8002e26:	4b5a      	ldr	r3, [pc, #360]	; (8002f90 <ProbeScope_IsTrig+0x274>)
 8002e28:	681b      	ldr	r3, [r3, #0]
 8002e2a:	4a5b      	ldr	r2, [pc, #364]	; (8002f98 <ProbeScope_IsTrig+0x27c>)
 8002e2c:	6013      	str	r3, [r2, #0]
                                 ProbeScope_TrigFlag = 1;
                                 ProbeScope_TrigIx   = ProbeScope_SampleIxCur; 
                             }
                         }
                     }
                     break;
 8002e2e:	e150      	b.n	80030d2 <ProbeScope_IsTrig+0x3b6>
                                     ProbeScope_TrigIx   = ProbeScope_SampleIxCur; 
                                 }
                             }
                         }
                     } else {
                         if (p_sample_prev->Val08U == 0) {
 8002e30:	68bb      	ldr	r3, [r7, #8]
 8002e32:	781b      	ldrb	r3, [r3, #0]
 8002e34:	2b00      	cmp	r3, #0
 8002e36:	d10b      	bne.n	8002e50 <ProbeScope_IsTrig+0x134>
                             if (p_sample_cur->Val08U != 0) { 
 8002e38:	687b      	ldr	r3, [r7, #4]
 8002e3a:	781b      	ldrb	r3, [r3, #0]
 8002e3c:	2b00      	cmp	r3, #0
 8002e3e:	d007      	beq.n	8002e50 <ProbeScope_IsTrig+0x134>
                                 ProbeScope_TrigFlag = 1;
 8002e40:	4b51      	ldr	r3, [pc, #324]	; (8002f88 <ProbeScope_IsTrig+0x26c>)
 8002e42:	2201      	movs	r2, #1
 8002e44:	601a      	str	r2, [r3, #0]
                                 ProbeScope_TrigIx   = ProbeScope_SampleIxCur; 
 8002e46:	4b52      	ldr	r3, [pc, #328]	; (8002f90 <ProbeScope_IsTrig+0x274>)
 8002e48:	681b      	ldr	r3, [r3, #0]
 8002e4a:	4a53      	ldr	r2, [pc, #332]	; (8002f98 <ProbeScope_IsTrig+0x27c>)
 8002e4c:	6013      	str	r3, [r2, #0]
                             }
                         }
                     }
                     break;
 8002e4e:	e140      	b.n	80030d2 <ProbeScope_IsTrig+0x3b6>
 8002e50:	e13f      	b.n	80030d2 <ProbeScope_IsTrig+0x3b6>
                     
                case PROBE_SCOPE_INT08S:
                     if (p_ch->BitEn == 0) {
 8002e52:	68fb      	ldr	r3, [r7, #12]
 8002e54:	689b      	ldr	r3, [r3, #8]
 8002e56:	2b00      	cmp	r3, #0
 8002e58:	d11f      	bne.n	8002e9a <ProbeScope_IsTrig+0x17e>
                         if (p_sample_prev->Val08S < p_sample_cur->Val08S) {
 8002e5a:	68bb      	ldr	r3, [r7, #8]
 8002e5c:	781a      	ldrb	r2, [r3, #0]
 8002e5e:	687b      	ldr	r3, [r7, #4]
 8002e60:	781b      	ldrb	r3, [r3, #0]
 8002e62:	b252      	sxtb	r2, r2
 8002e64:	b25b      	sxtb	r3, r3
 8002e66:	429a      	cmp	r2, r3
 8002e68:	da27      	bge.n	8002eba <ProbeScope_IsTrig+0x19e>
                             if (p_sample_prev->Val08S <= p_ch->TrigLevel.Val08S) {
 8002e6a:	68bb      	ldr	r3, [r7, #8]
 8002e6c:	781a      	ldrb	r2, [r3, #0]
 8002e6e:	68fb      	ldr	r3, [r7, #12]
 8002e70:	7d1b      	ldrb	r3, [r3, #20]
 8002e72:	b252      	sxtb	r2, r2
 8002e74:	b25b      	sxtb	r3, r3
 8002e76:	429a      	cmp	r2, r3
 8002e78:	dc1f      	bgt.n	8002eba <ProbeScope_IsTrig+0x19e>
                                 if (p_sample_cur->Val08S >= p_ch->TrigLevel.Val08S) {
 8002e7a:	687b      	ldr	r3, [r7, #4]
 8002e7c:	781a      	ldrb	r2, [r3, #0]
 8002e7e:	68fb      	ldr	r3, [r7, #12]
 8002e80:	7d1b      	ldrb	r3, [r3, #20]
 8002e82:	b252      	sxtb	r2, r2
 8002e84:	b25b      	sxtb	r3, r3
 8002e86:	429a      	cmp	r2, r3
 8002e88:	db17      	blt.n	8002eba <ProbeScope_IsTrig+0x19e>
                                     ProbeScope_TrigFlag = 1;
 8002e8a:	4b3f      	ldr	r3, [pc, #252]	; (8002f88 <ProbeScope_IsTrig+0x26c>)
 8002e8c:	2201      	movs	r2, #1
 8002e8e:	601a      	str	r2, [r3, #0]
                                     ProbeScope_TrigIx   = ProbeScope_SampleIxCur; 
 8002e90:	4b3f      	ldr	r3, [pc, #252]	; (8002f90 <ProbeScope_IsTrig+0x274>)
 8002e92:	681b      	ldr	r3, [r3, #0]
 8002e94:	4a40      	ldr	r2, [pc, #256]	; (8002f98 <ProbeScope_IsTrig+0x27c>)
 8002e96:	6013      	str	r3, [r2, #0]
                                 ProbeScope_TrigFlag = 1;
                                 ProbeScope_TrigIx   = ProbeScope_SampleIxCur; 
                             }
                         }
                     }
                     break;
 8002e98:	e11b      	b.n	80030d2 <ProbeScope_IsTrig+0x3b6>
                                     ProbeScope_TrigIx   = ProbeScope_SampleIxCur; 
                                 }
                             }
                         }
                     } else {
                         if (p_sample_prev->Val08S == 0) {
 8002e9a:	68bb      	ldr	r3, [r7, #8]
 8002e9c:	781b      	ldrb	r3, [r3, #0]
 8002e9e:	2b00      	cmp	r3, #0
 8002ea0:	d10b      	bne.n	8002eba <ProbeScope_IsTrig+0x19e>
                             if (p_sample_cur->Val08S != 0) { 
 8002ea2:	687b      	ldr	r3, [r7, #4]
 8002ea4:	781b      	ldrb	r3, [r3, #0]
 8002ea6:	2b00      	cmp	r3, #0
 8002ea8:	d007      	beq.n	8002eba <ProbeScope_IsTrig+0x19e>
                                 ProbeScope_TrigFlag = 1;
 8002eaa:	4b37      	ldr	r3, [pc, #220]	; (8002f88 <ProbeScope_IsTrig+0x26c>)
 8002eac:	2201      	movs	r2, #1
 8002eae:	601a      	str	r2, [r3, #0]
                                 ProbeScope_TrigIx   = ProbeScope_SampleIxCur; 
 8002eb0:	4b37      	ldr	r3, [pc, #220]	; (8002f90 <ProbeScope_IsTrig+0x274>)
 8002eb2:	681b      	ldr	r3, [r3, #0]
 8002eb4:	4a38      	ldr	r2, [pc, #224]	; (8002f98 <ProbeScope_IsTrig+0x27c>)
 8002eb6:	6013      	str	r3, [r2, #0]
                             }
                         }
                     }
                     break;
 8002eb8:	e10b      	b.n	80030d2 <ProbeScope_IsTrig+0x3b6>
 8002eba:	e10a      	b.n	80030d2 <ProbeScope_IsTrig+0x3b6>

#if PROBE_SCOPE_16_BIT_EN > 0                                    
                case PROBE_SCOPE_INT16U:
                     if (p_ch->BitEn == 0) {
 8002ebc:	68fb      	ldr	r3, [r7, #12]
 8002ebe:	689b      	ldr	r3, [r3, #8]
 8002ec0:	2b00      	cmp	r3, #0
 8002ec2:	d119      	bne.n	8002ef8 <ProbeScope_IsTrig+0x1dc>
                         if (p_sample_prev->Val16U < p_sample_cur->Val16U) {
 8002ec4:	68bb      	ldr	r3, [r7, #8]
 8002ec6:	881a      	ldrh	r2, [r3, #0]
 8002ec8:	687b      	ldr	r3, [r7, #4]
 8002eca:	881b      	ldrh	r3, [r3, #0]
 8002ecc:	429a      	cmp	r2, r3
 8002ece:	d223      	bcs.n	8002f18 <ProbeScope_IsTrig+0x1fc>
                             if (p_sample_prev->Val16U <= p_ch->TrigLevel.Val16U) {
 8002ed0:	68bb      	ldr	r3, [r7, #8]
 8002ed2:	881a      	ldrh	r2, [r3, #0]
 8002ed4:	68fb      	ldr	r3, [r7, #12]
 8002ed6:	8a9b      	ldrh	r3, [r3, #20]
 8002ed8:	429a      	cmp	r2, r3
 8002eda:	d81d      	bhi.n	8002f18 <ProbeScope_IsTrig+0x1fc>
                                 if (p_sample_cur->Val16U >= p_ch->TrigLevel.Val16U) {
 8002edc:	687b      	ldr	r3, [r7, #4]
 8002ede:	881a      	ldrh	r2, [r3, #0]
 8002ee0:	68fb      	ldr	r3, [r7, #12]
 8002ee2:	8a9b      	ldrh	r3, [r3, #20]
 8002ee4:	429a      	cmp	r2, r3
 8002ee6:	d317      	bcc.n	8002f18 <ProbeScope_IsTrig+0x1fc>
                                     ProbeScope_TrigFlag = 1;
 8002ee8:	4b27      	ldr	r3, [pc, #156]	; (8002f88 <ProbeScope_IsTrig+0x26c>)
 8002eea:	2201      	movs	r2, #1
 8002eec:	601a      	str	r2, [r3, #0]
                                     ProbeScope_TrigIx   = ProbeScope_SampleIxCur; 
 8002eee:	4b28      	ldr	r3, [pc, #160]	; (8002f90 <ProbeScope_IsTrig+0x274>)
 8002ef0:	681b      	ldr	r3, [r3, #0]
 8002ef2:	4a29      	ldr	r2, [pc, #164]	; (8002f98 <ProbeScope_IsTrig+0x27c>)
 8002ef4:	6013      	str	r3, [r2, #0]
                                 ProbeScope_TrigFlag = 1;
                                 ProbeScope_TrigIx   = ProbeScope_SampleIxCur; 
                             }
                         }
                     }
                     break;
 8002ef6:	e0ec      	b.n	80030d2 <ProbeScope_IsTrig+0x3b6>
                                     ProbeScope_TrigIx   = ProbeScope_SampleIxCur; 
                                 }
                             }
                         }
                     } else {
                         if (p_sample_prev->Val16U == 0) {
 8002ef8:	68bb      	ldr	r3, [r7, #8]
 8002efa:	881b      	ldrh	r3, [r3, #0]
 8002efc:	2b00      	cmp	r3, #0
 8002efe:	d10b      	bne.n	8002f18 <ProbeScope_IsTrig+0x1fc>
                             if (p_sample_cur->Val16U != 0) { 
 8002f00:	687b      	ldr	r3, [r7, #4]
 8002f02:	881b      	ldrh	r3, [r3, #0]
 8002f04:	2b00      	cmp	r3, #0
 8002f06:	d007      	beq.n	8002f18 <ProbeScope_IsTrig+0x1fc>
                                 ProbeScope_TrigFlag = 1;
 8002f08:	4b1f      	ldr	r3, [pc, #124]	; (8002f88 <ProbeScope_IsTrig+0x26c>)
 8002f0a:	2201      	movs	r2, #1
 8002f0c:	601a      	str	r2, [r3, #0]
                                 ProbeScope_TrigIx   = ProbeScope_SampleIxCur; 
 8002f0e:	4b20      	ldr	r3, [pc, #128]	; (8002f90 <ProbeScope_IsTrig+0x274>)
 8002f10:	681b      	ldr	r3, [r3, #0]
 8002f12:	4a21      	ldr	r2, [pc, #132]	; (8002f98 <ProbeScope_IsTrig+0x27c>)
 8002f14:	6013      	str	r3, [r2, #0]
                             }
                         }
                     }
                     break;
 8002f16:	e0dc      	b.n	80030d2 <ProbeScope_IsTrig+0x3b6>
 8002f18:	e0db      	b.n	80030d2 <ProbeScope_IsTrig+0x3b6>
                     
                case PROBE_SCOPE_INT16S:
                     if (p_ch->BitEn == 0) {
 8002f1a:	68fb      	ldr	r3, [r7, #12]
 8002f1c:	689b      	ldr	r3, [r3, #8]
 8002f1e:	2b00      	cmp	r3, #0
 8002f20:	d13c      	bne.n	8002f9c <ProbeScope_IsTrig+0x280>
                         if (p_sample_prev->Val16S < p_sample_cur->Val16S) {
 8002f22:	68bb      	ldr	r3, [r7, #8]
 8002f24:	881a      	ldrh	r2, [r3, #0]
 8002f26:	687b      	ldr	r3, [r7, #4]
 8002f28:	881b      	ldrh	r3, [r3, #0]
 8002f2a:	b212      	sxth	r2, r2
 8002f2c:	b21b      	sxth	r3, r3
 8002f2e:	429a      	cmp	r2, r3
 8002f30:	da44      	bge.n	8002fbc <ProbeScope_IsTrig+0x2a0>
                             if (p_sample_prev->Val16S <= p_ch->TrigLevel.Val16S) {
 8002f32:	68bb      	ldr	r3, [r7, #8]
 8002f34:	881a      	ldrh	r2, [r3, #0]
 8002f36:	68fb      	ldr	r3, [r7, #12]
 8002f38:	8a9b      	ldrh	r3, [r3, #20]
 8002f3a:	b212      	sxth	r2, r2
 8002f3c:	b21b      	sxth	r3, r3
 8002f3e:	429a      	cmp	r2, r3
 8002f40:	dc3c      	bgt.n	8002fbc <ProbeScope_IsTrig+0x2a0>
                                 if (p_sample_cur->Val16S >= p_ch->TrigLevel.Val16S) {
 8002f42:	687b      	ldr	r3, [r7, #4]
 8002f44:	881a      	ldrh	r2, [r3, #0]
 8002f46:	68fb      	ldr	r3, [r7, #12]
 8002f48:	8a9b      	ldrh	r3, [r3, #20]
 8002f4a:	b212      	sxth	r2, r2
 8002f4c:	b21b      	sxth	r3, r3
 8002f4e:	429a      	cmp	r2, r3
 8002f50:	db34      	blt.n	8002fbc <ProbeScope_IsTrig+0x2a0>
                                     ProbeScope_TrigFlag = 1;
 8002f52:	4b0d      	ldr	r3, [pc, #52]	; (8002f88 <ProbeScope_IsTrig+0x26c>)
 8002f54:	2201      	movs	r2, #1
 8002f56:	601a      	str	r2, [r3, #0]
                                     ProbeScope_TrigIx   = ProbeScope_SampleIxCur; 
 8002f58:	4b0d      	ldr	r3, [pc, #52]	; (8002f90 <ProbeScope_IsTrig+0x274>)
 8002f5a:	681b      	ldr	r3, [r3, #0]
 8002f5c:	4a0e      	ldr	r2, [pc, #56]	; (8002f98 <ProbeScope_IsTrig+0x27c>)
 8002f5e:	6013      	str	r3, [r2, #0]
                                 ProbeScope_TrigFlag = 1;
                                 ProbeScope_TrigIx   = ProbeScope_SampleIxCur; 
                             }
                         }
                     }
                     break;
 8002f60:	e0b7      	b.n	80030d2 <ProbeScope_IsTrig+0x3b6>
 8002f62:	bf00      	nop
 8002f64:	1fff0615 	.word	0x1fff0615
 8002f68:	1ffe8854 	.word	0x1ffe8854
 8002f6c:	1ffe980c 	.word	0x1ffe980c
 8002f70:	1ffea7c4 	.word	0x1ffea7c4
 8002f74:	1ffeb77c 	.word	0x1ffeb77c
 8002f78:	1ffec734 	.word	0x1ffec734
 8002f7c:	1ffed6ec 	.word	0x1ffed6ec
 8002f80:	1ffee6a4 	.word	0x1ffee6a4
 8002f84:	1ffef65c 	.word	0x1ffef65c
 8002f88:	1fff0798 	.word	0x1fff0798
 8002f8c:	1fff0620 	.word	0x1fff0620
 8002f90:	1fff0624 	.word	0x1fff0624
 8002f94:	1fff061c 	.word	0x1fff061c
 8002f98:	1fff07a0 	.word	0x1fff07a0
                                     ProbeScope_TrigIx   = ProbeScope_SampleIxCur; 
                                 }
                             }
                         }
                     } else {
                         if (p_sample_prev->Val16S == 0) {
 8002f9c:	68bb      	ldr	r3, [r7, #8]
 8002f9e:	881b      	ldrh	r3, [r3, #0]
 8002fa0:	2b00      	cmp	r3, #0
 8002fa2:	d10b      	bne.n	8002fbc <ProbeScope_IsTrig+0x2a0>
                             if (p_sample_cur->Val16S != 0) { 
 8002fa4:	687b      	ldr	r3, [r7, #4]
 8002fa6:	881b      	ldrh	r3, [r3, #0]
 8002fa8:	2b00      	cmp	r3, #0
 8002faa:	d007      	beq.n	8002fbc <ProbeScope_IsTrig+0x2a0>
                                 ProbeScope_TrigFlag = 1;
 8002fac:	4b86      	ldr	r3, [pc, #536]	; (80031c8 <ProbeScope_IsTrig+0x4ac>)
 8002fae:	2201      	movs	r2, #1
 8002fb0:	601a      	str	r2, [r3, #0]
                                 ProbeScope_TrigIx   = ProbeScope_SampleIxCur; 
 8002fb2:	4b86      	ldr	r3, [pc, #536]	; (80031cc <ProbeScope_IsTrig+0x4b0>)
 8002fb4:	681b      	ldr	r3, [r3, #0]
 8002fb6:	4a86      	ldr	r2, [pc, #536]	; (80031d0 <ProbeScope_IsTrig+0x4b4>)
 8002fb8:	6013      	str	r3, [r2, #0]
                             }
                         }
                     }
                     break;
 8002fba:	e08a      	b.n	80030d2 <ProbeScope_IsTrig+0x3b6>
 8002fbc:	e089      	b.n	80030d2 <ProbeScope_IsTrig+0x3b6>
#endif

#if PROBE_SCOPE_32_BIT_EN > 0                                   
                case PROBE_SCOPE_INT32U:
                     if (p_ch->BitEn == 0) {
 8002fbe:	68fb      	ldr	r3, [r7, #12]
 8002fc0:	689b      	ldr	r3, [r3, #8]
 8002fc2:	2b00      	cmp	r3, #0
 8002fc4:	d119      	bne.n	8002ffa <ProbeScope_IsTrig+0x2de>
                         if (p_sample_prev->Val32U < p_sample_cur->Val32U) {
 8002fc6:	68bb      	ldr	r3, [r7, #8]
 8002fc8:	681a      	ldr	r2, [r3, #0]
 8002fca:	687b      	ldr	r3, [r7, #4]
 8002fcc:	681b      	ldr	r3, [r3, #0]
 8002fce:	429a      	cmp	r2, r3
 8002fd0:	d223      	bcs.n	800301a <ProbeScope_IsTrig+0x2fe>
                             if (p_sample_prev->Val32U <= p_ch->TrigLevel.Val32U) {
 8002fd2:	68bb      	ldr	r3, [r7, #8]
 8002fd4:	681a      	ldr	r2, [r3, #0]
 8002fd6:	68fb      	ldr	r3, [r7, #12]
 8002fd8:	695b      	ldr	r3, [r3, #20]
 8002fda:	429a      	cmp	r2, r3
 8002fdc:	d81d      	bhi.n	800301a <ProbeScope_IsTrig+0x2fe>
                                 if (p_sample_cur->Val32U >= p_ch->TrigLevel.Val32U) {
 8002fde:	687b      	ldr	r3, [r7, #4]
 8002fe0:	681a      	ldr	r2, [r3, #0]
 8002fe2:	68fb      	ldr	r3, [r7, #12]
 8002fe4:	695b      	ldr	r3, [r3, #20]
 8002fe6:	429a      	cmp	r2, r3
 8002fe8:	d317      	bcc.n	800301a <ProbeScope_IsTrig+0x2fe>
                                     ProbeScope_TrigFlag = 1;
 8002fea:	4b77      	ldr	r3, [pc, #476]	; (80031c8 <ProbeScope_IsTrig+0x4ac>)
 8002fec:	2201      	movs	r2, #1
 8002fee:	601a      	str	r2, [r3, #0]
                                     ProbeScope_TrigIx   = ProbeScope_SampleIxCur; 
 8002ff0:	4b76      	ldr	r3, [pc, #472]	; (80031cc <ProbeScope_IsTrig+0x4b0>)
 8002ff2:	681b      	ldr	r3, [r3, #0]
 8002ff4:	4a76      	ldr	r2, [pc, #472]	; (80031d0 <ProbeScope_IsTrig+0x4b4>)
 8002ff6:	6013      	str	r3, [r2, #0]
                                 ProbeScope_TrigFlag = 1;
                                 ProbeScope_TrigIx   = ProbeScope_SampleIxCur; 
                             }
                         }
                     }
                     break;
 8002ff8:	e06b      	b.n	80030d2 <ProbeScope_IsTrig+0x3b6>
                                     ProbeScope_TrigIx   = ProbeScope_SampleIxCur; 
                                 }
                             }
                         }
                     } else {
                         if (p_sample_prev->Val32U == 0) {
 8002ffa:	68bb      	ldr	r3, [r7, #8]
 8002ffc:	681b      	ldr	r3, [r3, #0]
 8002ffe:	2b00      	cmp	r3, #0
 8003000:	d10b      	bne.n	800301a <ProbeScope_IsTrig+0x2fe>
                             if (p_sample_cur->Val32U != 0) {
 8003002:	687b      	ldr	r3, [r7, #4]
 8003004:	681b      	ldr	r3, [r3, #0]
 8003006:	2b00      	cmp	r3, #0
 8003008:	d007      	beq.n	800301a <ProbeScope_IsTrig+0x2fe>
                                 ProbeScope_TrigFlag = 1;
 800300a:	4b6f      	ldr	r3, [pc, #444]	; (80031c8 <ProbeScope_IsTrig+0x4ac>)
 800300c:	2201      	movs	r2, #1
 800300e:	601a      	str	r2, [r3, #0]
                                 ProbeScope_TrigIx   = ProbeScope_SampleIxCur; 
 8003010:	4b6e      	ldr	r3, [pc, #440]	; (80031cc <ProbeScope_IsTrig+0x4b0>)
 8003012:	681b      	ldr	r3, [r3, #0]
 8003014:	4a6e      	ldr	r2, [pc, #440]	; (80031d0 <ProbeScope_IsTrig+0x4b4>)
 8003016:	6013      	str	r3, [r2, #0]
                             }
                         }
                     }
                     break;
 8003018:	e05b      	b.n	80030d2 <ProbeScope_IsTrig+0x3b6>
 800301a:	e05a      	b.n	80030d2 <ProbeScope_IsTrig+0x3b6>
                     
                case PROBE_SCOPE_INT32S:
                     if (p_ch->BitEn == 0) {
 800301c:	68fb      	ldr	r3, [r7, #12]
 800301e:	689b      	ldr	r3, [r3, #8]
 8003020:	2b00      	cmp	r3, #0
 8003022:	d119      	bne.n	8003058 <ProbeScope_IsTrig+0x33c>
                         if (p_sample_prev->Val32S < p_sample_cur->Val32S) {
 8003024:	68bb      	ldr	r3, [r7, #8]
 8003026:	681a      	ldr	r2, [r3, #0]
 8003028:	687b      	ldr	r3, [r7, #4]
 800302a:	681b      	ldr	r3, [r3, #0]
 800302c:	429a      	cmp	r2, r3
 800302e:	da23      	bge.n	8003078 <ProbeScope_IsTrig+0x35c>
                             if (p_sample_prev->Val32S <= p_ch->TrigLevel.Val32S) {
 8003030:	68bb      	ldr	r3, [r7, #8]
 8003032:	681a      	ldr	r2, [r3, #0]
 8003034:	68fb      	ldr	r3, [r7, #12]
 8003036:	695b      	ldr	r3, [r3, #20]
 8003038:	429a      	cmp	r2, r3
 800303a:	dc1d      	bgt.n	8003078 <ProbeScope_IsTrig+0x35c>
                                 if (p_sample_cur->Val32S >= p_ch->TrigLevel.Val32S) {
 800303c:	687b      	ldr	r3, [r7, #4]
 800303e:	681a      	ldr	r2, [r3, #0]
 8003040:	68fb      	ldr	r3, [r7, #12]
 8003042:	695b      	ldr	r3, [r3, #20]
 8003044:	429a      	cmp	r2, r3
 8003046:	db17      	blt.n	8003078 <ProbeScope_IsTrig+0x35c>
                                     ProbeScope_TrigFlag = 1;
 8003048:	4b5f      	ldr	r3, [pc, #380]	; (80031c8 <ProbeScope_IsTrig+0x4ac>)
 800304a:	2201      	movs	r2, #1
 800304c:	601a      	str	r2, [r3, #0]
                                     ProbeScope_TrigIx   = ProbeScope_SampleIxCur; 
 800304e:	4b5f      	ldr	r3, [pc, #380]	; (80031cc <ProbeScope_IsTrig+0x4b0>)
 8003050:	681b      	ldr	r3, [r3, #0]
 8003052:	4a5f      	ldr	r2, [pc, #380]	; (80031d0 <ProbeScope_IsTrig+0x4b4>)
 8003054:	6013      	str	r3, [r2, #0]
                                 ProbeScope_TrigFlag = 1;
                                 ProbeScope_TrigIx   = ProbeScope_SampleIxCur; 
                             }
                         }
                     }
                     break;
 8003056:	e03c      	b.n	80030d2 <ProbeScope_IsTrig+0x3b6>
                                     ProbeScope_TrigIx   = ProbeScope_SampleIxCur; 
                                 }
                             }
                         }
                     } else {
                         if (p_sample_prev->Val32S == 0) {
 8003058:	68bb      	ldr	r3, [r7, #8]
 800305a:	681b      	ldr	r3, [r3, #0]
 800305c:	2b00      	cmp	r3, #0
 800305e:	d10b      	bne.n	8003078 <ProbeScope_IsTrig+0x35c>
                             if (p_sample_cur->Val32S != 0) {
 8003060:	687b      	ldr	r3, [r7, #4]
 8003062:	681b      	ldr	r3, [r3, #0]
 8003064:	2b00      	cmp	r3, #0
 8003066:	d007      	beq.n	8003078 <ProbeScope_IsTrig+0x35c>
                                 ProbeScope_TrigFlag = 1;
 8003068:	4b57      	ldr	r3, [pc, #348]	; (80031c8 <ProbeScope_IsTrig+0x4ac>)
 800306a:	2201      	movs	r2, #1
 800306c:	601a      	str	r2, [r3, #0]
                                 ProbeScope_TrigIx   = ProbeScope_SampleIxCur; 
 800306e:	4b57      	ldr	r3, [pc, #348]	; (80031cc <ProbeScope_IsTrig+0x4b0>)
 8003070:	681b      	ldr	r3, [r3, #0]
 8003072:	4a57      	ldr	r2, [pc, #348]	; (80031d0 <ProbeScope_IsTrig+0x4b4>)
 8003074:	6013      	str	r3, [r2, #0]
                             }
                         }
                     }
                     break;
 8003076:	e02c      	b.n	80030d2 <ProbeScope_IsTrig+0x3b6>
 8003078:	e02b      	b.n	80030d2 <ProbeScope_IsTrig+0x3b6>
                                    
                case PROBE_SCOPE_FP32:
                     if (p_sample_prev->ValFP32 < p_sample_cur->ValFP32) {
 800307a:	68bb      	ldr	r3, [r7, #8]
 800307c:	ed93 7a00 	vldr	s14, [r3]
 8003080:	687b      	ldr	r3, [r7, #4]
 8003082:	edd3 7a00 	vldr	s15, [r3]
 8003086:	eeb4 7ae7 	vcmpe.f32	s14, s15
 800308a:	eef1 fa10 	vmrs	APSR_nzcv, fpscr
 800308e:	d400      	bmi.n	8003092 <ProbeScope_IsTrig+0x376>
                                 ProbeScope_TrigFlag = 1;
                                 ProbeScope_TrigIx   = ProbeScope_SampleIxCur; 
                             }
                         }
                     }
                     break;
 8003090:	e01e      	b.n	80030d0 <ProbeScope_IsTrig+0x3b4>
                     }
                     break;
                                    
                case PROBE_SCOPE_FP32:
                     if (p_sample_prev->ValFP32 < p_sample_cur->ValFP32) {
                         if (p_sample_prev->ValFP32 <= p_ch->TrigLevel.ValFP32) {
 8003092:	68bb      	ldr	r3, [r7, #8]
 8003094:	ed93 7a00 	vldr	s14, [r3]
 8003098:	68fb      	ldr	r3, [r7, #12]
 800309a:	edd3 7a05 	vldr	s15, [r3, #20]
 800309e:	eeb4 7ae7 	vcmpe.f32	s14, s15
 80030a2:	eef1 fa10 	vmrs	APSR_nzcv, fpscr
 80030a6:	d900      	bls.n	80030aa <ProbeScope_IsTrig+0x38e>
                                 ProbeScope_TrigFlag = 1;
                                 ProbeScope_TrigIx   = ProbeScope_SampleIxCur; 
                             }
                         }
                     }
                     break;
 80030a8:	e012      	b.n	80030d0 <ProbeScope_IsTrig+0x3b4>
                     break;
                                    
                case PROBE_SCOPE_FP32:
                     if (p_sample_prev->ValFP32 < p_sample_cur->ValFP32) {
                         if (p_sample_prev->ValFP32 <= p_ch->TrigLevel.ValFP32) {
                             if (p_sample_cur->ValFP32 >= p_ch->TrigLevel.ValFP32) {
 80030aa:	687b      	ldr	r3, [r7, #4]
 80030ac:	ed93 7a00 	vldr	s14, [r3]
 80030b0:	68fb      	ldr	r3, [r7, #12]
 80030b2:	edd3 7a05 	vldr	s15, [r3, #20]
 80030b6:	eeb4 7ae7 	vcmpe.f32	s14, s15
 80030ba:	eef1 fa10 	vmrs	APSR_nzcv, fpscr
 80030be:	da00      	bge.n	80030c2 <ProbeScope_IsTrig+0x3a6>
                                 ProbeScope_TrigFlag = 1;
                                 ProbeScope_TrigIx   = ProbeScope_SampleIxCur; 
                             }
                         }
                     }
                     break;
 80030c0:	e006      	b.n	80030d0 <ProbeScope_IsTrig+0x3b4>
                                    
                case PROBE_SCOPE_FP32:
                     if (p_sample_prev->ValFP32 < p_sample_cur->ValFP32) {
                         if (p_sample_prev->ValFP32 <= p_ch->TrigLevel.ValFP32) {
                             if (p_sample_cur->ValFP32 >= p_ch->TrigLevel.ValFP32) {
                                 ProbeScope_TrigFlag = 1;
 80030c2:	4b41      	ldr	r3, [pc, #260]	; (80031c8 <ProbeScope_IsTrig+0x4ac>)
 80030c4:	2201      	movs	r2, #1
 80030c6:	601a      	str	r2, [r3, #0]
                                 ProbeScope_TrigIx   = ProbeScope_SampleIxCur; 
 80030c8:	4b40      	ldr	r3, [pc, #256]	; (80031cc <ProbeScope_IsTrig+0x4b0>)
 80030ca:	681b      	ldr	r3, [r3, #0]
 80030cc:	4a40      	ldr	r2, [pc, #256]	; (80031d0 <ProbeScope_IsTrig+0x4b4>)
 80030ce:	6013      	str	r3, [r2, #0]
                             }
                         }
                     }
                     break;
 80030d0:	bf00      	nop
 80030d2:	e16d      	b.n	80033b0 <ProbeScope_IsTrig+0x694>
#endif
            }
        } else {
            switch (p_ch->DataType) {
 80030d4:	68fb      	ldr	r3, [r7, #12]
 80030d6:	791b      	ldrb	r3, [r3, #4]
 80030d8:	2b06      	cmp	r3, #6
 80030da:	f200 8169 	bhi.w	80033b0 <ProbeScope_IsTrig+0x694>
 80030de:	a201      	add	r2, pc, #4	; (adr r2, 80030e4 <ProbeScope_IsTrig+0x3c8>)
 80030e0:	f852 f023 	ldr.w	pc, [r2, r3, lsl #2]
 80030e4:	08003101 	.word	0x08003101
 80030e8:	0800315f 	.word	0x0800315f
 80030ec:	080031d5 	.word	0x080031d5
 80030f0:	08003233 	.word	0x08003233
 80030f4:	0800329d 	.word	0x0800329d
 80030f8:	080032fb 	.word	0x080032fb
 80030fc:	08003359 	.word	0x08003359
                case PROBE_SCOPE_INT08U:
                     if (p_ch->BitEn == 0) {
 8003100:	68fb      	ldr	r3, [r7, #12]
 8003102:	689b      	ldr	r3, [r3, #8]
 8003104:	2b00      	cmp	r3, #0
 8003106:	d119      	bne.n	800313c <ProbeScope_IsTrig+0x420>
                         if (p_sample_prev->Val08U > p_sample_cur->Val08U) {
 8003108:	68bb      	ldr	r3, [r7, #8]
 800310a:	781a      	ldrb	r2, [r3, #0]
 800310c:	687b      	ldr	r3, [r7, #4]
 800310e:	781b      	ldrb	r3, [r3, #0]
 8003110:	429a      	cmp	r2, r3
 8003112:	d923      	bls.n	800315c <ProbeScope_IsTrig+0x440>
                             if (p_sample_prev->Val08U >= p_ch->TrigLevel.Val08U) {
 8003114:	68bb      	ldr	r3, [r7, #8]
 8003116:	781a      	ldrb	r2, [r3, #0]
 8003118:	68fb      	ldr	r3, [r7, #12]
 800311a:	7d1b      	ldrb	r3, [r3, #20]
 800311c:	429a      	cmp	r2, r3
 800311e:	d31d      	bcc.n	800315c <ProbeScope_IsTrig+0x440>
                                 if (p_sample_cur->Val08U <= p_ch->TrigLevel.Val08U) {
 8003120:	687b      	ldr	r3, [r7, #4]
 8003122:	781a      	ldrb	r2, [r3, #0]
 8003124:	68fb      	ldr	r3, [r7, #12]
 8003126:	7d1b      	ldrb	r3, [r3, #20]
 8003128:	429a      	cmp	r2, r3
 800312a:	d817      	bhi.n	800315c <ProbeScope_IsTrig+0x440>
                                     ProbeScope_TrigFlag = 1;
 800312c:	4b26      	ldr	r3, [pc, #152]	; (80031c8 <ProbeScope_IsTrig+0x4ac>)
 800312e:	2201      	movs	r2, #1
 8003130:	601a      	str	r2, [r3, #0]
                                     ProbeScope_TrigIx   = ProbeScope_SampleIxCur; 
 8003132:	4b26      	ldr	r3, [pc, #152]	; (80031cc <ProbeScope_IsTrig+0x4b0>)
 8003134:	681b      	ldr	r3, [r3, #0]
 8003136:	4a26      	ldr	r2, [pc, #152]	; (80031d0 <ProbeScope_IsTrig+0x4b4>)
 8003138:	6013      	str	r3, [r2, #0]
                                 ProbeScope_TrigFlag = 1;
                                 ProbeScope_TrigIx   = ProbeScope_SampleIxCur; 
                             }
                         }
                     }
                     break;
 800313a:	e139      	b.n	80033b0 <ProbeScope_IsTrig+0x694>
                                     ProbeScope_TrigIx   = ProbeScope_SampleIxCur; 
                                 }
                             }
                         }
                     } else {
                         if (p_sample_prev->Val08U != 0) {
 800313c:	68bb      	ldr	r3, [r7, #8]
 800313e:	781b      	ldrb	r3, [r3, #0]
 8003140:	2b00      	cmp	r3, #0
 8003142:	d00b      	beq.n	800315c <ProbeScope_IsTrig+0x440>
                             if (p_sample_cur->Val08U == 0) {
 8003144:	687b      	ldr	r3, [r7, #4]
 8003146:	781b      	ldrb	r3, [r3, #0]
 8003148:	2b00      	cmp	r3, #0
 800314a:	d107      	bne.n	800315c <ProbeScope_IsTrig+0x440>
                                 ProbeScope_TrigFlag = 1;
 800314c:	4b1e      	ldr	r3, [pc, #120]	; (80031c8 <ProbeScope_IsTrig+0x4ac>)
 800314e:	2201      	movs	r2, #1
 8003150:	601a      	str	r2, [r3, #0]
                                 ProbeScope_TrigIx   = ProbeScope_SampleIxCur; 
 8003152:	4b1e      	ldr	r3, [pc, #120]	; (80031cc <ProbeScope_IsTrig+0x4b0>)
 8003154:	681b      	ldr	r3, [r3, #0]
 8003156:	4a1e      	ldr	r2, [pc, #120]	; (80031d0 <ProbeScope_IsTrig+0x4b4>)
 8003158:	6013      	str	r3, [r2, #0]
                             }
                         }
                     }
                     break;
 800315a:	e129      	b.n	80033b0 <ProbeScope_IsTrig+0x694>
 800315c:	e128      	b.n	80033b0 <ProbeScope_IsTrig+0x694>
                     
                case PROBE_SCOPE_INT08S:
                     if (p_ch->BitEn == 0) {
 800315e:	68fb      	ldr	r3, [r7, #12]
 8003160:	689b      	ldr	r3, [r3, #8]
 8003162:	2b00      	cmp	r3, #0
 8003164:	d11f      	bne.n	80031a6 <ProbeScope_IsTrig+0x48a>
                         if (p_sample_prev->Val08S > p_sample_cur->Val08S) {
 8003166:	68bb      	ldr	r3, [r7, #8]
 8003168:	781a      	ldrb	r2, [r3, #0]
 800316a:	687b      	ldr	r3, [r7, #4]
 800316c:	781b      	ldrb	r3, [r3, #0]
 800316e:	b252      	sxtb	r2, r2
 8003170:	b25b      	sxtb	r3, r3
 8003172:	429a      	cmp	r2, r3
 8003174:	dd27      	ble.n	80031c6 <ProbeScope_IsTrig+0x4aa>
                             if (p_sample_prev->Val08S >= p_ch->TrigLevel.Val08S) {
 8003176:	68bb      	ldr	r3, [r7, #8]
 8003178:	781a      	ldrb	r2, [r3, #0]
 800317a:	68fb      	ldr	r3, [r7, #12]
 800317c:	7d1b      	ldrb	r3, [r3, #20]
 800317e:	b252      	sxtb	r2, r2
 8003180:	b25b      	sxtb	r3, r3
 8003182:	429a      	cmp	r2, r3
 8003184:	db1f      	blt.n	80031c6 <ProbeScope_IsTrig+0x4aa>
                                 if (p_sample_cur->Val08S <= p_ch->TrigLevel.Val08S) {
 8003186:	687b      	ldr	r3, [r7, #4]
 8003188:	781a      	ldrb	r2, [r3, #0]
 800318a:	68fb      	ldr	r3, [r7, #12]
 800318c:	7d1b      	ldrb	r3, [r3, #20]
 800318e:	b252      	sxtb	r2, r2
 8003190:	b25b      	sxtb	r3, r3
 8003192:	429a      	cmp	r2, r3
 8003194:	dc17      	bgt.n	80031c6 <ProbeScope_IsTrig+0x4aa>
                                     ProbeScope_TrigFlag = 1;
 8003196:	4b0c      	ldr	r3, [pc, #48]	; (80031c8 <ProbeScope_IsTrig+0x4ac>)
 8003198:	2201      	movs	r2, #1
 800319a:	601a      	str	r2, [r3, #0]
                                     ProbeScope_TrigIx   = ProbeScope_SampleIxCur; 
 800319c:	4b0b      	ldr	r3, [pc, #44]	; (80031cc <ProbeScope_IsTrig+0x4b0>)
 800319e:	681b      	ldr	r3, [r3, #0]
 80031a0:	4a0b      	ldr	r2, [pc, #44]	; (80031d0 <ProbeScope_IsTrig+0x4b4>)
 80031a2:	6013      	str	r3, [r2, #0]
                                 ProbeScope_TrigFlag = 1;
                                 ProbeScope_TrigIx   = ProbeScope_SampleIxCur; 
                             }
                         }
                     }
                     break;
 80031a4:	e104      	b.n	80033b0 <ProbeScope_IsTrig+0x694>
                                     ProbeScope_TrigIx   = ProbeScope_SampleIxCur; 
                                 }
                             }
                         }
                     } else {
                         if (p_sample_prev->Val08S != 0) {
 80031a6:	68bb      	ldr	r3, [r7, #8]
 80031a8:	781b      	ldrb	r3, [r3, #0]
 80031aa:	2b00      	cmp	r3, #0
 80031ac:	d00b      	beq.n	80031c6 <ProbeScope_IsTrig+0x4aa>
                             if (p_sample_cur->Val08S == 0) {
 80031ae:	687b      	ldr	r3, [r7, #4]
 80031b0:	781b      	ldrb	r3, [r3, #0]
 80031b2:	2b00      	cmp	r3, #0
 80031b4:	d107      	bne.n	80031c6 <ProbeScope_IsTrig+0x4aa>
                                 ProbeScope_TrigFlag = 1;
 80031b6:	4b04      	ldr	r3, [pc, #16]	; (80031c8 <ProbeScope_IsTrig+0x4ac>)
 80031b8:	2201      	movs	r2, #1
 80031ba:	601a      	str	r2, [r3, #0]
                                 ProbeScope_TrigIx   = ProbeScope_SampleIxCur; 
 80031bc:	4b03      	ldr	r3, [pc, #12]	; (80031cc <ProbeScope_IsTrig+0x4b0>)
 80031be:	681b      	ldr	r3, [r3, #0]
 80031c0:	4a03      	ldr	r2, [pc, #12]	; (80031d0 <ProbeScope_IsTrig+0x4b4>)
 80031c2:	6013      	str	r3, [r2, #0]
                             }
                         }
                     }
                     break;
 80031c4:	e0f4      	b.n	80033b0 <ProbeScope_IsTrig+0x694>
 80031c6:	e0f3      	b.n	80033b0 <ProbeScope_IsTrig+0x694>
 80031c8:	1fff0798 	.word	0x1fff0798
 80031cc:	1fff0624 	.word	0x1fff0624
 80031d0:	1fff07a0 	.word	0x1fff07a0
                                    
#if PROBE_SCOPE_16_BIT_EN > 0                                   
                case PROBE_SCOPE_INT16U:
                     if (p_ch->BitEn == 0) {
 80031d4:	68fb      	ldr	r3, [r7, #12]
 80031d6:	689b      	ldr	r3, [r3, #8]
 80031d8:	2b00      	cmp	r3, #0
 80031da:	d119      	bne.n	8003210 <ProbeScope_IsTrig+0x4f4>
                         if (p_sample_prev->Val16U > p_sample_cur->Val16U) {
 80031dc:	68bb      	ldr	r3, [r7, #8]
 80031de:	881a      	ldrh	r2, [r3, #0]
 80031e0:	687b      	ldr	r3, [r7, #4]
 80031e2:	881b      	ldrh	r3, [r3, #0]
 80031e4:	429a      	cmp	r2, r3
 80031e6:	d923      	bls.n	8003230 <ProbeScope_IsTrig+0x514>
                             if (p_sample_prev->Val16U >= p_ch->TrigLevel.Val16U) {
 80031e8:	68bb      	ldr	r3, [r7, #8]
 80031ea:	881a      	ldrh	r2, [r3, #0]
 80031ec:	68fb      	ldr	r3, [r7, #12]
 80031ee:	8a9b      	ldrh	r3, [r3, #20]
 80031f0:	429a      	cmp	r2, r3
 80031f2:	d31d      	bcc.n	8003230 <ProbeScope_IsTrig+0x514>
                                 if (p_sample_cur->Val16U <= p_ch->TrigLevel.Val16U) {
 80031f4:	687b      	ldr	r3, [r7, #4]
 80031f6:	881a      	ldrh	r2, [r3, #0]
 80031f8:	68fb      	ldr	r3, [r7, #12]
 80031fa:	8a9b      	ldrh	r3, [r3, #20]
 80031fc:	429a      	cmp	r2, r3
 80031fe:	d817      	bhi.n	8003230 <ProbeScope_IsTrig+0x514>
                                     ProbeScope_TrigFlag = 1;
 8003200:	4b6e      	ldr	r3, [pc, #440]	; (80033bc <ProbeScope_IsTrig+0x6a0>)
 8003202:	2201      	movs	r2, #1
 8003204:	601a      	str	r2, [r3, #0]
                                     ProbeScope_TrigIx   = ProbeScope_SampleIxCur; 
 8003206:	4b6e      	ldr	r3, [pc, #440]	; (80033c0 <ProbeScope_IsTrig+0x6a4>)
 8003208:	681b      	ldr	r3, [r3, #0]
 800320a:	4a6e      	ldr	r2, [pc, #440]	; (80033c4 <ProbeScope_IsTrig+0x6a8>)
 800320c:	6013      	str	r3, [r2, #0]
                                 ProbeScope_TrigFlag = 1;
                                 ProbeScope_TrigIx   = ProbeScope_SampleIxCur; 
                             }
                         }
                     }
                     break;
 800320e:	e0cf      	b.n	80033b0 <ProbeScope_IsTrig+0x694>
                                     ProbeScope_TrigIx   = ProbeScope_SampleIxCur; 
                                 }
                             }
                         }
                     } else {
                         if (p_sample_prev->Val16U != 0) {
 8003210:	68bb      	ldr	r3, [r7, #8]
 8003212:	881b      	ldrh	r3, [r3, #0]
 8003214:	2b00      	cmp	r3, #0
 8003216:	d00b      	beq.n	8003230 <ProbeScope_IsTrig+0x514>
                             if (p_sample_cur->Val16U == 0) {
 8003218:	687b      	ldr	r3, [r7, #4]
 800321a:	881b      	ldrh	r3, [r3, #0]
 800321c:	2b00      	cmp	r3, #0
 800321e:	d107      	bne.n	8003230 <ProbeScope_IsTrig+0x514>
                                 ProbeScope_TrigFlag = 1;
 8003220:	4b66      	ldr	r3, [pc, #408]	; (80033bc <ProbeScope_IsTrig+0x6a0>)
 8003222:	2201      	movs	r2, #1
 8003224:	601a      	str	r2, [r3, #0]
                                 ProbeScope_TrigIx   = ProbeScope_SampleIxCur; 
 8003226:	4b66      	ldr	r3, [pc, #408]	; (80033c0 <ProbeScope_IsTrig+0x6a4>)
 8003228:	681b      	ldr	r3, [r3, #0]
 800322a:	4a66      	ldr	r2, [pc, #408]	; (80033c4 <ProbeScope_IsTrig+0x6a8>)
 800322c:	6013      	str	r3, [r2, #0]
                             }
                         }
                     }
                     break;
 800322e:	e0bf      	b.n	80033b0 <ProbeScope_IsTrig+0x694>
 8003230:	e0be      	b.n	80033b0 <ProbeScope_IsTrig+0x694>
                     
                case PROBE_SCOPE_INT16S:
                     if (p_ch->BitEn == 0) {
 8003232:	68fb      	ldr	r3, [r7, #12]
 8003234:	689b      	ldr	r3, [r3, #8]
 8003236:	2b00      	cmp	r3, #0
 8003238:	d11f      	bne.n	800327a <ProbeScope_IsTrig+0x55e>
                         if (p_sample_prev->Val16S > p_sample_cur->Val16S) {
 800323a:	68bb      	ldr	r3, [r7, #8]
 800323c:	881a      	ldrh	r2, [r3, #0]
 800323e:	687b      	ldr	r3, [r7, #4]
 8003240:	881b      	ldrh	r3, [r3, #0]
 8003242:	b212      	sxth	r2, r2
 8003244:	b21b      	sxth	r3, r3
 8003246:	429a      	cmp	r2, r3
 8003248:	dd27      	ble.n	800329a <ProbeScope_IsTrig+0x57e>
                             if (p_sample_prev->Val16S >= p_ch->TrigLevel.Val16S) {
 800324a:	68bb      	ldr	r3, [r7, #8]
 800324c:	881a      	ldrh	r2, [r3, #0]
 800324e:	68fb      	ldr	r3, [r7, #12]
 8003250:	8a9b      	ldrh	r3, [r3, #20]
 8003252:	b212      	sxth	r2, r2
 8003254:	b21b      	sxth	r3, r3
 8003256:	429a      	cmp	r2, r3
 8003258:	db1f      	blt.n	800329a <ProbeScope_IsTrig+0x57e>
                                 if (p_sample_cur->Val16S <= p_ch->TrigLevel.Val16S) {
 800325a:	687b      	ldr	r3, [r7, #4]
 800325c:	881a      	ldrh	r2, [r3, #0]
 800325e:	68fb      	ldr	r3, [r7, #12]
 8003260:	8a9b      	ldrh	r3, [r3, #20]
 8003262:	b212      	sxth	r2, r2
 8003264:	b21b      	sxth	r3, r3
 8003266:	429a      	cmp	r2, r3
 8003268:	dc17      	bgt.n	800329a <ProbeScope_IsTrig+0x57e>
                                     ProbeScope_TrigFlag = 1;
 800326a:	4b54      	ldr	r3, [pc, #336]	; (80033bc <ProbeScope_IsTrig+0x6a0>)
 800326c:	2201      	movs	r2, #1
 800326e:	601a      	str	r2, [r3, #0]
                                     ProbeScope_TrigIx   = ProbeScope_SampleIxCur; 
 8003270:	4b53      	ldr	r3, [pc, #332]	; (80033c0 <ProbeScope_IsTrig+0x6a4>)
 8003272:	681b      	ldr	r3, [r3, #0]
 8003274:	4a53      	ldr	r2, [pc, #332]	; (80033c4 <ProbeScope_IsTrig+0x6a8>)
 8003276:	6013      	str	r3, [r2, #0]
                                 ProbeScope_TrigFlag = 1;
                                 ProbeScope_TrigIx   = ProbeScope_SampleIxCur; 
                             }
                         }
                     }
                     break;
 8003278:	e09a      	b.n	80033b0 <ProbeScope_IsTrig+0x694>
                                     ProbeScope_TrigIx   = ProbeScope_SampleIxCur; 
                                 }
                             }
                         }
                     } else {
                         if (p_sample_prev->Val16S != 0) {
 800327a:	68bb      	ldr	r3, [r7, #8]
 800327c:	881b      	ldrh	r3, [r3, #0]
 800327e:	2b00      	cmp	r3, #0
 8003280:	d00b      	beq.n	800329a <ProbeScope_IsTrig+0x57e>
                             if (p_sample_cur->Val16S == 0) {
 8003282:	687b      	ldr	r3, [r7, #4]
 8003284:	881b      	ldrh	r3, [r3, #0]
 8003286:	2b00      	cmp	r3, #0
 8003288:	d107      	bne.n	800329a <ProbeScope_IsTrig+0x57e>
                                 ProbeScope_TrigFlag = 1;
 800328a:	4b4c      	ldr	r3, [pc, #304]	; (80033bc <ProbeScope_IsTrig+0x6a0>)
 800328c:	2201      	movs	r2, #1
 800328e:	601a      	str	r2, [r3, #0]
                                 ProbeScope_TrigIx   = ProbeScope_SampleIxCur; 
 8003290:	4b4b      	ldr	r3, [pc, #300]	; (80033c0 <ProbeScope_IsTrig+0x6a4>)
 8003292:	681b      	ldr	r3, [r3, #0]
 8003294:	4a4b      	ldr	r2, [pc, #300]	; (80033c4 <ProbeScope_IsTrig+0x6a8>)
 8003296:	6013      	str	r3, [r2, #0]
                             }
                         }
                     }
                     break;
 8003298:	e08a      	b.n	80033b0 <ProbeScope_IsTrig+0x694>
 800329a:	e089      	b.n	80033b0 <ProbeScope_IsTrig+0x694>
#endif

#if PROBE_SCOPE_32_BIT_EN > 0                                                                     
                case PROBE_SCOPE_INT32U:
                     if (p_ch->BitEn == 0) {
 800329c:	68fb      	ldr	r3, [r7, #12]
 800329e:	689b      	ldr	r3, [r3, #8]
 80032a0:	2b00      	cmp	r3, #0
 80032a2:	d119      	bne.n	80032d8 <ProbeScope_IsTrig+0x5bc>
                         if (p_sample_prev->Val32U > p_sample_cur->Val32U) {                  
 80032a4:	68bb      	ldr	r3, [r7, #8]
 80032a6:	681a      	ldr	r2, [r3, #0]
 80032a8:	687b      	ldr	r3, [r7, #4]
 80032aa:	681b      	ldr	r3, [r3, #0]
 80032ac:	429a      	cmp	r2, r3
 80032ae:	d923      	bls.n	80032f8 <ProbeScope_IsTrig+0x5dc>
                             if (p_sample_prev->Val32U >= p_ch->TrigLevel.Val32U) {
 80032b0:	68bb      	ldr	r3, [r7, #8]
 80032b2:	681a      	ldr	r2, [r3, #0]
 80032b4:	68fb      	ldr	r3, [r7, #12]
 80032b6:	695b      	ldr	r3, [r3, #20]
 80032b8:	429a      	cmp	r2, r3
 80032ba:	d31d      	bcc.n	80032f8 <ProbeScope_IsTrig+0x5dc>
                                 if (p_sample_cur->Val32U <= p_ch->TrigLevel.Val32U) {
 80032bc:	687b      	ldr	r3, [r7, #4]
 80032be:	681a      	ldr	r2, [r3, #0]
 80032c0:	68fb      	ldr	r3, [r7, #12]
 80032c2:	695b      	ldr	r3, [r3, #20]
 80032c4:	429a      	cmp	r2, r3
 80032c6:	d817      	bhi.n	80032f8 <ProbeScope_IsTrig+0x5dc>
                                     ProbeScope_TrigFlag = 1;
 80032c8:	4b3c      	ldr	r3, [pc, #240]	; (80033bc <ProbeScope_IsTrig+0x6a0>)
 80032ca:	2201      	movs	r2, #1
 80032cc:	601a      	str	r2, [r3, #0]
                                     ProbeScope_TrigIx   = ProbeScope_SampleIxCur; 
 80032ce:	4b3c      	ldr	r3, [pc, #240]	; (80033c0 <ProbeScope_IsTrig+0x6a4>)
 80032d0:	681b      	ldr	r3, [r3, #0]
 80032d2:	4a3c      	ldr	r2, [pc, #240]	; (80033c4 <ProbeScope_IsTrig+0x6a8>)
 80032d4:	6013      	str	r3, [r2, #0]
                                 ProbeScope_TrigFlag = 1;
                                 ProbeScope_TrigIx   = ProbeScope_SampleIxCur; 
                             }
                         }
                     }
                     break;
 80032d6:	e06b      	b.n	80033b0 <ProbeScope_IsTrig+0x694>
                                     ProbeScope_TrigIx   = ProbeScope_SampleIxCur; 
                                 }
                             }
                         }
                     } else {
                         if (p_sample_prev->Val32U != 0) {
 80032d8:	68bb      	ldr	r3, [r7, #8]
 80032da:	681b      	ldr	r3, [r3, #0]
 80032dc:	2b00      	cmp	r3, #0
 80032de:	d00b      	beq.n	80032f8 <ProbeScope_IsTrig+0x5dc>
                             if (p_sample_cur->Val32U == 0) {
 80032e0:	687b      	ldr	r3, [r7, #4]
 80032e2:	681b      	ldr	r3, [r3, #0]
 80032e4:	2b00      	cmp	r3, #0
 80032e6:	d107      	bne.n	80032f8 <ProbeScope_IsTrig+0x5dc>
                                 ProbeScope_TrigFlag = 1;
 80032e8:	4b34      	ldr	r3, [pc, #208]	; (80033bc <ProbeScope_IsTrig+0x6a0>)
 80032ea:	2201      	movs	r2, #1
 80032ec:	601a      	str	r2, [r3, #0]
                                 ProbeScope_TrigIx   = ProbeScope_SampleIxCur; 
 80032ee:	4b34      	ldr	r3, [pc, #208]	; (80033c0 <ProbeScope_IsTrig+0x6a4>)
 80032f0:	681b      	ldr	r3, [r3, #0]
 80032f2:	4a34      	ldr	r2, [pc, #208]	; (80033c4 <ProbeScope_IsTrig+0x6a8>)
 80032f4:	6013      	str	r3, [r2, #0]
                             }
                         }
                     }
                     break;
 80032f6:	e05b      	b.n	80033b0 <ProbeScope_IsTrig+0x694>
 80032f8:	e05a      	b.n	80033b0 <ProbeScope_IsTrig+0x694>
                     
                case PROBE_SCOPE_INT32S:
                     if (p_ch->BitEn == 0) {
 80032fa:	68fb      	ldr	r3, [r7, #12]
 80032fc:	689b      	ldr	r3, [r3, #8]
 80032fe:	2b00      	cmp	r3, #0
 8003300:	d119      	bne.n	8003336 <ProbeScope_IsTrig+0x61a>
                         if (p_sample_prev->Val32S > p_sample_cur->Val32S) {
 8003302:	68bb      	ldr	r3, [r7, #8]
 8003304:	681a      	ldr	r2, [r3, #0]
 8003306:	687b      	ldr	r3, [r7, #4]
 8003308:	681b      	ldr	r3, [r3, #0]
 800330a:	429a      	cmp	r2, r3
 800330c:	dd23      	ble.n	8003356 <ProbeScope_IsTrig+0x63a>
                             if (p_sample_prev->Val32S >= p_ch->TrigLevel.Val32S) {
 800330e:	68bb      	ldr	r3, [r7, #8]
 8003310:	681a      	ldr	r2, [r3, #0]
 8003312:	68fb      	ldr	r3, [r7, #12]
 8003314:	695b      	ldr	r3, [r3, #20]
 8003316:	429a      	cmp	r2, r3
 8003318:	db1d      	blt.n	8003356 <ProbeScope_IsTrig+0x63a>
                                 if (p_sample_cur->Val32S <= p_ch->TrigLevel.Val32S) {
 800331a:	687b      	ldr	r3, [r7, #4]
 800331c:	681a      	ldr	r2, [r3, #0]
 800331e:	68fb      	ldr	r3, [r7, #12]
 8003320:	695b      	ldr	r3, [r3, #20]
 8003322:	429a      	cmp	r2, r3
 8003324:	dc17      	bgt.n	8003356 <ProbeScope_IsTrig+0x63a>
                                     ProbeScope_TrigFlag = 1;
 8003326:	4b25      	ldr	r3, [pc, #148]	; (80033bc <ProbeScope_IsTrig+0x6a0>)
 8003328:	2201      	movs	r2, #1
 800332a:	601a      	str	r2, [r3, #0]
                                     ProbeScope_TrigIx   = ProbeScope_SampleIxCur; 
 800332c:	4b24      	ldr	r3, [pc, #144]	; (80033c0 <ProbeScope_IsTrig+0x6a4>)
 800332e:	681b      	ldr	r3, [r3, #0]
 8003330:	4a24      	ldr	r2, [pc, #144]	; (80033c4 <ProbeScope_IsTrig+0x6a8>)
 8003332:	6013      	str	r3, [r2, #0]
                                 ProbeScope_TrigFlag = 1;
                                 ProbeScope_TrigIx   = ProbeScope_SampleIxCur; 
                             }
                         }
                     }
                     break;
 8003334:	e03c      	b.n	80033b0 <ProbeScope_IsTrig+0x694>
                                     ProbeScope_TrigIx   = ProbeScope_SampleIxCur; 
                                 }
                             }
                         }
                     } else {
                         if (p_sample_prev->Val32S != 0) {
 8003336:	68bb      	ldr	r3, [r7, #8]
 8003338:	681b      	ldr	r3, [r3, #0]
 800333a:	2b00      	cmp	r3, #0
 800333c:	d00b      	beq.n	8003356 <ProbeScope_IsTrig+0x63a>
                             if (p_sample_cur->Val32S == 0) {
 800333e:	687b      	ldr	r3, [r7, #4]
 8003340:	681b      	ldr	r3, [r3, #0]
 8003342:	2b00      	cmp	r3, #0
 8003344:	d107      	bne.n	8003356 <ProbeScope_IsTrig+0x63a>
                                 ProbeScope_TrigFlag = 1;
 8003346:	4b1d      	ldr	r3, [pc, #116]	; (80033bc <ProbeScope_IsTrig+0x6a0>)
 8003348:	2201      	movs	r2, #1
 800334a:	601a      	str	r2, [r3, #0]
                                 ProbeScope_TrigIx   = ProbeScope_SampleIxCur; 
 800334c:	4b1c      	ldr	r3, [pc, #112]	; (80033c0 <ProbeScope_IsTrig+0x6a4>)
 800334e:	681b      	ldr	r3, [r3, #0]
 8003350:	4a1c      	ldr	r2, [pc, #112]	; (80033c4 <ProbeScope_IsTrig+0x6a8>)
 8003352:	6013      	str	r3, [r2, #0]
                             }
                         }
                     }
                     break;
 8003354:	e02c      	b.n	80033b0 <ProbeScope_IsTrig+0x694>
 8003356:	e02b      	b.n	80033b0 <ProbeScope_IsTrig+0x694>
                                    
                case PROBE_SCOPE_FP32:
                     if (p_sample_prev->ValFP32 > p_sample_cur->ValFP32) {
 8003358:	68bb      	ldr	r3, [r7, #8]
 800335a:	ed93 7a00 	vldr	s14, [r3]
 800335e:	687b      	ldr	r3, [r7, #4]
 8003360:	edd3 7a00 	vldr	s15, [r3]
 8003364:	eeb4 7ae7 	vcmpe.f32	s14, s15
 8003368:	eef1 fa10 	vmrs	APSR_nzcv, fpscr
 800336c:	dc00      	bgt.n	8003370 <ProbeScope_IsTrig+0x654>
                                 ProbeScope_TrigFlag = 1;
                                 ProbeScope_TrigIx   = ProbeScope_SampleIxCur; 
                             }
                         }
                     }
                     break;
 800336e:	e01f      	b.n	80033b0 <ProbeScope_IsTrig+0x694>
                     }
                     break;
                                    
                case PROBE_SCOPE_FP32:
                     if (p_sample_prev->ValFP32 > p_sample_cur->ValFP32) {
                         if (p_sample_prev->ValFP32 >= p_ch->TrigLevel.ValFP32) {
 8003370:	68bb      	ldr	r3, [r7, #8]
 8003372:	ed93 7a00 	vldr	s14, [r3]
 8003376:	68fb      	ldr	r3, [r7, #12]
 8003378:	edd3 7a05 	vldr	s15, [r3, #20]
 800337c:	eeb4 7ae7 	vcmpe.f32	s14, s15
 8003380:	eef1 fa10 	vmrs	APSR_nzcv, fpscr
 8003384:	da00      	bge.n	8003388 <ProbeScope_IsTrig+0x66c>
                                 ProbeScope_TrigFlag = 1;
                                 ProbeScope_TrigIx   = ProbeScope_SampleIxCur; 
                             }
                         }
                     }
                     break;
 8003386:	e013      	b.n	80033b0 <ProbeScope_IsTrig+0x694>
                     break;
                                    
                case PROBE_SCOPE_FP32:
                     if (p_sample_prev->ValFP32 > p_sample_cur->ValFP32) {
                         if (p_sample_prev->ValFP32 >= p_ch->TrigLevel.ValFP32) {
                             if (p_sample_cur->ValFP32 <= p_ch->TrigLevel.ValFP32) {
 8003388:	687b      	ldr	r3, [r7, #4]
 800338a:	ed93 7a00 	vldr	s14, [r3]
 800338e:	68fb      	ldr	r3, [r7, #12]
 8003390:	edd3 7a05 	vldr	s15, [r3, #20]
 8003394:	eeb4 7ae7 	vcmpe.f32	s14, s15
 8003398:	eef1 fa10 	vmrs	APSR_nzcv, fpscr
 800339c:	d900      	bls.n	80033a0 <ProbeScope_IsTrig+0x684>
                                 ProbeScope_TrigFlag = 1;
                                 ProbeScope_TrigIx   = ProbeScope_SampleIxCur; 
                             }
                         }
                     }
                     break;
 800339e:	e007      	b.n	80033b0 <ProbeScope_IsTrig+0x694>
                                    
                case PROBE_SCOPE_FP32:
                     if (p_sample_prev->ValFP32 > p_sample_cur->ValFP32) {
                         if (p_sample_prev->ValFP32 >= p_ch->TrigLevel.ValFP32) {
                             if (p_sample_cur->ValFP32 <= p_ch->TrigLevel.ValFP32) {
                                 ProbeScope_TrigFlag = 1;
 80033a0:	4b06      	ldr	r3, [pc, #24]	; (80033bc <ProbeScope_IsTrig+0x6a0>)
 80033a2:	2201      	movs	r2, #1
 80033a4:	601a      	str	r2, [r3, #0]
                                 ProbeScope_TrigIx   = ProbeScope_SampleIxCur; 
 80033a6:	4b06      	ldr	r3, [pc, #24]	; (80033c0 <ProbeScope_IsTrig+0x6a4>)
 80033a8:	681b      	ldr	r3, [r3, #0]
 80033aa:	4a06      	ldr	r2, [pc, #24]	; (80033c4 <ProbeScope_IsTrig+0x6a8>)
 80033ac:	6013      	str	r3, [r2, #0]
                             }
                         }
                     }
                     break;
 80033ae:	bf00      	nop
#endif                     
            }                          
        }
    }
}
 80033b0:	3714      	adds	r7, #20
 80033b2:	46bd      	mov	sp, r7
 80033b4:	f85d 7b04 	ldr.w	r7, [sp], #4
 80033b8:	4770      	bx	lr
 80033ba:	bf00      	nop
 80033bc:	1fff0798 	.word	0x1fff0798
 80033c0:	1fff0624 	.word	0x1fff0624
 80033c4:	1fff07a0 	.word	0x1fff07a0

080033c8 <reference_generator_compute>:
float_t reference_old = 0;

ref_type ref_type_select = 0;

void reference_generator_compute(void)
{
 80033c8:	b480      	push	{r7}
 80033ca:	af00      	add	r7, sp, #0
	// Compute human data inputs into machine outputs
	switch (ref_type_select)
 80033cc:	4bb1      	ldr	r3, [pc, #708]	; (8003694 <reference_generator_compute+0x2cc>)
 80033ce:	781b      	ldrb	r3, [r3, #0]
 80033d0:	2b03      	cmp	r3, #3
 80033d2:	f200 810b 	bhi.w	80035ec <reference_generator_compute+0x224>
 80033d6:	a201      	add	r2, pc, #4	; (adr r2, 80033dc <reference_generator_compute+0x14>)
 80033d8:	f852 f023 	ldr.w	pc, [r2, r3, lsl #2]
 80033dc:	080033ed 	.word	0x080033ed
 80033e0:	08003471 	.word	0x08003471
 80033e4:	080034f5 	.word	0x080034f5
 80033e8:	08003571 	.word	0x08003571
	{
	case (REF_POS):
		high_level = rotation_input * ROTATION_IU;
 80033ec:	4baa      	ldr	r3, [pc, #680]	; (8003698 <reference_generator_compute+0x2d0>)
 80033ee:	edd3 7a00 	vldr	s15, [r3]
 80033f2:	ed9f 7aaa 	vldr	s14, [pc, #680]	; 800369c <reference_generator_compute+0x2d4>
 80033f6:	ee67 7a87 	vmul.f32	s15, s15, s14
 80033fa:	eefd 7ae7 	vcvt.s32.f32	s15, s15
 80033fe:	ee17 2a90 	vmov	r2, s15
 8003402:	4ba7      	ldr	r3, [pc, #668]	; (80036a0 <reference_generator_compute+0x2d8>)
 8003404:	601a      	str	r2, [r3, #0]
		high_level_time = time_high_input_s * SECOND;
 8003406:	4ba7      	ldr	r3, [pc, #668]	; (80036a4 <reference_generator_compute+0x2dc>)
 8003408:	edd3 7a00 	vldr	s15, [r3]
 800340c:	ed9f 7aa6 	vldr	s14, [pc, #664]	; 80036a8 <reference_generator_compute+0x2e0>
 8003410:	ee67 7a87 	vmul.f32	s15, s15, s14
 8003414:	eefd 7ae7 	vcvt.s32.f32	s15, s15
 8003418:	ee17 2a90 	vmov	r2, s15
 800341c:	4ba3      	ldr	r3, [pc, #652]	; (80036ac <reference_generator_compute+0x2e4>)
 800341e:	601a      	str	r2, [r3, #0]
		low_level_time = time_low_input_s * SECOND;
 8003420:	4ba3      	ldr	r3, [pc, #652]	; (80036b0 <reference_generator_compute+0x2e8>)
 8003422:	edd3 7a00 	vldr	s15, [r3]
 8003426:	ed9f 7aa0 	vldr	s14, [pc, #640]	; 80036a8 <reference_generator_compute+0x2e0>
 800342a:	ee67 7a87 	vmul.f32	s15, s15, s14
 800342e:	eefd 7ae7 	vcvt.s32.f32	s15, s15
 8003432:	ee17 2a90 	vmov	r2, s15
 8003436:	4b9f      	ldr	r3, [pc, #636]	; (80036b4 <reference_generator_compute+0x2ec>)
 8003438:	601a      	str	r2, [r3, #0]
		rise_time = time_rise_input_s * SECOND;
 800343a:	4b9f      	ldr	r3, [pc, #636]	; (80036b8 <reference_generator_compute+0x2f0>)
 800343c:	edd3 7a00 	vldr	s15, [r3]
 8003440:	ed9f 7a99 	vldr	s14, [pc, #612]	; 80036a8 <reference_generator_compute+0x2e0>
 8003444:	ee67 7a87 	vmul.f32	s15, s15, s14
 8003448:	eefd 7ae7 	vcvt.s32.f32	s15, s15
 800344c:	ee17 2a90 	vmov	r2, s15
 8003450:	4b9a      	ldr	r3, [pc, #616]	; (80036bc <reference_generator_compute+0x2f4>)
 8003452:	601a      	str	r2, [r3, #0]
		fall_time = time_fall_input_s * SECOND;
 8003454:	4b9a      	ldr	r3, [pc, #616]	; (80036c0 <reference_generator_compute+0x2f8>)
 8003456:	edd3 7a00 	vldr	s15, [r3]
 800345a:	ed9f 7a93 	vldr	s14, [pc, #588]	; 80036a8 <reference_generator_compute+0x2e0>
 800345e:	ee67 7a87 	vmul.f32	s15, s15, s14
 8003462:	eefd 7ae7 	vcvt.s32.f32	s15, s15
 8003466:	ee17 2a90 	vmov	r2, s15
 800346a:	4b96      	ldr	r3, [pc, #600]	; (80036c4 <reference_generator_compute+0x2fc>)
 800346c:	601a      	str	r2, [r3, #0]
//		high_level_time = 0.1 * SECOND;
//		low_level_time = 0.1 * SECOND;
//		rise_time = 0.2 * SECOND;
//		fall_time = 0.2 * SECOND;

		break;
 800346e:	e0be      	b.n	80035ee <reference_generator_compute+0x226>
	case (REF_SPD):
		rise_time = time_rise_input_s * SECOND;
 8003470:	4b91      	ldr	r3, [pc, #580]	; (80036b8 <reference_generator_compute+0x2f0>)
 8003472:	edd3 7a00 	vldr	s15, [r3]
 8003476:	ed9f 7a8c 	vldr	s14, [pc, #560]	; 80036a8 <reference_generator_compute+0x2e0>
 800347a:	ee67 7a87 	vmul.f32	s15, s15, s14
 800347e:	eefd 7ae7 	vcvt.s32.f32	s15, s15
 8003482:	ee17 2a90 	vmov	r2, s15
 8003486:	4b8d      	ldr	r3, [pc, #564]	; (80036bc <reference_generator_compute+0x2f4>)
 8003488:	601a      	str	r2, [r3, #0]
		fall_time = time_high_input_s * SECOND;
 800348a:	4b86      	ldr	r3, [pc, #536]	; (80036a4 <reference_generator_compute+0x2dc>)
 800348c:	edd3 7a00 	vldr	s15, [r3]
 8003490:	ed9f 7a85 	vldr	s14, [pc, #532]	; 80036a8 <reference_generator_compute+0x2e0>
 8003494:	ee67 7a87 	vmul.f32	s15, s15, s14
 8003498:	eefd 7ae7 	vcvt.s32.f32	s15, s15
 800349c:	ee17 2a90 	vmov	r2, s15
 80034a0:	4b88      	ldr	r3, [pc, #544]	; (80036c4 <reference_generator_compute+0x2fc>)
 80034a2:	601a      	str	r2, [r3, #0]
		high_level = rpm_input / (MINUTE / ROTATION_IU);
 80034a4:	4b88      	ldr	r3, [pc, #544]	; (80036c8 <reference_generator_compute+0x300>)
 80034a6:	edd3 7a00 	vldr	s15, [r3]
 80034aa:	eeb2 7a0e 	vmov.f32	s14, #46	; 0x2e
 80034ae:	eec7 7a87 	vdiv.f32	s15, s15, s14
 80034b2:	eefd 7ae7 	vcvt.s32.f32	s15, s15
 80034b6:	ee17 2a90 	vmov	r2, s15
 80034ba:	4b79      	ldr	r3, [pc, #484]	; (80036a0 <reference_generator_compute+0x2d8>)
 80034bc:	601a      	str	r2, [r3, #0]
		high_level_time = time_high_input_s * SECOND;
 80034be:	4b79      	ldr	r3, [pc, #484]	; (80036a4 <reference_generator_compute+0x2dc>)
 80034c0:	edd3 7a00 	vldr	s15, [r3]
 80034c4:	ed9f 7a78 	vldr	s14, [pc, #480]	; 80036a8 <reference_generator_compute+0x2e0>
 80034c8:	ee67 7a87 	vmul.f32	s15, s15, s14
 80034cc:	eefd 7ae7 	vcvt.s32.f32	s15, s15
 80034d0:	ee17 2a90 	vmov	r2, s15
 80034d4:	4b75      	ldr	r3, [pc, #468]	; (80036ac <reference_generator_compute+0x2e4>)
 80034d6:	601a      	str	r2, [r3, #0]
		low_level_time = time_low_input_s * SECOND;
 80034d8:	4b75      	ldr	r3, [pc, #468]	; (80036b0 <reference_generator_compute+0x2e8>)
 80034da:	edd3 7a00 	vldr	s15, [r3]
 80034de:	ed9f 7a72 	vldr	s14, [pc, #456]	; 80036a8 <reference_generator_compute+0x2e0>
 80034e2:	ee67 7a87 	vmul.f32	s15, s15, s14
 80034e6:	eefd 7ae7 	vcvt.s32.f32	s15, s15
 80034ea:	ee17 2a90 	vmov	r2, s15
 80034ee:	4b71      	ldr	r3, [pc, #452]	; (80036b4 <reference_generator_compute+0x2ec>)
 80034f0:	601a      	str	r2, [r3, #0]
//		rise_time = 0.5 * SECOND;
//		fall_time = 0.5 * SECOND;
////		high_level = rpm_input / (MINUTE / ROTATION_IU);
//		high_level_time = 0.5 * SECOND;
//		low_level_time = 0.5 * SECOND;
		break;
 80034f2:	e07c      	b.n	80035ee <reference_generator_compute+0x226>
	case (REF_I):
		high_level = current_input;
 80034f4:	4b75      	ldr	r3, [pc, #468]	; (80036cc <reference_generator_compute+0x304>)
 80034f6:	edd3 7a00 	vldr	s15, [r3]
 80034fa:	eefd 7ae7 	vcvt.s32.f32	s15, s15
 80034fe:	ee17 2a90 	vmov	r2, s15
 8003502:	4b67      	ldr	r3, [pc, #412]	; (80036a0 <reference_generator_compute+0x2d8>)
 8003504:	601a      	str	r2, [r3, #0]
		high_level_time = time_high_input_s * SECOND;
 8003506:	4b67      	ldr	r3, [pc, #412]	; (80036a4 <reference_generator_compute+0x2dc>)
 8003508:	edd3 7a00 	vldr	s15, [r3]
 800350c:	ed9f 7a66 	vldr	s14, [pc, #408]	; 80036a8 <reference_generator_compute+0x2e0>
 8003510:	ee67 7a87 	vmul.f32	s15, s15, s14
 8003514:	eefd 7ae7 	vcvt.s32.f32	s15, s15
 8003518:	ee17 2a90 	vmov	r2, s15
 800351c:	4b63      	ldr	r3, [pc, #396]	; (80036ac <reference_generator_compute+0x2e4>)
 800351e:	601a      	str	r2, [r3, #0]
		low_level_time = time_low_input_s * SECOND;
 8003520:	4b63      	ldr	r3, [pc, #396]	; (80036b0 <reference_generator_compute+0x2e8>)
 8003522:	edd3 7a00 	vldr	s15, [r3]
 8003526:	ed9f 7a60 	vldr	s14, [pc, #384]	; 80036a8 <reference_generator_compute+0x2e0>
 800352a:	ee67 7a87 	vmul.f32	s15, s15, s14
 800352e:	eefd 7ae7 	vcvt.s32.f32	s15, s15
 8003532:	ee17 2a90 	vmov	r2, s15
 8003536:	4b5f      	ldr	r3, [pc, #380]	; (80036b4 <reference_generator_compute+0x2ec>)
 8003538:	601a      	str	r2, [r3, #0]
		rise_time = time_rise_input_s * SECOND;
 800353a:	4b5f      	ldr	r3, [pc, #380]	; (80036b8 <reference_generator_compute+0x2f0>)
 800353c:	edd3 7a00 	vldr	s15, [r3]
 8003540:	ed9f 7a59 	vldr	s14, [pc, #356]	; 80036a8 <reference_generator_compute+0x2e0>
 8003544:	ee67 7a87 	vmul.f32	s15, s15, s14
 8003548:	eefd 7ae7 	vcvt.s32.f32	s15, s15
 800354c:	ee17 2a90 	vmov	r2, s15
 8003550:	4b5a      	ldr	r3, [pc, #360]	; (80036bc <reference_generator_compute+0x2f4>)
 8003552:	601a      	str	r2, [r3, #0]
		fall_time = time_fall_input_s * SECOND;
 8003554:	4b5a      	ldr	r3, [pc, #360]	; (80036c0 <reference_generator_compute+0x2f8>)
 8003556:	edd3 7a00 	vldr	s15, [r3]
 800355a:	ed9f 7a53 	vldr	s14, [pc, #332]	; 80036a8 <reference_generator_compute+0x2e0>
 800355e:	ee67 7a87 	vmul.f32	s15, s15, s14
 8003562:	eefd 7ae7 	vcvt.s32.f32	s15, s15
 8003566:	ee17 2a90 	vmov	r2, s15
 800356a:	4b56      	ldr	r3, [pc, #344]	; (80036c4 <reference_generator_compute+0x2fc>)
 800356c:	601a      	str	r2, [r3, #0]
//		high_level = 500;
//		high_level_time = 0.5 * SECOND;
//		low_level_time = 0.5 * SECOND;
//		rise_time = 0.01 * SECOND;
//		fall_time = 0.01 * SECOND;
		break;
 800356e:	e03e      	b.n	80035ee <reference_generator_compute+0x226>
	case (REF_U):
		high_level = voltage_input;
 8003570:	4b57      	ldr	r3, [pc, #348]	; (80036d0 <reference_generator_compute+0x308>)
 8003572:	edd3 7a00 	vldr	s15, [r3]
 8003576:	eefd 7ae7 	vcvt.s32.f32	s15, s15
 800357a:	ee17 2a90 	vmov	r2, s15
 800357e:	4b48      	ldr	r3, [pc, #288]	; (80036a0 <reference_generator_compute+0x2d8>)
 8003580:	601a      	str	r2, [r3, #0]
		high_level_time = time_high_input_s * SECOND;
 8003582:	4b48      	ldr	r3, [pc, #288]	; (80036a4 <reference_generator_compute+0x2dc>)
 8003584:	edd3 7a00 	vldr	s15, [r3]
 8003588:	ed9f 7a47 	vldr	s14, [pc, #284]	; 80036a8 <reference_generator_compute+0x2e0>
 800358c:	ee67 7a87 	vmul.f32	s15, s15, s14
 8003590:	eefd 7ae7 	vcvt.s32.f32	s15, s15
 8003594:	ee17 2a90 	vmov	r2, s15
 8003598:	4b44      	ldr	r3, [pc, #272]	; (80036ac <reference_generator_compute+0x2e4>)
 800359a:	601a      	str	r2, [r3, #0]
		low_level_time = time_low_input_s * SECOND;
 800359c:	4b44      	ldr	r3, [pc, #272]	; (80036b0 <reference_generator_compute+0x2e8>)
 800359e:	edd3 7a00 	vldr	s15, [r3]
 80035a2:	ed9f 7a41 	vldr	s14, [pc, #260]	; 80036a8 <reference_generator_compute+0x2e0>
 80035a6:	ee67 7a87 	vmul.f32	s15, s15, s14
 80035aa:	eefd 7ae7 	vcvt.s32.f32	s15, s15
 80035ae:	ee17 2a90 	vmov	r2, s15
 80035b2:	4b40      	ldr	r3, [pc, #256]	; (80036b4 <reference_generator_compute+0x2ec>)
 80035b4:	601a      	str	r2, [r3, #0]
		rise_time = time_rise_input_s * SECOND;
 80035b6:	4b40      	ldr	r3, [pc, #256]	; (80036b8 <reference_generator_compute+0x2f0>)
 80035b8:	edd3 7a00 	vldr	s15, [r3]
 80035bc:	ed9f 7a3a 	vldr	s14, [pc, #232]	; 80036a8 <reference_generator_compute+0x2e0>
 80035c0:	ee67 7a87 	vmul.f32	s15, s15, s14
 80035c4:	eefd 7ae7 	vcvt.s32.f32	s15, s15
 80035c8:	ee17 2a90 	vmov	r2, s15
 80035cc:	4b3b      	ldr	r3, [pc, #236]	; (80036bc <reference_generator_compute+0x2f4>)
 80035ce:	601a      	str	r2, [r3, #0]
		fall_time = time_fall_input_s * SECOND;
 80035d0:	4b3b      	ldr	r3, [pc, #236]	; (80036c0 <reference_generator_compute+0x2f8>)
 80035d2:	edd3 7a00 	vldr	s15, [r3]
 80035d6:	ed9f 7a34 	vldr	s14, [pc, #208]	; 80036a8 <reference_generator_compute+0x2e0>
 80035da:	ee67 7a87 	vmul.f32	s15, s15, s14
 80035de:	eefd 7ae7 	vcvt.s32.f32	s15, s15
 80035e2:	ee17 2a90 	vmov	r2, s15
 80035e6:	4b37      	ldr	r3, [pc, #220]	; (80036c4 <reference_generator_compute+0x2fc>)
 80035e8:	601a      	str	r2, [r3, #0]
//		high_level = 2000;
//		high_level_time = 5 * SECOND;
//		low_level_time = 0 * SECOND;
//		rise_time = 0 * SECOND;
//		fall_time = 0 * SECOND;
		break;
 80035ea:	e000      	b.n	80035ee <reference_generator_compute+0x226>
	default:
		break;
 80035ec:	bf00      	nop
	}

	//No rise time
	if (0 == rise_time)
 80035ee:	4b33      	ldr	r3, [pc, #204]	; (80036bc <reference_generator_compute+0x2f4>)
 80035f0:	681b      	ldr	r3, [r3, #0]
 80035f2:	2b00      	cmp	r3, #0
 80035f4:	d109      	bne.n	800360a <reference_generator_compute+0x242>
	{
		rise_increment = high_level;
 80035f6:	4b2a      	ldr	r3, [pc, #168]	; (80036a0 <reference_generator_compute+0x2d8>)
 80035f8:	681b      	ldr	r3, [r3, #0]
 80035fa:	ee07 3a90 	vmov	s15, r3
 80035fe:	eef8 7ae7 	vcvt.f32.s32	s15, s15
 8003602:	4b34      	ldr	r3, [pc, #208]	; (80036d4 <reference_generator_compute+0x30c>)
 8003604:	edc3 7a00 	vstr	s15, [r3]
 8003608:	e010      	b.n	800362c <reference_generator_compute+0x264>
	}
	else
	{
		rise_increment = (float_t)high_level / rise_time;
 800360a:	4b25      	ldr	r3, [pc, #148]	; (80036a0 <reference_generator_compute+0x2d8>)
 800360c:	681b      	ldr	r3, [r3, #0]
 800360e:	ee07 3a90 	vmov	s15, r3
 8003612:	eeb8 7ae7 	vcvt.f32.s32	s14, s15
 8003616:	4b29      	ldr	r3, [pc, #164]	; (80036bc <reference_generator_compute+0x2f4>)
 8003618:	681b      	ldr	r3, [r3, #0]
 800361a:	ee07 3a90 	vmov	s15, r3
 800361e:	eef8 7ae7 	vcvt.f32.s32	s15, s15
 8003622:	eec7 7a27 	vdiv.f32	s15, s14, s15
 8003626:	4b2b      	ldr	r3, [pc, #172]	; (80036d4 <reference_generator_compute+0x30c>)
 8003628:	edc3 7a00 	vstr	s15, [r3]
	}

	//No fall time
	if (0 == fall_time)
 800362c:	4b25      	ldr	r3, [pc, #148]	; (80036c4 <reference_generator_compute+0x2fc>)
 800362e:	681b      	ldr	r3, [r3, #0]
 8003630:	2b00      	cmp	r3, #0
 8003632:	d109      	bne.n	8003648 <reference_generator_compute+0x280>
	{
		fall_decrement = high_level;
 8003634:	4b1a      	ldr	r3, [pc, #104]	; (80036a0 <reference_generator_compute+0x2d8>)
 8003636:	681b      	ldr	r3, [r3, #0]
 8003638:	ee07 3a90 	vmov	s15, r3
 800363c:	eef8 7ae7 	vcvt.f32.s32	s15, s15
 8003640:	4b25      	ldr	r3, [pc, #148]	; (80036d8 <reference_generator_compute+0x310>)
 8003642:	edc3 7a00 	vstr	s15, [r3]
 8003646:	e010      	b.n	800366a <reference_generator_compute+0x2a2>
	}
	else
	{
		fall_decrement = (float_t)high_level / fall_time;
 8003648:	4b15      	ldr	r3, [pc, #84]	; (80036a0 <reference_generator_compute+0x2d8>)
 800364a:	681b      	ldr	r3, [r3, #0]
 800364c:	ee07 3a90 	vmov	s15, r3
 8003650:	eeb8 7ae7 	vcvt.f32.s32	s14, s15
 8003654:	4b1b      	ldr	r3, [pc, #108]	; (80036c4 <reference_generator_compute+0x2fc>)
 8003656:	681b      	ldr	r3, [r3, #0]
 8003658:	ee07 3a90 	vmov	s15, r3
 800365c:	eef8 7ae7 	vcvt.f32.s32	s15, s15
 8003660:	eec7 7a27 	vdiv.f32	s15, s14, s15
 8003664:	4b1c      	ldr	r3, [pc, #112]	; (80036d8 <reference_generator_compute+0x310>)
 8003666:	edc3 7a00 	vstr	s15, [r3]
	}

	reference = 0;
 800366a:	4b1c      	ldr	r3, [pc, #112]	; (80036dc <reference_generator_compute+0x314>)
 800366c:	f04f 0200 	mov.w	r2, #0
 8003670:	601a      	str	r2, [r3, #0]
	reference_old = 0;
 8003672:	4b1b      	ldr	r3, [pc, #108]	; (80036e0 <reference_generator_compute+0x318>)
 8003674:	f04f 0200 	mov.w	r2, #0
 8003678:	601a      	str	r2, [r3, #0]
  \details Disables IRQ interrupts by setting the I-bit in the CPSR.
           Can only be executed in Privileged modes.
 */
__STATIC_FORCEINLINE void __disable_irq(void)
{
  __ASM volatile ("cpsid i" : : : "memory");
 800367a:	b672      	cpsid	i

	__disable_irq();
	interrupt_counter_ref_gen = 0;
 800367c:	4b19      	ldr	r3, [pc, #100]	; (80036e4 <reference_generator_compute+0x31c>)
 800367e:	2200      	movs	r2, #0
 8003680:	601a      	str	r2, [r3, #0]
  \details Enables IRQ interrupts by clearing the I-bit in the CPSR.
           Can only be executed in Privileged modes.
 */
__STATIC_FORCEINLINE void __enable_irq(void)
{
  __ASM volatile ("cpsie i" : : : "memory");
 8003682:	b662      	cpsie	i
	__enable_irq();
	ref_gen_status = STATUS_1_RISE;
 8003684:	4b18      	ldr	r3, [pc, #96]	; (80036e8 <reference_generator_compute+0x320>)
 8003686:	2201      	movs	r2, #1
 8003688:	701a      	strb	r2, [r3, #0]
}
 800368a:	46bd      	mov	sp, r7
 800368c:	f85d 7b04 	ldr.w	r7, [sp], #4
 8003690:	4770      	bx	lr
 8003692:	bf00      	nop
 8003694:	1fff066c 	.word	0x1fff066c
 8003698:	1fff0660 	.word	0x1fff0660
 800369c:	457a0000 	.word	0x457a0000
 80036a0:	1fff07c8 	.word	0x1fff07c8
 80036a4:	1fff064c 	.word	0x1fff064c
 80036a8:	447a0000 	.word	0x447a0000
 80036ac:	1fff07b8 	.word	0x1fff07b8
 80036b0:	1fff0650 	.word	0x1fff0650
 80036b4:	1fff07c4 	.word	0x1fff07c4
 80036b8:	1fff0644 	.word	0x1fff0644
 80036bc:	1fff07c0 	.word	0x1fff07c0
 80036c0:	1fff0648 	.word	0x1fff0648
 80036c4:	1fff07d0 	.word	0x1fff07d0
 80036c8:	1fff065c 	.word	0x1fff065c
 80036cc:	1fff0654 	.word	0x1fff0654
 80036d0:	1fff0658 	.word	0x1fff0658
 80036d4:	1fff07b4 	.word	0x1fff07b4
 80036d8:	1fff07cc 	.word	0x1fff07cc
 80036dc:	1fff0664 	.word	0x1fff0664
 80036e0:	1fff0668 	.word	0x1fff0668
 80036e4:	1fff063c 	.word	0x1fff063c
 80036e8:	1fff0640 	.word	0x1fff0640

080036ec <reference_generator>:

void reference_generator(void)
{
 80036ec:	b480      	push	{r7}
 80036ee:	af00      	add	r7, sp, #0
	switch (ref_gen_status)
 80036f0:	4b4f      	ldr	r3, [pc, #316]	; (8003830 <reference_generator+0x144>)
 80036f2:	781b      	ldrb	r3, [r3, #0]
 80036f4:	3b01      	subs	r3, #1
 80036f6:	2b03      	cmp	r3, #3
 80036f8:	d870      	bhi.n	80037dc <reference_generator+0xf0>
 80036fa:	a201      	add	r2, pc, #4	; (adr r2, 8003700 <reference_generator+0x14>)
 80036fc:	f852 f023 	ldr.w	pc, [r2, r3, lsl #2]
 8003700:	08003711 	.word	0x08003711
 8003704:	08003743 	.word	0x08003743
 8003708:	08003761 	.word	0x08003761
 800370c:	08003793 	.word	0x08003793
	{
	case (STATUS_1_RISE):
		if (interrupt_counter_ref_gen >= rise_time)
 8003710:	4b48      	ldr	r3, [pc, #288]	; (8003834 <reference_generator+0x148>)
 8003712:	681b      	ldr	r3, [r3, #0]
 8003714:	461a      	mov	r2, r3
 8003716:	4b48      	ldr	r3, [pc, #288]	; (8003838 <reference_generator+0x14c>)
 8003718:	681b      	ldr	r3, [r3, #0]
 800371a:	429a      	cmp	r2, r3
 800371c:	d805      	bhi.n	800372a <reference_generator+0x3e>
		{
			ref_gen_status = STATUS_2_HIGH_LEVEL;
 800371e:	4b44      	ldr	r3, [pc, #272]	; (8003830 <reference_generator+0x144>)
 8003720:	2202      	movs	r2, #2
 8003722:	701a      	strb	r2, [r3, #0]
			interrupt_counter_ref_gen = 0;
 8003724:	4b44      	ldr	r3, [pc, #272]	; (8003838 <reference_generator+0x14c>)
 8003726:	2200      	movs	r2, #0
 8003728:	601a      	str	r2, [r3, #0]
		}
		reference += rise_increment;
 800372a:	4b44      	ldr	r3, [pc, #272]	; (800383c <reference_generator+0x150>)
 800372c:	ed93 7a00 	vldr	s14, [r3]
 8003730:	4b43      	ldr	r3, [pc, #268]	; (8003840 <reference_generator+0x154>)
 8003732:	edd3 7a00 	vldr	s15, [r3]
 8003736:	ee77 7a27 	vadd.f32	s15, s14, s15
 800373a:	4b40      	ldr	r3, [pc, #256]	; (800383c <reference_generator+0x150>)
 800373c:	edc3 7a00 	vstr	s15, [r3]

		break;
 8003740:	e04d      	b.n	80037de <reference_generator+0xf2>

	case (STATUS_2_HIGH_LEVEL):
		if (interrupt_counter_ref_gen >= high_level_time)
 8003742:	4b40      	ldr	r3, [pc, #256]	; (8003844 <reference_generator+0x158>)
 8003744:	681b      	ldr	r3, [r3, #0]
 8003746:	461a      	mov	r2, r3
 8003748:	4b3b      	ldr	r3, [pc, #236]	; (8003838 <reference_generator+0x14c>)
 800374a:	681b      	ldr	r3, [r3, #0]
 800374c:	429a      	cmp	r2, r3
 800374e:	d806      	bhi.n	800375e <reference_generator+0x72>
		{
			ref_gen_status = STATUS_3_FALL;
 8003750:	4b37      	ldr	r3, [pc, #220]	; (8003830 <reference_generator+0x144>)
 8003752:	2203      	movs	r2, #3
 8003754:	701a      	strb	r2, [r3, #0]
			interrupt_counter_ref_gen = 0;
 8003756:	4b38      	ldr	r3, [pc, #224]	; (8003838 <reference_generator+0x14c>)
 8003758:	2200      	movs	r2, #0
 800375a:	601a      	str	r2, [r3, #0]
		}
		break;
 800375c:	e03f      	b.n	80037de <reference_generator+0xf2>
 800375e:	e03e      	b.n	80037de <reference_generator+0xf2>

	case (STATUS_3_FALL):
	{
		if (interrupt_counter_ref_gen >= fall_time)
 8003760:	4b39      	ldr	r3, [pc, #228]	; (8003848 <reference_generator+0x15c>)
 8003762:	681b      	ldr	r3, [r3, #0]
 8003764:	461a      	mov	r2, r3
 8003766:	4b34      	ldr	r3, [pc, #208]	; (8003838 <reference_generator+0x14c>)
 8003768:	681b      	ldr	r3, [r3, #0]
 800376a:	429a      	cmp	r2, r3
 800376c:	d805      	bhi.n	800377a <reference_generator+0x8e>
		{
			ref_gen_status = STATUS_4_LOW_LEVEL;
 800376e:	4b30      	ldr	r3, [pc, #192]	; (8003830 <reference_generator+0x144>)
 8003770:	2204      	movs	r2, #4
 8003772:	701a      	strb	r2, [r3, #0]
			interrupt_counter_ref_gen = 0;
 8003774:	4b30      	ldr	r3, [pc, #192]	; (8003838 <reference_generator+0x14c>)
 8003776:	2200      	movs	r2, #0
 8003778:	601a      	str	r2, [r3, #0]
		}
		reference -= fall_decrement;
 800377a:	4b30      	ldr	r3, [pc, #192]	; (800383c <reference_generator+0x150>)
 800377c:	ed93 7a00 	vldr	s14, [r3]
 8003780:	4b32      	ldr	r3, [pc, #200]	; (800384c <reference_generator+0x160>)
 8003782:	edd3 7a00 	vldr	s15, [r3]
 8003786:	ee77 7a67 	vsub.f32	s15, s14, s15
 800378a:	4b2c      	ldr	r3, [pc, #176]	; (800383c <reference_generator+0x150>)
 800378c:	edc3 7a00 	vstr	s15, [r3]
	}
	break;
 8003790:	e025      	b.n	80037de <reference_generator+0xf2>

	case (STATUS_4_LOW_LEVEL):
		if ((interrupt_counter_ref_gen >= low_level_time) && (repeat_motion == 0))
 8003792:	4b2f      	ldr	r3, [pc, #188]	; (8003850 <reference_generator+0x164>)
 8003794:	681b      	ldr	r3, [r3, #0]
 8003796:	461a      	mov	r2, r3
 8003798:	4b27      	ldr	r3, [pc, #156]	; (8003838 <reference_generator+0x14c>)
 800379a:	681b      	ldr	r3, [r3, #0]
 800379c:	429a      	cmp	r2, r3
 800379e:	d80a      	bhi.n	80037b6 <reference_generator+0xca>
 80037a0:	4b2c      	ldr	r3, [pc, #176]	; (8003854 <reference_generator+0x168>)
 80037a2:	781b      	ldrb	r3, [r3, #0]
 80037a4:	2b00      	cmp	r3, #0
 80037a6:	d106      	bne.n	80037b6 <reference_generator+0xca>
		{
			ref_gen_status = STATUS_0_DISABLED;
 80037a8:	4b21      	ldr	r3, [pc, #132]	; (8003830 <reference_generator+0x144>)
 80037aa:	2200      	movs	r2, #0
 80037ac:	701a      	strb	r2, [r3, #0]
			interrupt_counter_ref_gen = 0;
 80037ae:	4b22      	ldr	r3, [pc, #136]	; (8003838 <reference_generator+0x14c>)
 80037b0:	2200      	movs	r2, #0
 80037b2:	601a      	str	r2, [r3, #0]
 80037b4:	e011      	b.n	80037da <reference_generator+0xee>
		}
		else if ((interrupt_counter_ref_gen >= low_level_time) && (repeat_motion == 1))
 80037b6:	4b26      	ldr	r3, [pc, #152]	; (8003850 <reference_generator+0x164>)
 80037b8:	681b      	ldr	r3, [r3, #0]
 80037ba:	461a      	mov	r2, r3
 80037bc:	4b1e      	ldr	r3, [pc, #120]	; (8003838 <reference_generator+0x14c>)
 80037be:	681b      	ldr	r3, [r3, #0]
 80037c0:	429a      	cmp	r2, r3
 80037c2:	d80a      	bhi.n	80037da <reference_generator+0xee>
 80037c4:	4b23      	ldr	r3, [pc, #140]	; (8003854 <reference_generator+0x168>)
 80037c6:	781b      	ldrb	r3, [r3, #0]
 80037c8:	2b01      	cmp	r3, #1
 80037ca:	d106      	bne.n	80037da <reference_generator+0xee>
		{
			ref_gen_status = STATUS_1_RISE;
 80037cc:	4b18      	ldr	r3, [pc, #96]	; (8003830 <reference_generator+0x144>)
 80037ce:	2201      	movs	r2, #1
 80037d0:	701a      	strb	r2, [r3, #0]
			interrupt_counter_ref_gen = 0;
 80037d2:	4b19      	ldr	r3, [pc, #100]	; (8003838 <reference_generator+0x14c>)
 80037d4:	2200      	movs	r2, #0
 80037d6:	601a      	str	r2, [r3, #0]
		}
		break;
 80037d8:	e001      	b.n	80037de <reference_generator+0xf2>
 80037da:	e000      	b.n	80037de <reference_generator+0xf2>

	default:
		break;
 80037dc:	bf00      	nop
	}

	switch (ref_type_select)
 80037de:	4b1e      	ldr	r3, [pc, #120]	; (8003858 <reference_generator+0x16c>)
 80037e0:	781b      	ldrb	r3, [r3, #0]
 80037e2:	2b03      	cmp	r3, #3
 80037e4:	d81e      	bhi.n	8003824 <reference_generator+0x138>
 80037e6:	a201      	add	r2, pc, #4	; (adr r2, 80037ec <reference_generator+0x100>)
 80037e8:	f852 f023 	ldr.w	pc, [r2, r3, lsl #2]
 80037ec:	080037fd 	.word	0x080037fd
 80037f0:	08003807 	.word	0x08003807
 80037f4:	08003811 	.word	0x08003811
 80037f8:	0800381b 	.word	0x0800381b
	{
	case (REF_POS):
		pos_ref = reference;
 80037fc:	4b0f      	ldr	r3, [pc, #60]	; (800383c <reference_generator+0x150>)
 80037fe:	681b      	ldr	r3, [r3, #0]
 8003800:	4a16      	ldr	r2, [pc, #88]	; (800385c <reference_generator+0x170>)
 8003802:	6013      	str	r3, [r2, #0]
		break;
 8003804:	e00f      	b.n	8003826 <reference_generator+0x13a>
	case (REF_SPD):
		spd_ref = reference;
 8003806:	4b0d      	ldr	r3, [pc, #52]	; (800383c <reference_generator+0x150>)
 8003808:	681b      	ldr	r3, [r3, #0]
 800380a:	4a15      	ldr	r2, [pc, #84]	; (8003860 <reference_generator+0x174>)
 800380c:	6013      	str	r3, [r2, #0]
		break;
 800380e:	e00a      	b.n	8003826 <reference_generator+0x13a>
	case (REF_I):
		i_q_ref = reference;
 8003810:	4b0a      	ldr	r3, [pc, #40]	; (800383c <reference_generator+0x150>)
 8003812:	681b      	ldr	r3, [r3, #0]
 8003814:	4a13      	ldr	r2, [pc, #76]	; (8003864 <reference_generator+0x178>)
 8003816:	6013      	str	r3, [r2, #0]
		break;
 8003818:	e005      	b.n	8003826 <reference_generator+0x13a>
	case (REF_U):
		u_q_ref = reference;
 800381a:	4b08      	ldr	r3, [pc, #32]	; (800383c <reference_generator+0x150>)
 800381c:	681b      	ldr	r3, [r3, #0]
 800381e:	4a12      	ldr	r2, [pc, #72]	; (8003868 <reference_generator+0x17c>)
 8003820:	6013      	str	r3, [r2, #0]
		break;
 8003822:	e000      	b.n	8003826 <reference_generator+0x13a>
	default:
		break;
 8003824:	bf00      	nop
	}
}
 8003826:	46bd      	mov	sp, r7
 8003828:	f85d 7b04 	ldr.w	r7, [sp], #4
 800382c:	4770      	bx	lr
 800382e:	bf00      	nop
 8003830:	1fff0640 	.word	0x1fff0640
 8003834:	1fff07c0 	.word	0x1fff07c0
 8003838:	1fff063c 	.word	0x1fff063c
 800383c:	1fff0664 	.word	0x1fff0664
 8003840:	1fff07b4 	.word	0x1fff07b4
 8003844:	1fff07b8 	.word	0x1fff07b8
 8003848:	1fff07d0 	.word	0x1fff07d0
 800384c:	1fff07cc 	.word	0x1fff07cc
 8003850:	1fff07c4 	.word	0x1fff07c4
 8003854:	1ffe881c 	.word	0x1ffe881c
 8003858:	1fff066c 	.word	0x1fff066c
 800385c:	1ffe8844 	.word	0x1ffe8844
 8003860:	1ffe8848 	.word	0x1ffe8848
 8003864:	1ffe883c 	.word	0x1ffe883c
 8003868:	1ffe884c 	.word	0x1ffe884c

0800386c <state_machine>:
/*
	Simple State Machine
	DRIVE_DISABLED | DRIVE_ON | OPERATION_ENABLED
*/
void state_machine(void)
{
 800386c:	b580      	push	{r7, lr}
 800386e:	af00      	add	r7, sp, #0
	switch (DRIVE_STATUS_MSK)
 8003870:	4b81      	ldr	r3, [pc, #516]	; (8003a78 <state_machine+0x20c>)
 8003872:	881b      	ldrh	r3, [r3, #0]
 8003874:	f003 030f 	and.w	r3, r3, #15
 8003878:	2b01      	cmp	r3, #1
 800387a:	d026      	beq.n	80038ca <state_machine+0x5e>
 800387c:	2b01      	cmp	r3, #1
 800387e:	d302      	bcc.n	8003886 <state_machine+0x1a>
 8003880:	2b02      	cmp	r3, #2
 8003882:	d061      	beq.n	8003948 <state_machine+0xdc>
			drive_command_old = drive_command;
		}
	}
	break;
	default:
		break;
 8003884:	e0f6      	b.n	8003a74 <state_machine+0x208>
{
	switch (DRIVE_STATUS_MSK)
	{
	case (STATE_0_DRIVE_DISABLED):
		// Transition 0->1
		if ((DRIVE_COMMAND_OLD_STATE_MSK == STATE_0_DRIVE_DISABLED) && (DRIVE_COMMAND_STATE_MSK == STATE_1_DRIVE_ON))
 8003886:	4b7d      	ldr	r3, [pc, #500]	; (8003a7c <state_machine+0x210>)
 8003888:	881b      	ldrh	r3, [r3, #0]
 800388a:	f003 030f 	and.w	r3, r3, #15
 800388e:	2b00      	cmp	r3, #0
 8003890:	d11a      	bne.n	80038c8 <state_machine+0x5c>
 8003892:	4b7b      	ldr	r3, [pc, #492]	; (8003a80 <state_machine+0x214>)
 8003894:	881b      	ldrh	r3, [r3, #0]
 8003896:	f003 030f 	and.w	r3, r3, #15
 800389a:	2b01      	cmp	r3, #1
 800389c:	d114      	bne.n	80038c8 <state_machine+0x5c>
		{
			drive_on();
 800389e:	f000 f909 	bl	8003ab4 <drive_on>
			drive_status &= DRIVE_STATUS_CLEAR;
 80038a2:	4b75      	ldr	r3, [pc, #468]	; (8003a78 <state_machine+0x20c>)
 80038a4:	881b      	ldrh	r3, [r3, #0]
 80038a6:	f023 030f 	bic.w	r3, r3, #15
 80038aa:	b29a      	uxth	r2, r3
 80038ac:	4b72      	ldr	r3, [pc, #456]	; (8003a78 <state_machine+0x20c>)
 80038ae:	801a      	strh	r2, [r3, #0]
			drive_status |= STATE_1_DRIVE_ON;
 80038b0:	4b71      	ldr	r3, [pc, #452]	; (8003a78 <state_machine+0x20c>)
 80038b2:	881b      	ldrh	r3, [r3, #0]
 80038b4:	f043 0301 	orr.w	r3, r3, #1
 80038b8:	b29a      	uxth	r2, r3
 80038ba:	4b6f      	ldr	r3, [pc, #444]	; (8003a78 <state_machine+0x20c>)
 80038bc:	801a      	strh	r2, [r3, #0]
			drive_command_old = drive_command;
 80038be:	4b70      	ldr	r3, [pc, #448]	; (8003a80 <state_machine+0x214>)
 80038c0:	881a      	ldrh	r2, [r3, #0]
 80038c2:	4b6e      	ldr	r3, [pc, #440]	; (8003a7c <state_machine+0x210>)
 80038c4:	801a      	strh	r2, [r3, #0]
		}
		break;
 80038c6:	e0d5      	b.n	8003a74 <state_machine+0x208>
 80038c8:	e0d4      	b.n	8003a74 <state_machine+0x208>

	case (STATE_1_DRIVE_ON):
		// Transition 1->2
		if ((DRIVE_COMMAND_OLD_STATE_MSK == STATE_1_DRIVE_ON) && (DRIVE_COMMAND_STATE_MSK == STATE_2_OPERATION_ENABLED))
 80038ca:	4b6c      	ldr	r3, [pc, #432]	; (8003a7c <state_machine+0x210>)
 80038cc:	881b      	ldrh	r3, [r3, #0]
 80038ce:	f003 030f 	and.w	r3, r3, #15
 80038d2:	2b01      	cmp	r3, #1
 80038d4:	d119      	bne.n	800390a <state_machine+0x9e>
 80038d6:	4b6a      	ldr	r3, [pc, #424]	; (8003a80 <state_machine+0x214>)
 80038d8:	881b      	ldrh	r3, [r3, #0]
 80038da:	f003 030f 	and.w	r3, r3, #15
 80038de:	2b02      	cmp	r3, #2
 80038e0:	d113      	bne.n	800390a <state_machine+0x9e>
		{
			operation_enabled();
 80038e2:	f000 f905 	bl	8003af0 <operation_enabled>
			drive_status &= DRIVE_STATUS_CLEAR;
 80038e6:	4b64      	ldr	r3, [pc, #400]	; (8003a78 <state_machine+0x20c>)
 80038e8:	881b      	ldrh	r3, [r3, #0]
 80038ea:	f023 030f 	bic.w	r3, r3, #15
 80038ee:	b29a      	uxth	r2, r3
 80038f0:	4b61      	ldr	r3, [pc, #388]	; (8003a78 <state_machine+0x20c>)
 80038f2:	801a      	strh	r2, [r3, #0]
			drive_status |= STATE_2_OPERATION_ENABLED;
 80038f4:	4b60      	ldr	r3, [pc, #384]	; (8003a78 <state_machine+0x20c>)
 80038f6:	881b      	ldrh	r3, [r3, #0]
 80038f8:	f043 0302 	orr.w	r3, r3, #2
 80038fc:	b29a      	uxth	r2, r3
 80038fe:	4b5e      	ldr	r3, [pc, #376]	; (8003a78 <state_machine+0x20c>)
 8003900:	801a      	strh	r2, [r3, #0]
			drive_command_old = drive_command;
 8003902:	4b5f      	ldr	r3, [pc, #380]	; (8003a80 <state_machine+0x214>)
 8003904:	881a      	ldrh	r2, [r3, #0]
 8003906:	4b5d      	ldr	r3, [pc, #372]	; (8003a7c <state_machine+0x210>)
 8003908:	801a      	strh	r2, [r3, #0]
		}
		// Transition 1->0
		if ((DRIVE_COMMAND_OLD_STATE_MSK == STATE_1_DRIVE_ON) && (DRIVE_COMMAND_STATE_MSK == STATE_0_DRIVE_DISABLED))
 800390a:	4b5c      	ldr	r3, [pc, #368]	; (8003a7c <state_machine+0x210>)
 800390c:	881b      	ldrh	r3, [r3, #0]
 800390e:	f003 030f 	and.w	r3, r3, #15
 8003912:	2b01      	cmp	r3, #1
 8003914:	d117      	bne.n	8003946 <state_machine+0xda>
 8003916:	4b5a      	ldr	r3, [pc, #360]	; (8003a80 <state_machine+0x214>)
 8003918:	881b      	ldrh	r3, [r3, #0]
 800391a:	f003 030f 	and.w	r3, r3, #15
 800391e:	2b00      	cmp	r3, #0
 8003920:	d111      	bne.n	8003946 <state_machine+0xda>
		{
			drive_disabled();
 8003922:	f000 f8b3 	bl	8003a8c <drive_disabled>
			drive_status &= DRIVE_STATUS_CLEAR;
 8003926:	4b54      	ldr	r3, [pc, #336]	; (8003a78 <state_machine+0x20c>)
 8003928:	881b      	ldrh	r3, [r3, #0]
 800392a:	f023 030f 	bic.w	r3, r3, #15
 800392e:	b29a      	uxth	r2, r3
 8003930:	4b51      	ldr	r3, [pc, #324]	; (8003a78 <state_machine+0x20c>)
 8003932:	801a      	strh	r2, [r3, #0]
			drive_status |= STATE_0_DRIVE_DISABLED;
 8003934:	4b50      	ldr	r3, [pc, #320]	; (8003a78 <state_machine+0x20c>)
 8003936:	881a      	ldrh	r2, [r3, #0]
 8003938:	4b4f      	ldr	r3, [pc, #316]	; (8003a78 <state_machine+0x20c>)
 800393a:	801a      	strh	r2, [r3, #0]
			drive_command_old = drive_command;
 800393c:	4b50      	ldr	r3, [pc, #320]	; (8003a80 <state_machine+0x214>)
 800393e:	881a      	ldrh	r2, [r3, #0]
 8003940:	4b4e      	ldr	r3, [pc, #312]	; (8003a7c <state_machine+0x210>)
 8003942:	801a      	strh	r2, [r3, #0]
		}
		break;
 8003944:	e096      	b.n	8003a74 <state_machine+0x208>
 8003946:	e095      	b.n	8003a74 <state_machine+0x208>

	case (STATE_2_OPERATION_ENABLED):
	{
		// Transition 2->1
		if ((DRIVE_COMMAND_OLD_STATE_MSK == STATE_2_OPERATION_ENABLED) && (DRIVE_COMMAND_STATE_MSK == STATE_1_DRIVE_ON))
 8003948:	4b4c      	ldr	r3, [pc, #304]	; (8003a7c <state_machine+0x210>)
 800394a:	881b      	ldrh	r3, [r3, #0]
 800394c:	f003 030f 	and.w	r3, r3, #15
 8003950:	2b02      	cmp	r3, #2
 8003952:	d119      	bne.n	8003988 <state_machine+0x11c>
 8003954:	4b4a      	ldr	r3, [pc, #296]	; (8003a80 <state_machine+0x214>)
 8003956:	881b      	ldrh	r3, [r3, #0]
 8003958:	f003 030f 	and.w	r3, r3, #15
 800395c:	2b01      	cmp	r3, #1
 800395e:	d113      	bne.n	8003988 <state_machine+0x11c>
		{
			drive_on();
 8003960:	f000 f8a8 	bl	8003ab4 <drive_on>
			drive_status &= DRIVE_STATUS_CLEAR;
 8003964:	4b44      	ldr	r3, [pc, #272]	; (8003a78 <state_machine+0x20c>)
 8003966:	881b      	ldrh	r3, [r3, #0]
 8003968:	f023 030f 	bic.w	r3, r3, #15
 800396c:	b29a      	uxth	r2, r3
 800396e:	4b42      	ldr	r3, [pc, #264]	; (8003a78 <state_machine+0x20c>)
 8003970:	801a      	strh	r2, [r3, #0]
			drive_status |= STATE_1_DRIVE_ON;
 8003972:	4b41      	ldr	r3, [pc, #260]	; (8003a78 <state_machine+0x20c>)
 8003974:	881b      	ldrh	r3, [r3, #0]
 8003976:	f043 0301 	orr.w	r3, r3, #1
 800397a:	b29a      	uxth	r2, r3
 800397c:	4b3e      	ldr	r3, [pc, #248]	; (8003a78 <state_machine+0x20c>)
 800397e:	801a      	strh	r2, [r3, #0]
			drive_command_old = drive_command;
 8003980:	4b3f      	ldr	r3, [pc, #252]	; (8003a80 <state_machine+0x214>)
 8003982:	881a      	ldrh	r2, [r3, #0]
 8003984:	4b3d      	ldr	r3, [pc, #244]	; (8003a7c <state_machine+0x210>)
 8003986:	801a      	strh	r2, [r3, #0]
		}
		// Transition 2->0
		if ((DRIVE_COMMAND_OLD_STATE_MSK == STATE_2_OPERATION_ENABLED) && (DRIVE_COMMAND_STATE_MSK == STATE_0_DRIVE_DISABLED))
 8003988:	4b3c      	ldr	r3, [pc, #240]	; (8003a7c <state_machine+0x210>)
 800398a:	881b      	ldrh	r3, [r3, #0]
 800398c:	f003 030f 	and.w	r3, r3, #15
 8003990:	2b02      	cmp	r3, #2
 8003992:	d116      	bne.n	80039c2 <state_machine+0x156>
 8003994:	4b3a      	ldr	r3, [pc, #232]	; (8003a80 <state_machine+0x214>)
 8003996:	881b      	ldrh	r3, [r3, #0]
 8003998:	f003 030f 	and.w	r3, r3, #15
 800399c:	2b00      	cmp	r3, #0
 800399e:	d110      	bne.n	80039c2 <state_machine+0x156>
		{
			drive_disabled();
 80039a0:	f000 f874 	bl	8003a8c <drive_disabled>
			drive_status &= DRIVE_STATUS_CLEAR;
 80039a4:	4b34      	ldr	r3, [pc, #208]	; (8003a78 <state_machine+0x20c>)
 80039a6:	881b      	ldrh	r3, [r3, #0]
 80039a8:	f023 030f 	bic.w	r3, r3, #15
 80039ac:	b29a      	uxth	r2, r3
 80039ae:	4b32      	ldr	r3, [pc, #200]	; (8003a78 <state_machine+0x20c>)
 80039b0:	801a      	strh	r2, [r3, #0]
			drive_status |= STATE_0_DRIVE_DISABLED;
 80039b2:	4b31      	ldr	r3, [pc, #196]	; (8003a78 <state_machine+0x20c>)
 80039b4:	881a      	ldrh	r2, [r3, #0]
 80039b6:	4b30      	ldr	r3, [pc, #192]	; (8003a78 <state_machine+0x20c>)
 80039b8:	801a      	strh	r2, [r3, #0]
			drive_command_old = drive_command;
 80039ba:	4b31      	ldr	r3, [pc, #196]	; (8003a80 <state_machine+0x214>)
 80039bc:	881a      	ldrh	r2, [r3, #0]
 80039be:	4b2f      	ldr	r3, [pc, #188]	; (8003a7c <state_machine+0x210>)
 80039c0:	801a      	strh	r2, [r3, #0]
		}
		// Check for update transition and OPERATION_ENABLED still active
		if ((!(DRIVE_COMMAND_UPDATE_OLD_MSK & UPDATE_MSK) && (DRIVE_COMMAND_UPDATE_MSK & UPDATE_MSK)) && (DRIVE_COMMAND_STATE_MSK == STATE_2_OPERATION_ENABLED))
 80039c2:	4b2e      	ldr	r3, [pc, #184]	; (8003a7c <state_machine+0x210>)
 80039c4:	881b      	ldrh	r3, [r3, #0]
 80039c6:	f003 0310 	and.w	r3, r3, #16
 80039ca:	2b00      	cmp	r3, #0
 80039cc:	d151      	bne.n	8003a72 <state_machine+0x206>
 80039ce:	4b2c      	ldr	r3, [pc, #176]	; (8003a80 <state_machine+0x214>)
 80039d0:	881b      	ldrh	r3, [r3, #0]
 80039d2:	f003 0310 	and.w	r3, r3, #16
 80039d6:	2b00      	cmp	r3, #0
 80039d8:	d04b      	beq.n	8003a72 <state_machine+0x206>
 80039da:	4b29      	ldr	r3, [pc, #164]	; (8003a80 <state_machine+0x214>)
 80039dc:	881b      	ldrh	r3, [r3, #0]
 80039de:	f003 030f 	and.w	r3, r3, #15
 80039e2:	2b02      	cmp	r3, #2
 80039e4:	d145      	bne.n	8003a72 <state_machine+0x206>
		{
			loop_control = LOOP_CONTROL_OFF;			// reset all loops
 80039e6:	4b27      	ldr	r3, [pc, #156]	; (8003a84 <state_machine+0x218>)
 80039e8:	2200      	movs	r2, #0
 80039ea:	701a      	strb	r2, [r3, #0]
			loop_control |= DRIVE_COMMAND_REF_MSK >> 8; // save selected loops
 80039ec:	4b24      	ldr	r3, [pc, #144]	; (8003a80 <state_machine+0x214>)
 80039ee:	881b      	ldrh	r3, [r3, #0]
 80039f0:	f403 6370 	and.w	r3, r3, #3840	; 0xf00
 80039f4:	121b      	asrs	r3, r3, #8
 80039f6:	b2da      	uxtb	r2, r3
 80039f8:	4b22      	ldr	r3, [pc, #136]	; (8003a84 <state_machine+0x218>)
 80039fa:	781b      	ldrb	r3, [r3, #0]
 80039fc:	b2db      	uxtb	r3, r3
 80039fe:	4313      	orrs	r3, r2
 8003a00:	b2db      	uxtb	r3, r3
 8003a02:	b2da      	uxtb	r2, r3
 8003a04:	4b1f      	ldr	r3, [pc, #124]	; (8003a84 <state_machine+0x218>)
 8003a06:	701a      	strb	r2, [r3, #0]

			// Check for reference generator output (Priority list: POS > SPD > I > U)
			if (DRIVE_COMMAND_REF_MSK & REF_POS_MSK)
 8003a08:	4b1d      	ldr	r3, [pc, #116]	; (8003a80 <state_machine+0x214>)
 8003a0a:	881b      	ldrh	r3, [r3, #0]
 8003a0c:	f403 6380 	and.w	r3, r3, #1024	; 0x400
 8003a10:	2b00      	cmp	r3, #0
 8003a12:	d003      	beq.n	8003a1c <state_machine+0x1b0>
			{
				// POS REF
				ref_type_select = REF_POS;
 8003a14:	4b1c      	ldr	r3, [pc, #112]	; (8003a88 <state_machine+0x21c>)
 8003a16:	2200      	movs	r2, #0
 8003a18:	701a      	strb	r2, [r3, #0]
 8003a1a:	e023      	b.n	8003a64 <state_machine+0x1f8>
			}
			else if (DRIVE_COMMAND_REF_MSK & REF_SPD_MSK)
 8003a1c:	4b18      	ldr	r3, [pc, #96]	; (8003a80 <state_machine+0x214>)
 8003a1e:	881b      	ldrh	r3, [r3, #0]
 8003a20:	f403 7300 	and.w	r3, r3, #512	; 0x200
 8003a24:	2b00      	cmp	r3, #0
 8003a26:	d003      	beq.n	8003a30 <state_machine+0x1c4>
			{
				// SPD REF
				ref_type_select = REF_SPD;
 8003a28:	4b17      	ldr	r3, [pc, #92]	; (8003a88 <state_machine+0x21c>)
 8003a2a:	2201      	movs	r2, #1
 8003a2c:	701a      	strb	r2, [r3, #0]
 8003a2e:	e019      	b.n	8003a64 <state_machine+0x1f8>
			}
			else if (DRIVE_COMMAND_REF_MSK & REF_I_MSK)
 8003a30:	4b13      	ldr	r3, [pc, #76]	; (8003a80 <state_machine+0x214>)
 8003a32:	881b      	ldrh	r3, [r3, #0]
 8003a34:	f403 7380 	and.w	r3, r3, #256	; 0x100
 8003a38:	2b00      	cmp	r3, #0
 8003a3a:	d010      	beq.n	8003a5e <state_machine+0x1f2>
			{
				// I REFF
				ref_type_select = REF_I;
 8003a3c:	4b12      	ldr	r3, [pc, #72]	; (8003a88 <state_machine+0x21c>)
 8003a3e:	2202      	movs	r2, #2
 8003a40:	701a      	strb	r2, [r3, #0]
				if (DRIVE_COMMAND_TEST_MSK & TUNE_TEST)
 8003a42:	4b0f      	ldr	r3, [pc, #60]	; (8003a80 <state_machine+0x214>)
 8003a44:	881b      	ldrh	r3, [r3, #0]
 8003a46:	b29b      	uxth	r3, r3
 8003a48:	b21b      	sxth	r3, r3
 8003a4a:	2b00      	cmp	r3, #0
 8003a4c:	da0a      	bge.n	8003a64 <state_machine+0x1f8>
				{
					loop_control |= TUNE_REF_LOOP_MSK;
 8003a4e:	4b0d      	ldr	r3, [pc, #52]	; (8003a84 <state_machine+0x218>)
 8003a50:	781b      	ldrb	r3, [r3, #0]
 8003a52:	f063 037f 	orn	r3, r3, #127	; 0x7f
 8003a56:	b2da      	uxtb	r2, r3
 8003a58:	4b0a      	ldr	r3, [pc, #40]	; (8003a84 <state_machine+0x218>)
 8003a5a:	701a      	strb	r2, [r3, #0]
 8003a5c:	e002      	b.n	8003a64 <state_machine+0x1f8>
				}
			}
			else
			{
				// U REF
				ref_type_select = REF_U;
 8003a5e:	4b0a      	ldr	r3, [pc, #40]	; (8003a88 <state_machine+0x21c>)
 8003a60:	2203      	movs	r2, #3
 8003a62:	701a      	strb	r2, [r3, #0]
			}
			compute_motion();
 8003a64:	f000 f850 	bl	8003b08 <compute_motion>
			drive_command_old = drive_command;
 8003a68:	4b05      	ldr	r3, [pc, #20]	; (8003a80 <state_machine+0x214>)
 8003a6a:	881a      	ldrh	r2, [r3, #0]
 8003a6c:	4b03      	ldr	r3, [pc, #12]	; (8003a7c <state_machine+0x210>)
 8003a6e:	801a      	strh	r2, [r3, #0]
		}
	}
	break;
 8003a70:	e7ff      	b.n	8003a72 <state_machine+0x206>
 8003a72:	bf00      	nop
	default:
		break;
	}
}
 8003a74:	bd80      	pop	{r7, pc}
 8003a76:	bf00      	nop
 8003a78:	1fff066e 	.word	0x1fff066e
 8003a7c:	1fff0672 	.word	0x1fff0672
 8003a80:	1fff0670 	.word	0x1fff0670
 8003a84:	1fff0674 	.word	0x1fff0674
 8003a88:	1fff066c 	.word	0x1fff066c

08003a8c <drive_disabled>:
/*
	PWM output disabled
	CONTROL_LOOPS | REF_GEN | MOTION = OFF
*/
void drive_disabled(void)
{
 8003a8c:	b580      	push	{r7, lr}
 8003a8e:	af00      	add	r7, sp, #0
	motion_off();
 8003a90:	f7fd ff3c 	bl	800190c <motion_off>
	loop_control = LOOP_CONTROL_OFF;
 8003a94:	4b04      	ldr	r3, [pc, #16]	; (8003aa8 <drive_disabled+0x1c>)
 8003a96:	2200      	movs	r2, #0
 8003a98:	701a      	strb	r2, [r3, #0]
	ref_gen_status = STATUS_0_DISABLED;
 8003a9a:	4b04      	ldr	r3, [pc, #16]	; (8003aac <drive_disabled+0x20>)
 8003a9c:	2200      	movs	r2, #0
 8003a9e:	701a      	strb	r2, [r3, #0]
	motion_config = OFF;
 8003aa0:	4b03      	ldr	r3, [pc, #12]	; (8003ab0 <drive_disabled+0x24>)
 8003aa2:	2200      	movs	r2, #0
 8003aa4:	701a      	strb	r2, [r3, #0]
}
 8003aa6:	bd80      	pop	{r7, pc}
 8003aa8:	1fff0674 	.word	0x1fff0674
 8003aac:	1fff0640 	.word	0x1fff0640
 8003ab0:	1fff0675 	.word	0x1fff0675

08003ab4 <drive_on>:
/*
	Initilize position | PWM(50%) | PWM output enabled | Current offset computed
	CONTROL_LOOPS | REF_GEN | MOTION | = OFF
*/
void drive_on(void)
{
 8003ab4:	b580      	push	{r7, lr}
 8003ab6:	af00      	add	r7, sp, #0
	motion_off();
 8003ab8:	f7fd ff28 	bl	800190c <motion_off>
	loop_control = LOOP_CONTROL_OFF;
 8003abc:	4b09      	ldr	r3, [pc, #36]	; (8003ae4 <drive_on+0x30>)
 8003abe:	2200      	movs	r2, #0
 8003ac0:	701a      	strb	r2, [r3, #0]
	ref_gen_status = STATUS_0_DISABLED;
 8003ac2:	4b09      	ldr	r3, [pc, #36]	; (8003ae8 <drive_on+0x34>)
 8003ac4:	2200      	movs	r2, #0
 8003ac6:	701a      	strb	r2, [r3, #0]
	motion_config = OFF;
 8003ac8:	4b08      	ldr	r3, [pc, #32]	; (8003aec <drive_on+0x38>)
 8003aca:	2200      	movs	r2, #0
 8003acc:	701a      	strb	r2, [r3, #0]

	pwm_update(0, 0); // PWM(50%)
 8003ace:	2000      	movs	r0, #0
 8003ad0:	2100      	movs	r1, #0
 8003ad2:	f7fd fe1b 	bl	800170c <pwm_update>
	motion_on();
 8003ad6:	f7fd fedb 	bl	8001890 <motion_on>
	current_offset();
 8003ada:	f7fd faed 	bl	80010b8 <current_offset>
	init_position();
 8003ade:	f7fe f815 	bl	8001b0c <init_position>
}
 8003ae2:	bd80      	pop	{r7, pc}
 8003ae4:	1fff0674 	.word	0x1fff0674
 8003ae8:	1fff0640 	.word	0x1fff0640
 8003aec:	1fff0675 	.word	0x1fff0675

08003af0 <operation_enabled>:
/*
	CONTROL_LOOPS = OFF
	Wait for motion commands to start movement computation
*/
void operation_enabled(void)
{
 8003af0:	b480      	push	{r7}
 8003af2:	af00      	add	r7, sp, #0
	loop_control = LOOP_CONTROL_OFF;
 8003af4:	4b03      	ldr	r3, [pc, #12]	; (8003b04 <operation_enabled+0x14>)
 8003af6:	2200      	movs	r2, #0
 8003af8:	701a      	strb	r2, [r3, #0]
}
 8003afa:	46bd      	mov	sp, r7
 8003afc:	f85d 7b04 	ldr.w	r7, [sp], #4
 8003b00:	4770      	bx	lr
 8003b02:	bf00      	nop
 8003b04:	1fff0674 	.word	0x1fff0674

08003b08 <compute_motion>:

/*
	During OPERATION_ENABLE start computation function
*/
void compute_motion(void)
{
 8003b08:	b580      	push	{r7, lr}
 8003b0a:	af00      	add	r7, sp, #0
	reference_generator_compute();
 8003b0c:	f7ff fc5c 	bl	80033c8 <reference_generator_compute>
	motion_config = ON;
 8003b10:	4b01      	ldr	r3, [pc, #4]	; (8003b18 <compute_motion+0x10>)
 8003b12:	2201      	movs	r2, #1
 8003b14:	701a      	strb	r2, [r3, #0]
}
 8003b16:	bd80      	pop	{r7, pc}
 8003b18:	1fff0675 	.word	0x1fff0675

08003b1c <delay_t>:

/*
 * Wait for time*50us
 */
void delay_t(uint32_t time)
{
 8003b1c:	b480      	push	{r7}
 8003b1e:	b083      	sub	sp, #12
 8003b20:	af00      	add	r7, sp, #0
 8003b22:	6078      	str	r0, [r7, #4]
  \details Disables IRQ interrupts by setting the I-bit in the CPSR.
           Can only be executed in Privileged modes.
 */
__STATIC_FORCEINLINE void __disable_irq(void)
{
  __ASM volatile ("cpsid i" : : : "memory");
 8003b24:	b672      	cpsid	i
	__disable_irq();
	interrupt_counter_timer = 0;
 8003b26:	4b07      	ldr	r3, [pc, #28]	; (8003b44 <delay_t+0x28>)
 8003b28:	2200      	movs	r2, #0
 8003b2a:	601a      	str	r2, [r3, #0]
  \details Enables IRQ interrupts by clearing the I-bit in the CPSR.
           Can only be executed in Privileged modes.
 */
__STATIC_FORCEINLINE void __enable_irq(void)
{
  __ASM volatile ("cpsie i" : : : "memory");
 8003b2c:	b662      	cpsie	i
	__enable_irq();
	while (interrupt_counter_timer < time)
 8003b2e:	bf00      	nop
 8003b30:	4b04      	ldr	r3, [pc, #16]	; (8003b44 <delay_t+0x28>)
 8003b32:	681a      	ldr	r2, [r3, #0]
 8003b34:	687b      	ldr	r3, [r7, #4]
 8003b36:	429a      	cmp	r2, r3
 8003b38:	d3fa      	bcc.n	8003b30 <delay_t+0x14>
	{
		// NO_ACTION
	};
}
 8003b3a:	370c      	adds	r7, #12
 8003b3c:	46bd      	mov	sp, r7
 8003b3e:	f85d 7b04 	ldr.w	r7, [sp], #4
 8003b42:	4770      	bx	lr
 8003b44:	1ffe8830 	.word	0x1ffe8830

08003b48 <motor_data_init>:
	Initialize motor data
	enc_res = encoder resolution
	motor_steps = number of steps
*/
void motor_data_init(int16_t enc_res, int8_t motor_steps)
{
 8003b48:	b480      	push	{r7}
 8003b4a:	b083      	sub	sp, #12
 8003b4c:	af00      	add	r7, sp, #0
 8003b4e:	4603      	mov	r3, r0
 8003b50:	460a      	mov	r2, r1
 8003b52:	80fb      	strh	r3, [r7, #6]
 8003b54:	4613      	mov	r3, r2
 8003b56:	717b      	strb	r3, [r7, #5]
	encoder_resolution = enc_res * 4;
 8003b58:	88fb      	ldrh	r3, [r7, #6]
 8003b5a:	009b      	lsls	r3, r3, #2
 8003b5c:	b29b      	uxth	r3, r3
 8003b5e:	b29a      	uxth	r2, r3
 8003b60:	4b0d      	ldr	r3, [pc, #52]	; (8003b98 <motor_data_init+0x50>)
 8003b62:	801a      	strh	r2, [r3, #0]
	pp = motor_steps / 4;
 8003b64:	f997 3005 	ldrsb.w	r3, [r7, #5]
 8003b68:	2b00      	cmp	r3, #0
 8003b6a:	da00      	bge.n	8003b6e <motor_data_init+0x26>
 8003b6c:	3303      	adds	r3, #3
 8003b6e:	109b      	asrs	r3, r3, #2
 8003b70:	b2da      	uxtb	r2, r3
 8003b72:	4b0a      	ldr	r3, [pc, #40]	; (8003b9c <motor_data_init+0x54>)
 8003b74:	701a      	strb	r2, [r3, #0]
	electrical_resolution = encoder_resolution / pp;
 8003b76:	4b08      	ldr	r3, [pc, #32]	; (8003b98 <motor_data_init+0x50>)
 8003b78:	881b      	ldrh	r3, [r3, #0]
 8003b7a:	b21a      	sxth	r2, r3
 8003b7c:	4b07      	ldr	r3, [pc, #28]	; (8003b9c <motor_data_init+0x54>)
 8003b7e:	781b      	ldrb	r3, [r3, #0]
 8003b80:	b25b      	sxtb	r3, r3
 8003b82:	fb92 f3f3 	sdiv	r3, r2, r3
 8003b86:	b29a      	uxth	r2, r3
 8003b88:	4b05      	ldr	r3, [pc, #20]	; (8003ba0 <motor_data_init+0x58>)
 8003b8a:	801a      	strh	r2, [r3, #0]
}
 8003b8c:	370c      	adds	r7, #12
 8003b8e:	46bd      	mov	sp, r7
 8003b90:	f85d 7b04 	ldr.w	r7, [sp], #4
 8003b94:	4770      	bx	lr
 8003b96:	bf00      	nop
 8003b98:	1fff0692 	.word	0x1fff0692
 8003b9c:	1fff0694 	.word	0x1fff0694
 8003ba0:	1fff0696 	.word	0x1fff0696

08003ba4 <abc_dq>:

/*
 * Convert three-phase electrical signals from time-domain to dq0-reference frame
 */
void abc_dq(void)
{
 8003ba4:	b480      	push	{r7}
 8003ba6:	af00      	add	r7, sp, #0
	// Initializa alpha values
	i_alpha = ia;
 8003ba8:	4b20      	ldr	r3, [pc, #128]	; (8003c2c <abc_dq+0x88>)
 8003baa:	881b      	ldrh	r3, [r3, #0]
 8003bac:	b21b      	sxth	r3, r3
 8003bae:	ee07 3a90 	vmov	s15, r3
 8003bb2:	eef8 7ae7 	vcvt.f32.s32	s15, s15
 8003bb6:	4b1e      	ldr	r3, [pc, #120]	; (8003c30 <abc_dq+0x8c>)
 8003bb8:	edc3 7a00 	vstr	s15, [r3]
	i_beta = ic;
 8003bbc:	4b1d      	ldr	r3, [pc, #116]	; (8003c34 <abc_dq+0x90>)
 8003bbe:	881b      	ldrh	r3, [r3, #0]
 8003bc0:	b21b      	sxth	r3, r3
 8003bc2:	ee07 3a90 	vmov	s15, r3
 8003bc6:	eef8 7ae7 	vcvt.f32.s32	s15, s15
 8003bca:	4b1b      	ldr	r3, [pc, #108]	; (8003c38 <abc_dq+0x94>)
 8003bcc:	edc3 7a00 	vstr	s15, [r3]

	// Park Transformation
	i_d = i_alpha * cos_theta_fast + i_beta * sin_theta_fast;
 8003bd0:	4b17      	ldr	r3, [pc, #92]	; (8003c30 <abc_dq+0x8c>)
 8003bd2:	ed93 7a00 	vldr	s14, [r3]
 8003bd6:	4b19      	ldr	r3, [pc, #100]	; (8003c3c <abc_dq+0x98>)
 8003bd8:	edd3 7a00 	vldr	s15, [r3]
 8003bdc:	ee27 7a27 	vmul.f32	s14, s14, s15
 8003be0:	4b15      	ldr	r3, [pc, #84]	; (8003c38 <abc_dq+0x94>)
 8003be2:	edd3 6a00 	vldr	s13, [r3]
 8003be6:	4b16      	ldr	r3, [pc, #88]	; (8003c40 <abc_dq+0x9c>)
 8003be8:	edd3 7a00 	vldr	s15, [r3]
 8003bec:	ee66 7aa7 	vmul.f32	s15, s13, s15
 8003bf0:	ee77 7a27 	vadd.f32	s15, s14, s15
 8003bf4:	4b13      	ldr	r3, [pc, #76]	; (8003c44 <abc_dq+0xa0>)
 8003bf6:	edc3 7a00 	vstr	s15, [r3]
	i_q = i_beta * cos_theta_fast - i_alpha * sin_theta_fast;
 8003bfa:	4b0f      	ldr	r3, [pc, #60]	; (8003c38 <abc_dq+0x94>)
 8003bfc:	ed93 7a00 	vldr	s14, [r3]
 8003c00:	4b0e      	ldr	r3, [pc, #56]	; (8003c3c <abc_dq+0x98>)
 8003c02:	edd3 7a00 	vldr	s15, [r3]
 8003c06:	ee27 7a27 	vmul.f32	s14, s14, s15
 8003c0a:	4b09      	ldr	r3, [pc, #36]	; (8003c30 <abc_dq+0x8c>)
 8003c0c:	edd3 6a00 	vldr	s13, [r3]
 8003c10:	4b0b      	ldr	r3, [pc, #44]	; (8003c40 <abc_dq+0x9c>)
 8003c12:	edd3 7a00 	vldr	s15, [r3]
 8003c16:	ee66 7aa7 	vmul.f32	s15, s13, s15
 8003c1a:	ee77 7a67 	vsub.f32	s15, s14, s15
 8003c1e:	4b0a      	ldr	r3, [pc, #40]	; (8003c48 <abc_dq+0xa4>)
 8003c20:	edc3 7a00 	vstr	s15, [r3]
}
 8003c24:	46bd      	mov	sp, r7
 8003c26:	f85d 7b04 	ldr.w	r7, [sp], #4
 8003c2a:	4770      	bx	lr
 8003c2c:	1fff06ac 	.word	0x1fff06ac
 8003c30:	1fff07d8 	.word	0x1fff07d8
 8003c34:	1fff06cc 	.word	0x1fff06cc
 8003c38:	1fff07f0 	.word	0x1fff07f0
 8003c3c:	1fff0688 	.word	0x1fff0688
 8003c40:	1fff0684 	.word	0x1fff0684
 8003c44:	1fff07e0 	.word	0x1fff07e0
 8003c48:	1fff07dc 	.word	0x1fff07dc

08003c4c <dq_abc>:

/*
 * Convert two-phase balanced sinusoidal signals to three-phase electrical signals
 */
void dq_abc(void)
{
 8003c4c:	b480      	push	{r7}
 8003c4e:	af00      	add	r7, sp, #0

	// The Inverse Park Transformation
	u_alpha = u_d_ref * cos_theta_fast - u_q_ref * sin_theta_fast;
 8003c50:	4b36      	ldr	r3, [pc, #216]	; (8003d2c <dq_abc+0xe0>)
 8003c52:	ed93 7a00 	vldr	s14, [r3]
 8003c56:	4b36      	ldr	r3, [pc, #216]	; (8003d30 <dq_abc+0xe4>)
 8003c58:	edd3 7a00 	vldr	s15, [r3]
 8003c5c:	ee27 7a27 	vmul.f32	s14, s14, s15
 8003c60:	4b34      	ldr	r3, [pc, #208]	; (8003d34 <dq_abc+0xe8>)
 8003c62:	edd3 6a00 	vldr	s13, [r3]
 8003c66:	4b34      	ldr	r3, [pc, #208]	; (8003d38 <dq_abc+0xec>)
 8003c68:	edd3 7a00 	vldr	s15, [r3]
 8003c6c:	ee66 7aa7 	vmul.f32	s15, s13, s15
 8003c70:	ee77 7a67 	vsub.f32	s15, s14, s15
 8003c74:	4b31      	ldr	r3, [pc, #196]	; (8003d3c <dq_abc+0xf0>)
 8003c76:	edc3 7a00 	vstr	s15, [r3]
	u_beta = u_q_ref * cos_theta_fast + u_d_ref * sin_theta_fast;
 8003c7a:	4b2e      	ldr	r3, [pc, #184]	; (8003d34 <dq_abc+0xe8>)
 8003c7c:	ed93 7a00 	vldr	s14, [r3]
 8003c80:	4b2b      	ldr	r3, [pc, #172]	; (8003d30 <dq_abc+0xe4>)
 8003c82:	edd3 7a00 	vldr	s15, [r3]
 8003c86:	ee27 7a27 	vmul.f32	s14, s14, s15
 8003c8a:	4b28      	ldr	r3, [pc, #160]	; (8003d2c <dq_abc+0xe0>)
 8003c8c:	edd3 6a00 	vldr	s13, [r3]
 8003c90:	4b29      	ldr	r3, [pc, #164]	; (8003d38 <dq_abc+0xec>)
 8003c92:	edd3 7a00 	vldr	s15, [r3]
 8003c96:	ee66 7aa7 	vmul.f32	s15, s13, s15
 8003c9a:	ee77 7a27 	vadd.f32	s15, s14, s15
 8003c9e:	4b28      	ldr	r3, [pc, #160]	; (8003d40 <dq_abc+0xf4>)
 8003ca0:	edc3 7a00 	vstr	s15, [r3]

	// The Inverse Clarke Transformation
	u_a_ref = u_alpha;
 8003ca4:	4b25      	ldr	r3, [pc, #148]	; (8003d3c <dq_abc+0xf0>)
 8003ca6:	681b      	ldr	r3, [r3, #0]
 8003ca8:	4a26      	ldr	r2, [pc, #152]	; (8003d44 <dq_abc+0xf8>)
 8003caa:	6013      	str	r3, [r2, #0]
	u_b_ref = u_beta;
 8003cac:	4b24      	ldr	r3, [pc, #144]	; (8003d40 <dq_abc+0xf4>)
 8003cae:	681b      	ldr	r3, [r3, #0]
 8003cb0:	4a25      	ldr	r2, [pc, #148]	; (8003d48 <dq_abc+0xfc>)
 8003cb2:	6013      	str	r3, [r2, #0]

	/*
	 * Keeps the values in range of int16_t
	 * Later on the Float values will be casted into Int
	 */
	if (u_a_ref > MAX_INT_16)
 8003cb4:	4b23      	ldr	r3, [pc, #140]	; (8003d44 <dq_abc+0xf8>)
 8003cb6:	edd3 7a00 	vldr	s15, [r3]
 8003cba:	ed9f 7a24 	vldr	s14, [pc, #144]	; 8003d4c <dq_abc+0x100>
 8003cbe:	eef4 7ac7 	vcmpe.f32	s15, s14
 8003cc2:	eef1 fa10 	vmrs	APSR_nzcv, fpscr
 8003cc6:	dd03      	ble.n	8003cd0 <dq_abc+0x84>
	{
		u_a_ref = MAX_INT_16;
 8003cc8:	4b1e      	ldr	r3, [pc, #120]	; (8003d44 <dq_abc+0xf8>)
 8003cca:	4a21      	ldr	r2, [pc, #132]	; (8003d50 <dq_abc+0x104>)
 8003ccc:	601a      	str	r2, [r3, #0]
 8003cce:	e00d      	b.n	8003cec <dq_abc+0xa0>
	}
	else if (u_a_ref < MIN_UINT_16)
 8003cd0:	4b1c      	ldr	r3, [pc, #112]	; (8003d44 <dq_abc+0xf8>)
 8003cd2:	edd3 7a00 	vldr	s15, [r3]
 8003cd6:	ed9f 7a1f 	vldr	s14, [pc, #124]	; 8003d54 <dq_abc+0x108>
 8003cda:	eef4 7ac7 	vcmpe.f32	s15, s14
 8003cde:	eef1 fa10 	vmrs	APSR_nzcv, fpscr
 8003ce2:	d503      	bpl.n	8003cec <dq_abc+0xa0>
	{
		u_a_ref = MIN_UINT_16;
 8003ce4:	4b17      	ldr	r3, [pc, #92]	; (8003d44 <dq_abc+0xf8>)
 8003ce6:	f04f 4247 	mov.w	r2, #3338665984	; 0xc7000000
 8003cea:	601a      	str	r2, [r3, #0]
	}

	if (u_b_ref > MAX_INT_16)
 8003cec:	4b16      	ldr	r3, [pc, #88]	; (8003d48 <dq_abc+0xfc>)
 8003cee:	edd3 7a00 	vldr	s15, [r3]
 8003cf2:	ed9f 7a16 	vldr	s14, [pc, #88]	; 8003d4c <dq_abc+0x100>
 8003cf6:	eef4 7ac7 	vcmpe.f32	s15, s14
 8003cfa:	eef1 fa10 	vmrs	APSR_nzcv, fpscr
 8003cfe:	dd03      	ble.n	8003d08 <dq_abc+0xbc>
	{
		u_b_ref = MAX_INT_16;
 8003d00:	4b11      	ldr	r3, [pc, #68]	; (8003d48 <dq_abc+0xfc>)
 8003d02:	4a13      	ldr	r2, [pc, #76]	; (8003d50 <dq_abc+0x104>)
 8003d04:	601a      	str	r2, [r3, #0]
 8003d06:	e00d      	b.n	8003d24 <dq_abc+0xd8>
	}
	else if (u_b_ref < MIN_UINT_16)
 8003d08:	4b0f      	ldr	r3, [pc, #60]	; (8003d48 <dq_abc+0xfc>)
 8003d0a:	edd3 7a00 	vldr	s15, [r3]
 8003d0e:	ed9f 7a11 	vldr	s14, [pc, #68]	; 8003d54 <dq_abc+0x108>
 8003d12:	eef4 7ac7 	vcmpe.f32	s15, s14
 8003d16:	eef1 fa10 	vmrs	APSR_nzcv, fpscr
 8003d1a:	d503      	bpl.n	8003d24 <dq_abc+0xd8>
	{
		u_a_ref = MIN_UINT_16;
 8003d1c:	4b09      	ldr	r3, [pc, #36]	; (8003d44 <dq_abc+0xf8>)
 8003d1e:	f04f 4247 	mov.w	r2, #3338665984	; 0xc7000000
 8003d22:	601a      	str	r2, [r3, #0]
	}
}
 8003d24:	46bd      	mov	sp, r7
 8003d26:	f85d 7b04 	ldr.w	r7, [sp], #4
 8003d2a:	4770      	bx	lr
 8003d2c:	1ffe8850 	.word	0x1ffe8850
 8003d30:	1fff0688 	.word	0x1fff0688
 8003d34:	1ffe884c 	.word	0x1ffe884c
 8003d38:	1fff0684 	.word	0x1fff0684
 8003d3c:	1fff07ec 	.word	0x1fff07ec
 8003d40:	1fff07e8 	.word	0x1fff07e8
 8003d44:	1fff07e4 	.word	0x1fff07e4
 8003d48:	1fff07d4 	.word	0x1fff07d4
 8003d4c:	46fffe00 	.word	0x46fffe00
 8003d50:	46fffe00 	.word	0x46fffe00
 8003d54:	c7000000 	.word	0xc7000000

08003d58 <compute_fast_speed>:

/*
 * Compute the speed based on the encoder increments, read from CCU40 Timer
 */
void compute_fast_speed(void) // SPEED = 1 for testing
{
 8003d58:	b480      	push	{r7}
 8003d5a:	af00      	add	r7, sp, #0
	timer_value_fast = CCU40_CC40->TIMER;
 8003d5c:	4b0a      	ldr	r3, [pc, #40]	; (8003d88 <compute_fast_speed+0x30>)
 8003d5e:	6f1b      	ldr	r3, [r3, #112]	; 0x70
 8003d60:	b29a      	uxth	r2, r3
 8003d62:	4b0a      	ldr	r3, [pc, #40]	; (8003d8c <compute_fast_speed+0x34>)
 8003d64:	801a      	strh	r2, [r3, #0]
	speed_value_fast = timer_value_fast - timer_value_old_fast;
 8003d66:	4b09      	ldr	r3, [pc, #36]	; (8003d8c <compute_fast_speed+0x34>)
 8003d68:	881a      	ldrh	r2, [r3, #0]
 8003d6a:	4b09      	ldr	r3, [pc, #36]	; (8003d90 <compute_fast_speed+0x38>)
 8003d6c:	881b      	ldrh	r3, [r3, #0]
 8003d6e:	1ad3      	subs	r3, r2, r3
 8003d70:	b29b      	uxth	r3, r3
 8003d72:	b29a      	uxth	r2, r3
 8003d74:	4b07      	ldr	r3, [pc, #28]	; (8003d94 <compute_fast_speed+0x3c>)
 8003d76:	801a      	strh	r2, [r3, #0]
	//	speed_value_fast = 1;
	timer_value_old_fast = timer_value_fast;
 8003d78:	4b04      	ldr	r3, [pc, #16]	; (8003d8c <compute_fast_speed+0x34>)
 8003d7a:	881a      	ldrh	r2, [r3, #0]
 8003d7c:	4b04      	ldr	r3, [pc, #16]	; (8003d90 <compute_fast_speed+0x38>)
 8003d7e:	801a      	strh	r2, [r3, #0]
}
 8003d80:	46bd      	mov	sp, r7
 8003d82:	f85d 7b04 	ldr.w	r7, [sp], #4
 8003d86:	4770      	bx	lr
 8003d88:	4000c100 	.word	0x4000c100
 8003d8c:	1fff068c 	.word	0x1fff068c
 8003d90:	1fff068e 	.word	0x1fff068e
 8003d94:	1fff0690 	.word	0x1fff0690

08003d98 <compute_fast_mechanical_position>:
/*
 * Compute the mechanical position based on the speed value
 */
void compute_fast_mechanical_position(void)
{
 8003d98:	b480      	push	{r7}
 8003d9a:	af00      	add	r7, sp, #0
	mechanical_position_fast += speed_value_fast;
 8003d9c:	4b05      	ldr	r3, [pc, #20]	; (8003db4 <compute_fast_mechanical_position+0x1c>)
 8003d9e:	881b      	ldrh	r3, [r3, #0]
 8003da0:	b21a      	sxth	r2, r3
 8003da2:	4b05      	ldr	r3, [pc, #20]	; (8003db8 <compute_fast_mechanical_position+0x20>)
 8003da4:	681b      	ldr	r3, [r3, #0]
 8003da6:	4413      	add	r3, r2
 8003da8:	4a03      	ldr	r2, [pc, #12]	; (8003db8 <compute_fast_mechanical_position+0x20>)
 8003daa:	6013      	str	r3, [r2, #0]
}
 8003dac:	46bd      	mov	sp, r7
 8003dae:	f85d 7b04 	ldr.w	r7, [sp], #4
 8003db2:	4770      	bx	lr
 8003db4:	1fff0690 	.word	0x1fff0690
 8003db8:	1fff0678 	.word	0x1fff0678

08003dbc <compute_fast_electrical_position>:

/*
 * Compute the module of the electrical position based on the mechanical position
 */
void compute_fast_electrical_position(void)
{
 8003dbc:	b480      	push	{r7}
 8003dbe:	af00      	add	r7, sp, #0
	electrical_position_modulo_fast = mechanical_position_fast % electrical_resolution;
 8003dc0:	4b07      	ldr	r3, [pc, #28]	; (8003de0 <compute_fast_electrical_position+0x24>)
 8003dc2:	681b      	ldr	r3, [r3, #0]
 8003dc4:	4a07      	ldr	r2, [pc, #28]	; (8003de4 <compute_fast_electrical_position+0x28>)
 8003dc6:	8812      	ldrh	r2, [r2, #0]
 8003dc8:	b212      	sxth	r2, r2
 8003dca:	fb93 f1f2 	sdiv	r1, r3, r2
 8003dce:	fb02 f201 	mul.w	r2, r2, r1
 8003dd2:	1a9b      	subs	r3, r3, r2
 8003dd4:	4a04      	ldr	r2, [pc, #16]	; (8003de8 <compute_fast_electrical_position+0x2c>)
 8003dd6:	6013      	str	r3, [r2, #0]
}
 8003dd8:	46bd      	mov	sp, r7
 8003dda:	f85d 7b04 	ldr.w	r7, [sp], #4
 8003dde:	4770      	bx	lr
 8003de0:	1fff0678 	.word	0x1fff0678
 8003de4:	1fff0696 	.word	0x1fff0696
 8003de8:	1fff067c 	.word	0x1fff067c

08003dec <compute_fast_field>:
/*
 * Compute the electrical angle based on the electrical position
 * Compute the sin&cos of theta
 */
void compute_fast_field(void)
{
 8003dec:	b580      	push	{r7, lr}
 8003dee:	af00      	add	r7, sp, #0
	theta_fast = electrical_position_modulo_fast * (2 * Pi) / electrical_resolution;
 8003df0:	4b13      	ldr	r3, [pc, #76]	; (8003e40 <compute_fast_field+0x54>)
 8003df2:	681b      	ldr	r3, [r3, #0]
 8003df4:	ee07 3a90 	vmov	s15, r3
 8003df8:	eef8 7ae7 	vcvt.f32.s32	s15, s15
 8003dfc:	ed9f 7a11 	vldr	s14, [pc, #68]	; 8003e44 <compute_fast_field+0x58>
 8003e00:	ee27 7a87 	vmul.f32	s14, s15, s14
 8003e04:	4b10      	ldr	r3, [pc, #64]	; (8003e48 <compute_fast_field+0x5c>)
 8003e06:	881b      	ldrh	r3, [r3, #0]
 8003e08:	b21b      	sxth	r3, r3
 8003e0a:	ee07 3a90 	vmov	s15, r3
 8003e0e:	eef8 7ae7 	vcvt.f32.s32	s15, s15
 8003e12:	eec7 7a27 	vdiv.f32	s15, s14, s15
 8003e16:	4b0d      	ldr	r3, [pc, #52]	; (8003e4c <compute_fast_field+0x60>)
 8003e18:	edc3 7a00 	vstr	s15, [r3]
	if (loop_control & TUNE_REF_LOOP_MSK)
 8003e1c:	4b0c      	ldr	r3, [pc, #48]	; (8003e50 <compute_fast_field+0x64>)
 8003e1e:	781b      	ldrb	r3, [r3, #0]
 8003e20:	b2db      	uxtb	r3, r3
 8003e22:	b25b      	sxtb	r3, r3
 8003e24:	2b00      	cmp	r3, #0
 8003e26:	da03      	bge.n	8003e30 <compute_fast_field+0x44>
	{
		theta_fast = 0;
 8003e28:	4b08      	ldr	r3, [pc, #32]	; (8003e4c <compute_fast_field+0x60>)
 8003e2a:	f04f 0200 	mov.w	r2, #0
 8003e2e:	601a      	str	r2, [r3, #0]
	}
	sincosf(theta_fast, &sin_theta_fast, &cos_theta_fast);
 8003e30:	4b06      	ldr	r3, [pc, #24]	; (8003e4c <compute_fast_field+0x60>)
 8003e32:	681b      	ldr	r3, [r3, #0]
 8003e34:	4618      	mov	r0, r3
 8003e36:	4907      	ldr	r1, [pc, #28]	; (8003e54 <compute_fast_field+0x68>)
 8003e38:	4a07      	ldr	r2, [pc, #28]	; (8003e58 <compute_fast_field+0x6c>)
 8003e3a:	f000 f80f 	bl	8003e5c <sincosf>
}
 8003e3e:	bd80      	pop	{r7, pc}
 8003e40:	1fff067c 	.word	0x1fff067c
 8003e44:	40c90fd0 	.word	0x40c90fd0
 8003e48:	1fff0696 	.word	0x1fff0696
 8003e4c:	1fff0680 	.word	0x1fff0680
 8003e50:	1fff0674 	.word	0x1fff0674
 8003e54:	1fff0684 	.word	0x1fff0684
 8003e58:	1fff0688 	.word	0x1fff0688

08003e5c <sincosf>:
 8003e5c:	b570      	push	{r4, r5, r6, lr}
 8003e5e:	460e      	mov	r6, r1
 8003e60:	4614      	mov	r4, r2
 8003e62:	4605      	mov	r5, r0
 8003e64:	f000 f84c 	bl	8003f00 <sinf>
 8003e68:	6030      	str	r0, [r6, #0]
 8003e6a:	4628      	mov	r0, r5
 8003e6c:	f000 f802 	bl	8003e74 <cosf>
 8003e70:	6020      	str	r0, [r4, #0]
 8003e72:	bd70      	pop	{r4, r5, r6, pc}

08003e74 <cosf>:
 8003e74:	b500      	push	{lr}
 8003e76:	b085      	sub	sp, #20
 8003e78:	4a20      	ldr	r2, [pc, #128]	; (8003efc <cosf+0x88>)
 8003e7a:	9001      	str	r0, [sp, #4]
 8003e7c:	9b01      	ldr	r3, [sp, #4]
 8003e7e:	f023 4300 	bic.w	r3, r3, #2147483648	; 0x80000000
 8003e82:	4293      	cmp	r3, r2
 8003e84:	dd1d      	ble.n	8003ec2 <cosf+0x4e>
 8003e86:	f1b3 4fff 	cmp.w	r3, #2139095040	; 0x7f800000
 8003e8a:	db08      	blt.n	8003e9e <cosf+0x2a>
 8003e8c:	eddd 7a01 	vldr	s15, [sp, #4]
 8003e90:	ee77 7ae7 	vsub.f32	s15, s15, s15
 8003e94:	ee17 0a90 	vmov	r0, s15
 8003e98:	b005      	add	sp, #20
 8003e9a:	f85d fb04 	ldr.w	pc, [sp], #4
 8003e9e:	a902      	add	r1, sp, #8
 8003ea0:	f000 f87c 	bl	8003f9c <__ieee754_rem_pio2f>
 8003ea4:	f000 0203 	and.w	r2, r0, #3
 8003ea8:	2a01      	cmp	r2, #1
 8003eaa:	9802      	ldr	r0, [sp, #8]
 8003eac:	9903      	ldr	r1, [sp, #12]
 8003eae:	d019      	beq.n	8003ee4 <cosf+0x70>
 8003eb0:	2a02      	cmp	r2, #2
 8003eb2:	d010      	beq.n	8003ed6 <cosf+0x62>
 8003eb4:	b1ea      	cbz	r2, 8003ef2 <cosf+0x7e>
 8003eb6:	2201      	movs	r2, #1
 8003eb8:	f000 fd5a 	bl	8004970 <__kernel_sinf>
 8003ebc:	ee07 0a90 	vmov	s15, r0
 8003ec0:	e7e8      	b.n	8003e94 <cosf+0x20>
 8003ec2:	2100      	movs	r1, #0
 8003ec4:	f000 f9b6 	bl	8004234 <__kernel_cosf>
 8003ec8:	ee07 0a90 	vmov	s15, r0
 8003ecc:	ee17 0a90 	vmov	r0, s15
 8003ed0:	b005      	add	sp, #20
 8003ed2:	f85d fb04 	ldr.w	pc, [sp], #4
 8003ed6:	f000 f9ad 	bl	8004234 <__kernel_cosf>
 8003eda:	ee07 0a90 	vmov	s15, r0
 8003ede:	eef1 7a67 	vneg.f32	s15, s15
 8003ee2:	e7d7      	b.n	8003e94 <cosf+0x20>
 8003ee4:	f000 fd44 	bl	8004970 <__kernel_sinf>
 8003ee8:	ee07 0a90 	vmov	s15, r0
 8003eec:	eef1 7a67 	vneg.f32	s15, s15
 8003ef0:	e7d0      	b.n	8003e94 <cosf+0x20>
 8003ef2:	f000 f99f 	bl	8004234 <__kernel_cosf>
 8003ef6:	ee07 0a90 	vmov	s15, r0
 8003efa:	e7cb      	b.n	8003e94 <cosf+0x20>
 8003efc:	3f490fd8 	.word	0x3f490fd8

08003f00 <sinf>:
 8003f00:	b500      	push	{lr}
 8003f02:	b085      	sub	sp, #20
 8003f04:	4a24      	ldr	r2, [pc, #144]	; (8003f98 <sinf+0x98>)
 8003f06:	9001      	str	r0, [sp, #4]
 8003f08:	9b01      	ldr	r3, [sp, #4]
 8003f0a:	f023 4300 	bic.w	r3, r3, #2147483648	; 0x80000000
 8003f0e:	4293      	cmp	r3, r2
 8003f10:	dd1e      	ble.n	8003f50 <sinf+0x50>
 8003f12:	f1b3 4fff 	cmp.w	r3, #2139095040	; 0x7f800000
 8003f16:	db08      	blt.n	8003f2a <sinf+0x2a>
 8003f18:	eddd 7a01 	vldr	s15, [sp, #4]
 8003f1c:	ee77 7ae7 	vsub.f32	s15, s15, s15
 8003f20:	ee17 0a90 	vmov	r0, s15
 8003f24:	b005      	add	sp, #20
 8003f26:	f85d fb04 	ldr.w	pc, [sp], #4
 8003f2a:	a902      	add	r1, sp, #8
 8003f2c:	f000 f836 	bl	8003f9c <__ieee754_rem_pio2f>
 8003f30:	f000 0003 	and.w	r0, r0, #3
 8003f34:	2801      	cmp	r0, #1
 8003f36:	d020      	beq.n	8003f7a <sinf+0x7a>
 8003f38:	2802      	cmp	r0, #2
 8003f3a:	d014      	beq.n	8003f66 <sinf+0x66>
 8003f3c:	b320      	cbz	r0, 8003f88 <sinf+0x88>
 8003f3e:	9802      	ldr	r0, [sp, #8]
 8003f40:	9903      	ldr	r1, [sp, #12]
 8003f42:	f000 f977 	bl	8004234 <__kernel_cosf>
 8003f46:	ee07 0a90 	vmov	s15, r0
 8003f4a:	eef1 7a67 	vneg.f32	s15, s15
 8003f4e:	e7e7      	b.n	8003f20 <sinf+0x20>
 8003f50:	2100      	movs	r1, #0
 8003f52:	2200      	movs	r2, #0
 8003f54:	f000 fd0c 	bl	8004970 <__kernel_sinf>
 8003f58:	ee07 0a90 	vmov	s15, r0
 8003f5c:	ee17 0a90 	vmov	r0, s15
 8003f60:	b005      	add	sp, #20
 8003f62:	f85d fb04 	ldr.w	pc, [sp], #4
 8003f66:	9802      	ldr	r0, [sp, #8]
 8003f68:	9903      	ldr	r1, [sp, #12]
 8003f6a:	2201      	movs	r2, #1
 8003f6c:	f000 fd00 	bl	8004970 <__kernel_sinf>
 8003f70:	ee07 0a90 	vmov	s15, r0
 8003f74:	eef1 7a67 	vneg.f32	s15, s15
 8003f78:	e7d2      	b.n	8003f20 <sinf+0x20>
 8003f7a:	9802      	ldr	r0, [sp, #8]
 8003f7c:	9903      	ldr	r1, [sp, #12]
 8003f7e:	f000 f959 	bl	8004234 <__kernel_cosf>
 8003f82:	ee07 0a90 	vmov	s15, r0
 8003f86:	e7cb      	b.n	8003f20 <sinf+0x20>
 8003f88:	9802      	ldr	r0, [sp, #8]
 8003f8a:	9903      	ldr	r1, [sp, #12]
 8003f8c:	2201      	movs	r2, #1
 8003f8e:	f000 fcef 	bl	8004970 <__kernel_sinf>
 8003f92:	ee07 0a90 	vmov	s15, r0
 8003f96:	e7c3      	b.n	8003f20 <sinf+0x20>
 8003f98:	3f490fd8 	.word	0x3f490fd8

08003f9c <__ieee754_rem_pio2f>:
 8003f9c:	b570      	push	{r4, r5, r6, lr}
 8003f9e:	4a97      	ldr	r2, [pc, #604]	; (80041fc <__ieee754_rem_pio2f+0x260>)
 8003fa0:	f020 4400 	bic.w	r4, r0, #2147483648	; 0x80000000
 8003fa4:	4294      	cmp	r4, r2
 8003fa6:	b086      	sub	sp, #24
 8003fa8:	4606      	mov	r6, r0
 8003faa:	460d      	mov	r5, r1
 8003fac:	dd68      	ble.n	8004080 <__ieee754_rem_pio2f+0xe4>
 8003fae:	4a94      	ldr	r2, [pc, #592]	; (8004200 <__ieee754_rem_pio2f+0x264>)
 8003fb0:	4294      	cmp	r4, r2
 8003fb2:	dc1c      	bgt.n	8003fee <__ieee754_rem_pio2f+0x52>
 8003fb4:	2800      	cmp	r0, #0
 8003fb6:	eddf 7a93 	vldr	s15, [pc, #588]	; 8004204 <__ieee754_rem_pio2f+0x268>
 8003fba:	4a93      	ldr	r2, [pc, #588]	; (8004208 <__ieee754_rem_pio2f+0x26c>)
 8003fbc:	f024 040f 	bic.w	r4, r4, #15
 8003fc0:	ee07 0a10 	vmov	s14, r0
 8003fc4:	f340 80e2 	ble.w	800418c <__ieee754_rem_pio2f+0x1f0>
 8003fc8:	4294      	cmp	r4, r2
 8003fca:	ee77 7a67 	vsub.f32	s15, s14, s15
 8003fce:	d067      	beq.n	80040a0 <__ieee754_rem_pio2f+0x104>
 8003fd0:	ed9f 7a8e 	vldr	s14, [pc, #568]	; 800420c <__ieee754_rem_pio2f+0x270>
 8003fd4:	ee77 6ac7 	vsub.f32	s13, s15, s14
 8003fd8:	2001      	movs	r0, #1
 8003fda:	ee77 7ae6 	vsub.f32	s15, s15, s13
 8003fde:	edc1 6a00 	vstr	s13, [r1]
 8003fe2:	ee77 7ac7 	vsub.f32	s15, s15, s14
 8003fe6:	edc1 7a01 	vstr	s15, [r1, #4]
 8003fea:	b006      	add	sp, #24
 8003fec:	bd70      	pop	{r4, r5, r6, pc}
 8003fee:	4a88      	ldr	r2, [pc, #544]	; (8004210 <__ieee754_rem_pio2f+0x274>)
 8003ff0:	4294      	cmp	r4, r2
 8003ff2:	dd67      	ble.n	80040c4 <__ieee754_rem_pio2f+0x128>
 8003ff4:	f1b4 4fff 	cmp.w	r4, #2139095040	; 0x7f800000
 8003ff8:	da48      	bge.n	800408c <__ieee754_rem_pio2f+0xf0>
 8003ffa:	15e2      	asrs	r2, r4, #23
 8003ffc:	3a86      	subs	r2, #134	; 0x86
 8003ffe:	eba4 53c2 	sub.w	r3, r4, r2, lsl #23
 8004002:	ee07 3a10 	vmov	s14, r3
 8004006:	eefd 6ac7 	vcvt.s32.f32	s13, s14
 800400a:	eddf 7a82 	vldr	s15, [pc, #520]	; 8004214 <__ieee754_rem_pio2f+0x278>
 800400e:	eef8 6ae6 	vcvt.f32.s32	s13, s13
 8004012:	ee37 7a66 	vsub.f32	s14, s14, s13
 8004016:	edcd 6a03 	vstr	s13, [sp, #12]
 800401a:	ee27 7a27 	vmul.f32	s14, s14, s15
 800401e:	eefd 6ac7 	vcvt.s32.f32	s13, s14
 8004022:	eef8 6ae6 	vcvt.f32.s32	s13, s13
 8004026:	ee37 7a66 	vsub.f32	s14, s14, s13
 800402a:	edcd 6a04 	vstr	s13, [sp, #16]
 800402e:	ee67 7a27 	vmul.f32	s15, s14, s15
 8004032:	eef5 7a40 	vcmp.f32	s15, #0.0
 8004036:	eef1 fa10 	vmrs	APSR_nzcv, fpscr
 800403a:	edcd 7a05 	vstr	s15, [sp, #20]
 800403e:	f040 80b8 	bne.w	80041b2 <__ieee754_rem_pio2f+0x216>
 8004042:	eef5 6a40 	vcmp.f32	s13, #0.0
 8004046:	eef1 fa10 	vmrs	APSR_nzcv, fpscr
 800404a:	bf14      	ite	ne
 800404c:	2302      	movne	r3, #2
 800404e:	2301      	moveq	r3, #1
 8004050:	4971      	ldr	r1, [pc, #452]	; (8004218 <__ieee754_rem_pio2f+0x27c>)
 8004052:	2002      	movs	r0, #2
 8004054:	e88d 0003 	stmia.w	sp, {r0, r1}
 8004058:	a803      	add	r0, sp, #12
 800405a:	4629      	mov	r1, r5
 800405c:	f000 f974 	bl	8004348 <__kernel_rem_pio2f>
 8004060:	2e00      	cmp	r6, #0
 8004062:	da11      	bge.n	8004088 <__ieee754_rem_pio2f+0xec>
 8004064:	ed95 7a00 	vldr	s14, [r5]
 8004068:	edd5 7a01 	vldr	s15, [r5, #4]
 800406c:	eeb1 7a47 	vneg.f32	s14, s14
 8004070:	eef1 7a67 	vneg.f32	s15, s15
 8004074:	4240      	negs	r0, r0
 8004076:	ed85 7a00 	vstr	s14, [r5]
 800407a:	edc5 7a01 	vstr	s15, [r5, #4]
 800407e:	e003      	b.n	8004088 <__ieee754_rem_pio2f+0xec>
 8004080:	2200      	movs	r2, #0
 8004082:	6028      	str	r0, [r5, #0]
 8004084:	604a      	str	r2, [r1, #4]
 8004086:	2000      	movs	r0, #0
 8004088:	b006      	add	sp, #24
 800408a:	bd70      	pop	{r4, r5, r6, pc}
 800408c:	ee07 0a90 	vmov	s15, r0
 8004090:	ee77 7ae7 	vsub.f32	s15, s15, s15
 8004094:	2000      	movs	r0, #0
 8004096:	edc1 7a01 	vstr	s15, [r1, #4]
 800409a:	edc1 7a00 	vstr	s15, [r1]
 800409e:	e7f3      	b.n	8004088 <__ieee754_rem_pio2f+0xec>
 80040a0:	eddf 6a5e 	vldr	s13, [pc, #376]	; 800421c <__ieee754_rem_pio2f+0x280>
 80040a4:	ed9f 7a5e 	vldr	s14, [pc, #376]	; 8004220 <__ieee754_rem_pio2f+0x284>
 80040a8:	ee77 7ae6 	vsub.f32	s15, s15, s13
 80040ac:	2001      	movs	r0, #1
 80040ae:	ee77 6ac7 	vsub.f32	s13, s15, s14
 80040b2:	ee77 7ae6 	vsub.f32	s15, s15, s13
 80040b6:	edc1 6a00 	vstr	s13, [r1]
 80040ba:	ee77 7ac7 	vsub.f32	s15, s15, s14
 80040be:	edc1 7a01 	vstr	s15, [r1, #4]
 80040c2:	e7e1      	b.n	8004088 <__ieee754_rem_pio2f+0xec>
 80040c4:	f000 fca2 	bl	8004a0c <fabsf>
 80040c8:	ed9f 6a56 	vldr	s12, [pc, #344]	; 8004224 <__ieee754_rem_pio2f+0x288>
 80040cc:	ed9f 5a4d 	vldr	s10, [pc, #308]	; 8004204 <__ieee754_rem_pio2f+0x268>
 80040d0:	eddf 6a4e 	vldr	s13, [pc, #312]	; 800420c <__ieee754_rem_pio2f+0x270>
 80040d4:	ee07 0a10 	vmov	s14, r0
 80040d8:	eef6 7a00 	vmov.f32	s15, #96	; 0x60
 80040dc:	eee7 7a06 	vfma.f32	s15, s14, s12
 80040e0:	eefd 7ae7 	vcvt.s32.f32	s15, s15
 80040e4:	eeb8 6ae7 	vcvt.f32.s32	s12, s15
 80040e8:	ee17 0a90 	vmov	r0, s15
 80040ec:	eef1 5a46 	vneg.f32	s11, s12
 80040f0:	eef0 7a47 	vmov.f32	s15, s14
 80040f4:	281f      	cmp	r0, #31
 80040f6:	eee5 7a85 	vfma.f32	s15, s11, s10
 80040fa:	ee26 7a26 	vmul.f32	s14, s12, s13
 80040fe:	dc1d      	bgt.n	800413c <__ieee754_rem_pio2f+0x1a0>
 8004100:	4a49      	ldr	r2, [pc, #292]	; (8004228 <__ieee754_rem_pio2f+0x28c>)
 8004102:	1e41      	subs	r1, r0, #1
 8004104:	f024 03ff 	bic.w	r3, r4, #255	; 0xff
 8004108:	f852 2021 	ldr.w	r2, [r2, r1, lsl #2]
 800410c:	4293      	cmp	r3, r2
 800410e:	d015      	beq.n	800413c <__ieee754_rem_pio2f+0x1a0>
 8004110:	ee77 6ac7 	vsub.f32	s13, s15, s14
 8004114:	edc5 6a00 	vstr	s13, [r5]
 8004118:	ee77 7ae6 	vsub.f32	s15, s15, s13
 800411c:	2e00      	cmp	r6, #0
 800411e:	ee77 7ac7 	vsub.f32	s15, s15, s14
 8004122:	edc5 7a01 	vstr	s15, [r5, #4]
 8004126:	daaf      	bge.n	8004088 <__ieee754_rem_pio2f+0xec>
 8004128:	eef1 6a66 	vneg.f32	s13, s13
 800412c:	eef1 7a67 	vneg.f32	s15, s15
 8004130:	edc5 6a00 	vstr	s13, [r5]
 8004134:	edc5 7a01 	vstr	s15, [r5, #4]
 8004138:	4240      	negs	r0, r0
 800413a:	e7a5      	b.n	8004088 <__ieee754_rem_pio2f+0xec>
 800413c:	ee77 6ac7 	vsub.f32	s13, s15, s14
 8004140:	15e4      	asrs	r4, r4, #23
 8004142:	ee16 3a90 	vmov	r3, s13
 8004146:	f3c3 53c7 	ubfx	r3, r3, #23, #8
 800414a:	1ae3      	subs	r3, r4, r3
 800414c:	2b08      	cmp	r3, #8
 800414e:	dde1      	ble.n	8004114 <__ieee754_rem_pio2f+0x178>
 8004150:	ed9f 7a32 	vldr	s14, [pc, #200]	; 800421c <__ieee754_rem_pio2f+0x280>
 8004154:	eddf 6a32 	vldr	s13, [pc, #200]	; 8004220 <__ieee754_rem_pio2f+0x284>
 8004158:	eeb0 5a67 	vmov.f32	s10, s15
 800415c:	eea5 5a87 	vfma.f32	s10, s11, s14
 8004160:	ee77 7ac5 	vsub.f32	s15, s15, s10
 8004164:	eee5 7a87 	vfma.f32	s15, s11, s14
 8004168:	eed6 7a26 	vfnms.f32	s15, s12, s13
 800416c:	ee75 6a67 	vsub.f32	s13, s10, s15
 8004170:	eeb0 7a67 	vmov.f32	s14, s15
 8004174:	ee16 3a90 	vmov	r3, s13
 8004178:	f3c3 53c7 	ubfx	r3, r3, #23, #8
 800417c:	1ae4      	subs	r4, r4, r3
 800417e:	2c19      	cmp	r4, #25
 8004180:	dc2c      	bgt.n	80041dc <__ieee754_rem_pio2f+0x240>
 8004182:	edc5 6a00 	vstr	s13, [r5]
 8004186:	eef0 7a45 	vmov.f32	s15, s10
 800418a:	e7c5      	b.n	8004118 <__ieee754_rem_pio2f+0x17c>
 800418c:	4294      	cmp	r4, r2
 800418e:	ee77 7a27 	vadd.f32	s15, s14, s15
 8004192:	d010      	beq.n	80041b6 <__ieee754_rem_pio2f+0x21a>
 8004194:	ed9f 7a1d 	vldr	s14, [pc, #116]	; 800420c <__ieee754_rem_pio2f+0x270>
 8004198:	ee77 6a87 	vadd.f32	s13, s15, s14
 800419c:	f04f 30ff 	mov.w	r0, #4294967295
 80041a0:	ee77 7ae6 	vsub.f32	s15, s15, s13
 80041a4:	edc1 6a00 	vstr	s13, [r1]
 80041a8:	ee77 7a87 	vadd.f32	s15, s15, s14
 80041ac:	edc1 7a01 	vstr	s15, [r1, #4]
 80041b0:	e76a      	b.n	8004088 <__ieee754_rem_pio2f+0xec>
 80041b2:	2303      	movs	r3, #3
 80041b4:	e74c      	b.n	8004050 <__ieee754_rem_pio2f+0xb4>
 80041b6:	eddf 6a19 	vldr	s13, [pc, #100]	; 800421c <__ieee754_rem_pio2f+0x280>
 80041ba:	ed9f 7a19 	vldr	s14, [pc, #100]	; 8004220 <__ieee754_rem_pio2f+0x284>
 80041be:	ee77 7aa6 	vadd.f32	s15, s15, s13
 80041c2:	f04f 30ff 	mov.w	r0, #4294967295
 80041c6:	ee77 6a87 	vadd.f32	s13, s15, s14
 80041ca:	ee77 7ae6 	vsub.f32	s15, s15, s13
 80041ce:	edc1 6a00 	vstr	s13, [r1]
 80041d2:	ee77 7a87 	vadd.f32	s15, s15, s14
 80041d6:	edc1 7a01 	vstr	s15, [r1, #4]
 80041da:	e755      	b.n	8004088 <__ieee754_rem_pio2f+0xec>
 80041dc:	eddf 6a13 	vldr	s13, [pc, #76]	; 800422c <__ieee754_rem_pio2f+0x290>
 80041e0:	eddf 4a13 	vldr	s9, [pc, #76]	; 8004230 <__ieee754_rem_pio2f+0x294>
 80041e4:	eef0 7a45 	vmov.f32	s15, s10
 80041e8:	eee5 7aa6 	vfma.f32	s15, s11, s13
 80041ec:	ee35 7a67 	vsub.f32	s14, s10, s15
 80041f0:	eea5 7aa6 	vfma.f32	s14, s11, s13
 80041f4:	ee96 7a24 	vfnms.f32	s14, s12, s9
 80041f8:	e78a      	b.n	8004110 <__ieee754_rem_pio2f+0x174>
 80041fa:	bf00      	nop
 80041fc:	3f490fd8 	.word	0x3f490fd8
 8004200:	4016cbe3 	.word	0x4016cbe3
 8004204:	3fc90f80 	.word	0x3fc90f80
 8004208:	3fc90fd0 	.word	0x3fc90fd0
 800420c:	37354443 	.word	0x37354443
 8004210:	43490f80 	.word	0x43490f80
 8004214:	43800000 	.word	0x43800000
 8004218:	080054d8 	.word	0x080054d8
 800421c:	37354400 	.word	0x37354400
 8004220:	2e85a308 	.word	0x2e85a308
 8004224:	3f22f984 	.word	0x3f22f984
 8004228:	08005458 	.word	0x08005458
 800422c:	2e85a300 	.word	0x2e85a300
 8004230:	248d3132 	.word	0x248d3132

08004234 <__kernel_cosf>:
 8004234:	f020 4300 	bic.w	r3, r0, #2147483648	; 0x80000000
 8004238:	f1b3 5f48 	cmp.w	r3, #838860800	; 0x32000000
 800423c:	ee06 0a10 	vmov	s12, r0
 8004240:	ee06 1a90 	vmov	s13, r1
 8004244:	da2e      	bge.n	80042a4 <__kernel_cosf+0x70>
 8004246:	eefd 7ac6 	vcvt.s32.f32	s15, s12
 800424a:	ee17 3a90 	vmov	r3, s15
 800424e:	2b00      	cmp	r3, #0
 8004250:	d064      	beq.n	800431c <__kernel_cosf+0xe8>
 8004252:	ee26 7a06 	vmul.f32	s14, s12, s12
 8004256:	eddf 3a34 	vldr	s7, [pc, #208]	; 8004328 <__kernel_cosf+0xf4>
 800425a:	ed9f 4a34 	vldr	s8, [pc, #208]	; 800432c <__kernel_cosf+0xf8>
 800425e:	eddf 4a34 	vldr	s9, [pc, #208]	; 8004330 <__kernel_cosf+0xfc>
 8004262:	ed9f 5a34 	vldr	s10, [pc, #208]	; 8004334 <__kernel_cosf+0x100>
 8004266:	eddf 7a34 	vldr	s15, [pc, #208]	; 8004338 <__kernel_cosf+0x104>
 800426a:	eddf 5a34 	vldr	s11, [pc, #208]	; 800433c <__kernel_cosf+0x108>
 800426e:	eea7 4a23 	vfma.f32	s8, s14, s7
 8004272:	eee4 4a07 	vfma.f32	s9, s8, s14
 8004276:	eea4 5a87 	vfma.f32	s10, s9, s14
 800427a:	eee5 7a07 	vfma.f32	s15, s10, s14
 800427e:	eee7 5a87 	vfma.f32	s11, s15, s14
 8004282:	ee65 5a87 	vmul.f32	s11, s11, s14
 8004286:	ee66 6ac6 	vnmul.f32	s13, s13, s12
 800428a:	eeb6 6a00 	vmov.f32	s12, #96	; 0x60
 800428e:	eee7 6a25 	vfma.f32	s13, s14, s11
 8004292:	eef7 7a00 	vmov.f32	s15, #112	; 0x70
 8004296:	eed7 6a06 	vfnms.f32	s13, s14, s12
 800429a:	ee77 7ae6 	vsub.f32	s15, s15, s13
 800429e:	ee17 0a90 	vmov	r0, s15
 80042a2:	4770      	bx	lr
 80042a4:	ee26 7a06 	vmul.f32	s14, s12, s12
 80042a8:	eddf 3a1f 	vldr	s7, [pc, #124]	; 8004328 <__kernel_cosf+0xf4>
 80042ac:	ed9f 4a1f 	vldr	s8, [pc, #124]	; 800432c <__kernel_cosf+0xf8>
 80042b0:	eddf 4a1f 	vldr	s9, [pc, #124]	; 8004330 <__kernel_cosf+0xfc>
 80042b4:	ed9f 5a1f 	vldr	s10, [pc, #124]	; 8004334 <__kernel_cosf+0x100>
 80042b8:	eddf 7a1f 	vldr	s15, [pc, #124]	; 8004338 <__kernel_cosf+0x104>
 80042bc:	eddf 5a1f 	vldr	s11, [pc, #124]	; 800433c <__kernel_cosf+0x108>
 80042c0:	4a1f      	ldr	r2, [pc, #124]	; (8004340 <__kernel_cosf+0x10c>)
 80042c2:	eea7 4a23 	vfma.f32	s8, s14, s7
 80042c6:	4293      	cmp	r3, r2
 80042c8:	eee4 4a07 	vfma.f32	s9, s8, s14
 80042cc:	eea4 5a87 	vfma.f32	s10, s9, s14
 80042d0:	eee5 7a07 	vfma.f32	s15, s10, s14
 80042d4:	eee7 5a87 	vfma.f32	s11, s15, s14
 80042d8:	ee65 5a87 	vmul.f32	s11, s11, s14
 80042dc:	ddd3      	ble.n	8004286 <__kernel_cosf+0x52>
 80042de:	4a19      	ldr	r2, [pc, #100]	; (8004344 <__kernel_cosf+0x110>)
 80042e0:	4293      	cmp	r3, r2
 80042e2:	dc16      	bgt.n	8004312 <__kernel_cosf+0xde>
 80042e4:	f103 437f 	add.w	r3, r3, #4278190080	; 0xff000000
 80042e8:	ee07 3a90 	vmov	s15, r3
 80042ec:	eeb7 5a00 	vmov.f32	s10, #112	; 0x70
 80042f0:	ee35 5a67 	vsub.f32	s10, s10, s15
 80042f4:	ee66 6ac6 	vnmul.f32	s13, s13, s12
 80042f8:	eeb6 6a00 	vmov.f32	s12, #96	; 0x60
 80042fc:	eee7 6a25 	vfma.f32	s13, s14, s11
 8004300:	eed7 7a06 	vfnms.f32	s15, s14, s12
 8004304:	ee77 7ae6 	vsub.f32	s15, s15, s13
 8004308:	ee75 7a67 	vsub.f32	s15, s10, s15
 800430c:	ee17 0a90 	vmov	r0, s15
 8004310:	4770      	bx	lr
 8004312:	eeb6 5a07 	vmov.f32	s10, #103	; 0x67
 8004316:	eef5 7a02 	vmov.f32	s15, #82	; 0x52
 800431a:	e7eb      	b.n	80042f4 <__kernel_cosf+0xc0>
 800431c:	eef7 7a00 	vmov.f32	s15, #112	; 0x70
 8004320:	ee17 0a90 	vmov	r0, s15
 8004324:	4770      	bx	lr
 8004326:	bf00      	nop
 8004328:	ad47d74e 	.word	0xad47d74e
 800432c:	310f74f6 	.word	0x310f74f6
 8004330:	b493f27c 	.word	0xb493f27c
 8004334:	37d00d01 	.word	0x37d00d01
 8004338:	bab60b61 	.word	0xbab60b61
 800433c:	3d2aaaab 	.word	0x3d2aaaab
 8004340:	3e999999 	.word	0x3e999999
 8004344:	3f480000 	.word	0x3f480000

08004348 <__kernel_rem_pio2f>:
 8004348:	e92d 4ff0 	stmdb	sp!, {r4, r5, r6, r7, r8, r9, sl, fp, lr}
 800434c:	ed2d 8b04 	vpush	{d8-d9}
 8004350:	b0d7      	sub	sp, #348	; 0x15c
 8004352:	1e5e      	subs	r6, r3, #1
 8004354:	4ca5      	ldr	r4, [pc, #660]	; (80045ec <__kernel_rem_pio2f+0x2a4>)
 8004356:	9d64      	ldr	r5, [sp, #400]	; 0x190
 8004358:	9302      	str	r3, [sp, #8]
 800435a:	1ed3      	subs	r3, r2, #3
 800435c:	bf48      	it	mi
 800435e:	1d13      	addmi	r3, r2, #4
 8004360:	f854 5025 	ldr.w	r5, [r4, r5, lsl #2]
 8004364:	9101      	str	r1, [sp, #4]
 8004366:	10db      	asrs	r3, r3, #3
 8004368:	ea23 73e3 	bic.w	r3, r3, r3, asr #31
 800436c:	ea6f 0a03 	mvn.w	sl, r3
 8004370:	1971      	adds	r1, r6, r5
 8004372:	9303      	str	r3, [sp, #12]
 8004374:	4681      	mov	r9, r0
 8004376:	eb02 0aca 	add.w	sl, r2, sl, lsl #3
 800437a:	eba3 0306 	sub.w	r3, r3, r6
 800437e:	d414      	bmi.n	80043aa <__kernel_rem_pio2f+0x62>
 8004380:	4419      	add	r1, r3
 8004382:	9865      	ldr	r0, [sp, #404]	; 0x194
 8004384:	3101      	adds	r1, #1
 8004386:	aa1a      	add	r2, sp, #104	; 0x68
 8004388:	2b00      	cmp	r3, #0
 800438a:	bfaa      	itet	ge
 800438c:	f850 4023 	ldrge.w	r4, [r0, r3, lsl #2]
 8004390:	eddf 7a97 	vldrlt	s15, [pc, #604]	; 80045f0 <__kernel_rem_pio2f+0x2a8>
 8004394:	ee07 4a90 	vmovge	s15, r4
 8004398:	f103 0301 	add.w	r3, r3, #1
 800439c:	bfa8      	it	ge
 800439e:	eef8 7ae7 	vcvtge.f32.s32	s15, s15
 80043a2:	428b      	cmp	r3, r1
 80043a4:	ece2 7a01 	vstmia	r2!, {s15}
 80043a8:	d1ee      	bne.n	8004388 <__kernel_rem_pio2f+0x40>
 80043aa:	2d00      	cmp	r5, #0
 80043ac:	db1a      	blt.n	80043e4 <__kernel_rem_pio2f+0x9c>
 80043ae:	9b02      	ldr	r3, [sp, #8]
 80043b0:	a91a      	add	r1, sp, #104	; 0x68
 80043b2:	1c6c      	adds	r4, r5, #1
 80043b4:	eb01 0484 	add.w	r4, r1, r4, lsl #2
 80043b8:	a842      	add	r0, sp, #264	; 0x108
 80043ba:	009f      	lsls	r7, r3, #2
 80043bc:	2e00      	cmp	r6, #0
 80043be:	f2c0 81ce 	blt.w	800475e <__kernel_rem_pio2f+0x416>
 80043c2:	eddf 7a8b 	vldr	s15, [pc, #556]	; 80045f0 <__kernel_rem_pio2f+0x2a8>
 80043c6:	464a      	mov	r2, r9
 80043c8:	19cb      	adds	r3, r1, r7
 80043ca:	ed33 7a01 	vldmdb	r3!, {s14}
 80043ce:	ecf2 6a01 	vldmia	r2!, {s13}
 80043d2:	4299      	cmp	r1, r3
 80043d4:	eee6 7a87 	vfma.f32	s15, s13, s14
 80043d8:	d1f7      	bne.n	80043ca <__kernel_rem_pio2f+0x82>
 80043da:	3104      	adds	r1, #4
 80043dc:	42a1      	cmp	r1, r4
 80043de:	ece0 7a01 	vstmia	r0!, {s15}
 80043e2:	d1eb      	bne.n	80043bc <__kernel_rem_pio2f+0x74>
 80043e4:	9a02      	ldr	r2, [sp, #8]
 80043e6:	eddf 8a84 	vldr	s17, [pc, #528]	; 80045f8 <__kernel_rem_pio2f+0x2b0>
 80043ea:	ed9f 8a82 	vldr	s16, [pc, #520]	; 80045f4 <__kernel_rem_pio2f+0x2ac>
 80043ee:	f105 4380 	add.w	r3, r5, #1073741824	; 0x40000000
 80043f2:	3b01      	subs	r3, #1
 80043f4:	009b      	lsls	r3, r3, #2
 80043f6:	ebc2 7882 	rsb	r8, r2, r2, lsl #30
 80043fa:	aa06      	add	r2, sp, #24
 80043fc:	1d1f      	adds	r7, r3, #4
 80043fe:	4413      	add	r3, r2
 8004400:	4417      	add	r7, r2
 8004402:	9304      	str	r3, [sp, #16]
 8004404:	ea4f 0888 	mov.w	r8, r8, lsl #2
 8004408:	462c      	mov	r4, r5
 800440a:	ea4f 0b84 	mov.w	fp, r4, lsl #2
 800440e:	ab56      	add	r3, sp, #344	; 0x158
 8004410:	445b      	add	r3, fp
 8004412:	2c00      	cmp	r4, #0
 8004414:	ed53 6a14 	vldr	s13, [r3, #-80]	; 0xffffffb0
 8004418:	dd19      	ble.n	800444e <__kernel_rem_pio2f+0x106>
 800441a:	a942      	add	r1, sp, #264	; 0x108
 800441c:	eb01 030b 	add.w	r3, r1, fp
 8004420:	aa05      	add	r2, sp, #20
 8004422:	ee66 7aa8 	vmul.f32	s15, s13, s17
 8004426:	eeb0 7a66 	vmov.f32	s14, s13
 800442a:	eefd 7ae7 	vcvt.s32.f32	s15, s15
 800442e:	ed33 6a01 	vldmdb	r3!, {s12}
 8004432:	eef8 7ae7 	vcvt.f32.s32	s15, s15
 8004436:	428b      	cmp	r3, r1
 8004438:	eea7 7ac8 	vfms.f32	s14, s15, s16
 800443c:	ee77 6a86 	vadd.f32	s13, s15, s12
 8004440:	eebd 7ac7 	vcvt.s32.f32	s14, s14
 8004444:	ee17 0a10 	vmov	r0, s14
 8004448:	f842 0f04 	str.w	r0, [r2, #4]!
 800444c:	d1e9      	bne.n	8004422 <__kernel_rem_pio2f+0xda>
 800444e:	ee16 0a90 	vmov	r0, s13
 8004452:	4651      	mov	r1, sl
 8004454:	f000 fb38 	bl	8004ac8 <scalbnf>
 8004458:	ee09 0a10 	vmov	s18, r0
 800445c:	eef4 7a00 	vmov.f32	s15, #64	; 0x40
 8004460:	ee69 7a27 	vmul.f32	s15, s18, s15
 8004464:	ee17 0a90 	vmov	r0, s15
 8004468:	f000 fad4 	bl	8004a14 <floorf>
 800446c:	ee07 0a10 	vmov	s14, r0
 8004470:	eef2 7a00 	vmov.f32	s15, #32
 8004474:	eea7 9a67 	vfms.f32	s18, s14, s15
 8004478:	f1ba 0f00 	cmp.w	sl, #0
 800447c:	eefd 9ac9 	vcvt.s32.f32	s19, s18
 8004480:	eef8 7ae9 	vcvt.f32.s32	s15, s19
 8004484:	ee39 9a67 	vsub.f32	s18, s18, s15
 8004488:	f340 814d 	ble.w	8004726 <__kernel_rem_pio2f+0x3de>
 800448c:	1e61      	subs	r1, r4, #1
 800448e:	aa06      	add	r2, sp, #24
 8004490:	f1ca 0308 	rsb	r3, sl, #8
 8004494:	f852 0021 	ldr.w	r0, [r2, r1, lsl #2]
 8004498:	fa40 f203 	asr.w	r2, r0, r3
 800449c:	fa02 f303 	lsl.w	r3, r2, r3
 80044a0:	f10d 0e18 	add.w	lr, sp, #24
 80044a4:	1ac3      	subs	r3, r0, r3
 80044a6:	f84e 3021 	str.w	r3, [lr, r1, lsl #2]
 80044aa:	ee19 1a90 	vmov	r1, s19
 80044ae:	4411      	add	r1, r2
 80044b0:	f1ca 0007 	rsb	r0, sl, #7
 80044b4:	ee09 1a90 	vmov	s19, r1
 80044b8:	fa43 fc00 	asr.w	ip, r3, r0
 80044bc:	f1bc 0f00 	cmp.w	ip, #0
 80044c0:	dd37      	ble.n	8004532 <__kernel_rem_pio2f+0x1ea>
 80044c2:	ee19 3a90 	vmov	r3, s19
 80044c6:	2c00      	cmp	r4, #0
 80044c8:	f103 0301 	add.w	r3, r3, #1
 80044cc:	ee09 3a90 	vmov	s19, r3
 80044d0:	f340 81de 	ble.w	8004890 <__kernel_rem_pio2f+0x548>
 80044d4:	2200      	movs	r2, #0
 80044d6:	4610      	mov	r0, r2
 80044d8:	a905      	add	r1, sp, #20
 80044da:	e008      	b.n	80044ee <__kernel_rem_pio2f+0x1a6>
 80044dc:	f5c3 7e80 	rsb	lr, r3, #256	; 0x100
 80044e0:	b113      	cbz	r3, 80044e8 <__kernel_rem_pio2f+0x1a0>
 80044e2:	f8c1 e000 	str.w	lr, [r1]
 80044e6:	2001      	movs	r0, #1
 80044e8:	3201      	adds	r2, #1
 80044ea:	4294      	cmp	r4, r2
 80044ec:	dd0b      	ble.n	8004506 <__kernel_rem_pio2f+0x1be>
 80044ee:	f851 3f04 	ldr.w	r3, [r1, #4]!
 80044f2:	2800      	cmp	r0, #0
 80044f4:	d0f2      	beq.n	80044dc <__kernel_rem_pio2f+0x194>
 80044f6:	3201      	adds	r2, #1
 80044f8:	f1c3 03ff 	rsb	r3, r3, #255	; 0xff
 80044fc:	4294      	cmp	r4, r2
 80044fe:	600b      	str	r3, [r1, #0]
 8004500:	f04f 0001 	mov.w	r0, #1
 8004504:	dcf3      	bgt.n	80044ee <__kernel_rem_pio2f+0x1a6>
 8004506:	f1ba 0f00 	cmp.w	sl, #0
 800450a:	dd0f      	ble.n	800452c <__kernel_rem_pio2f+0x1e4>
 800450c:	f1ba 0f01 	cmp.w	sl, #1
 8004510:	f000 8111 	beq.w	8004736 <__kernel_rem_pio2f+0x3ee>
 8004514:	f1ba 0f02 	cmp.w	sl, #2
 8004518:	d108      	bne.n	800452c <__kernel_rem_pio2f+0x1e4>
 800451a:	1e62      	subs	r2, r4, #1
 800451c:	ab06      	add	r3, sp, #24
 800451e:	a906      	add	r1, sp, #24
 8004520:	f853 3022 	ldr.w	r3, [r3, r2, lsl #2]
 8004524:	f003 033f 	and.w	r3, r3, #63	; 0x3f
 8004528:	f841 3022 	str.w	r3, [r1, r2, lsl #2]
 800452c:	f1bc 0f02 	cmp.w	ip, #2
 8004530:	d064      	beq.n	80045fc <__kernel_rem_pio2f+0x2b4>
 8004532:	eeb5 9a40 	vcmp.f32	s18, #0.0
 8004536:	eef1 fa10 	vmrs	APSR_nzcv, fpscr
 800453a:	d177      	bne.n	800462c <__kernel_rem_pio2f+0x2e4>
 800453c:	1e63      	subs	r3, r4, #1
 800453e:	429d      	cmp	r5, r3
 8004540:	dc0b      	bgt.n	800455a <__kernel_rem_pio2f+0x212>
 8004542:	aa06      	add	r2, sp, #24
 8004544:	4493      	add	fp, r2
 8004546:	2200      	movs	r2, #0
 8004548:	f85b 1d04 	ldr.w	r1, [fp, #-4]!
 800454c:	45bb      	cmp	fp, r7
 800454e:	ea42 0201 	orr.w	r2, r2, r1
 8004552:	d1f9      	bne.n	8004548 <__kernel_rem_pio2f+0x200>
 8004554:	2a00      	cmp	r2, #0
 8004556:	f040 8185 	bne.w	8004864 <__kernel_rem_pio2f+0x51c>
 800455a:	1e6b      	subs	r3, r5, #1
 800455c:	aa06      	add	r2, sp, #24
 800455e:	f852 3023 	ldr.w	r3, [r2, r3, lsl #2]
 8004562:	2b00      	cmp	r3, #0
 8004564:	f040 8191 	bne.w	800488a <__kernel_rem_pio2f+0x542>
 8004568:	9b04      	ldr	r3, [sp, #16]
 800456a:	f04f 0c01 	mov.w	ip, #1
 800456e:	f853 2d04 	ldr.w	r2, [r3, #-4]!
 8004572:	f10c 0c01 	add.w	ip, ip, #1
 8004576:	2a00      	cmp	r2, #0
 8004578:	d0f9      	beq.n	800456e <__kernel_rem_pio2f+0x226>
 800457a:	44a4      	add	ip, r4
 800457c:	1c63      	adds	r3, r4, #1
 800457e:	4563      	cmp	r3, ip
 8004580:	dc31      	bgt.n	80045e6 <__kernel_rem_pio2f+0x29e>
 8004582:	9a03      	ldr	r2, [sp, #12]
 8004584:	eb03 0e02 	add.w	lr, r3, r2
 8004588:	9a02      	ldr	r2, [sp, #8]
 800458a:	f10e 4e80 	add.w	lr, lr, #1073741824	; 0x40000000
 800458e:	18a0      	adds	r0, r4, r2
 8004590:	eb0c 0b02 	add.w	fp, ip, r2
 8004594:	9a65      	ldr	r2, [sp, #404]	; 0x194
 8004596:	f10e 3eff 	add.w	lr, lr, #4294967295
 800459a:	eb02 0e8e 	add.w	lr, r2, lr, lsl #2
 800459e:	aa1a      	add	r2, sp, #104	; 0x68
 80045a0:	eb02 0080 	add.w	r0, r2, r0, lsl #2
 80045a4:	eb02 0b8b 	add.w	fp, r2, fp, lsl #2
 80045a8:	aa42      	add	r2, sp, #264	; 0x108
 80045aa:	eb02 0483 	add.w	r4, r2, r3, lsl #2
 80045ae:	f85e 3f04 	ldr.w	r3, [lr, #4]!
 80045b2:	ee07 3a90 	vmov	s15, r3
 80045b6:	eef8 7ae7 	vcvt.f32.s32	s15, s15
 80045ba:	2e00      	cmp	r6, #0
 80045bc:	ece0 7a01 	vstmia	r0!, {s15}
 80045c0:	eddf 7a0b 	vldr	s15, [pc, #44]	; 80045f0 <__kernel_rem_pio2f+0x2a8>
 80045c4:	db0b      	blt.n	80045de <__kernel_rem_pio2f+0x296>
 80045c6:	464a      	mov	r2, r9
 80045c8:	eb00 0108 	add.w	r1, r0, r8
 80045cc:	4603      	mov	r3, r0
 80045ce:	ed33 7a01 	vldmdb	r3!, {s14}
 80045d2:	ecf2 6a01 	vldmia	r2!, {s13}
 80045d6:	428b      	cmp	r3, r1
 80045d8:	eee6 7a87 	vfma.f32	s15, s13, s14
 80045dc:	d1f7      	bne.n	80045ce <__kernel_rem_pio2f+0x286>
 80045de:	4558      	cmp	r0, fp
 80045e0:	ece4 7a01 	vstmia	r4!, {s15}
 80045e4:	d1e3      	bne.n	80045ae <__kernel_rem_pio2f+0x266>
 80045e6:	4664      	mov	r4, ip
 80045e8:	e70f      	b.n	800440a <__kernel_rem_pio2f+0xc2>
 80045ea:	bf00      	nop
 80045ec:	080057f0 	.word	0x080057f0
 80045f0:	00000000 	.word	0x00000000
 80045f4:	43800000 	.word	0x43800000
 80045f8:	3b800000 	.word	0x3b800000
 80045fc:	eef7 7a00 	vmov.f32	s15, #112	; 0x70
 8004600:	ee37 9ac9 	vsub.f32	s18, s15, s18
 8004604:	2800      	cmp	r0, #0
 8004606:	d094      	beq.n	8004532 <__kernel_rem_pio2f+0x1ea>
 8004608:	ee17 0a90 	vmov	r0, s15
 800460c:	4651      	mov	r1, sl
 800460e:	f8cd c014 	str.w	ip, [sp, #20]
 8004612:	f000 fa59 	bl	8004ac8 <scalbnf>
 8004616:	ee07 0a90 	vmov	s15, r0
 800461a:	ee39 9a67 	vsub.f32	s18, s18, s15
 800461e:	f8dd c014 	ldr.w	ip, [sp, #20]
 8004622:	eeb5 9a40 	vcmp.f32	s18, #0.0
 8004626:	eef1 fa10 	vmrs	APSR_nzcv, fpscr
 800462a:	d087      	beq.n	800453c <__kernel_rem_pio2f+0x1f4>
 800462c:	ee19 0a10 	vmov	r0, s18
 8004630:	f1ca 0100 	rsb	r1, sl, #0
 8004634:	f8cd c008 	str.w	ip, [sp, #8]
 8004638:	f000 fa46 	bl	8004ac8 <scalbnf>
 800463c:	ed5f 6a13 	vldr	s13, [pc, #-76]	; 80045f4 <__kernel_rem_pio2f+0x2ac>
 8004640:	f8dd c008 	ldr.w	ip, [sp, #8]
 8004644:	ee07 0a10 	vmov	s14, r0
 8004648:	eeb4 7ae6 	vcmpe.f32	s14, s13
 800464c:	eef1 fa10 	vmrs	APSR_nzcv, fpscr
 8004650:	f2c0 8181 	blt.w	8004956 <__kernel_rem_pio2f+0x60e>
 8004654:	ed5f 7a18 	vldr	s15, [pc, #-96]	; 80045f8 <__kernel_rem_pio2f+0x2b0>
 8004658:	ee67 7a27 	vmul.f32	s15, s14, s15
 800465c:	a906      	add	r1, sp, #24
 800465e:	eefd 7ae7 	vcvt.s32.f32	s15, s15
 8004662:	1c63      	adds	r3, r4, #1
 8004664:	eef8 7ae7 	vcvt.f32.s32	s15, s15
 8004668:	f10a 0a08 	add.w	sl, sl, #8
 800466c:	eea7 7ae6 	vfms.f32	s14, s15, s13
 8004670:	eefd 7ae7 	vcvt.s32.f32	s15, s15
 8004674:	eebd 7ac7 	vcvt.s32.f32	s14, s14
 8004678:	ee17 2a10 	vmov	r2, s14
 800467c:	f841 2024 	str.w	r2, [r1, r4, lsl #2]
 8004680:	ee17 2a90 	vmov	r2, s15
 8004684:	f841 2023 	str.w	r2, [r1, r3, lsl #2]
 8004688:	4651      	mov	r1, sl
 800468a:	f04f 507e 	mov.w	r0, #1065353216	; 0x3f800000
 800468e:	9303      	str	r3, [sp, #12]
 8004690:	f8cd c008 	str.w	ip, [sp, #8]
 8004694:	f000 fa18 	bl	8004ac8 <scalbnf>
 8004698:	9b03      	ldr	r3, [sp, #12]
 800469a:	f8dd c008 	ldr.w	ip, [sp, #8]
 800469e:	2b00      	cmp	r3, #0
 80046a0:	ee07 0a10 	vmov	s14, r0
 80046a4:	f2c0 80c2 	blt.w	800482c <__kernel_rem_pio2f+0x4e4>
 80046a8:	1c5f      	adds	r7, r3, #1
 80046aa:	00ba      	lsls	r2, r7, #2
 80046ac:	a842      	add	r0, sp, #264	; 0x108
 80046ae:	a906      	add	r1, sp, #24
 80046b0:	ed5f 6a2f 	vldr	s13, [pc, #-188]	; 80045f8 <__kernel_rem_pio2f+0x2b0>
 80046b4:	4411      	add	r1, r2
 80046b6:	1886      	adds	r6, r0, r2
 80046b8:	ed71 7a01 	vldmdb	r1!, {s15}
 80046bc:	eef8 7ae7 	vcvt.f32.s32	s15, s15
 80046c0:	ee67 7a87 	vmul.f32	s15, s15, s14
 80046c4:	ee27 7a26 	vmul.f32	s14, s14, s13
 80046c8:	ed66 7a01 	vstmdb	r6!, {s15}
 80046cc:	4286      	cmp	r6, r0
 80046ce:	d1f3      	bne.n	80046b8 <__kernel_rem_pio2f+0x370>
 80046d0:	3a04      	subs	r2, #4
 80046d2:	4416      	add	r6, r2
 80046d4:	2400      	movs	r4, #0
 80046d6:	2d00      	cmp	r5, #0
 80046d8:	f2c0 80a5 	blt.w	8004826 <__kernel_rem_pio2f+0x4de>
 80046dc:	2c00      	cmp	r4, #0
 80046de:	f2c0 80a2 	blt.w	8004826 <__kernel_rem_pio2f+0x4de>
 80046e2:	48a1      	ldr	r0, [pc, #644]	; (8004968 <__kernel_rem_pio2f+0x620>)
 80046e4:	eddf 7aa1 	vldr	s15, [pc, #644]	; 800496c <__kernel_rem_pio2f+0x624>
 80046e8:	4631      	mov	r1, r6
 80046ea:	2200      	movs	r2, #0
 80046ec:	e001      	b.n	80046f2 <__kernel_rem_pio2f+0x3aa>
 80046ee:	42a2      	cmp	r2, r4
 80046f0:	dc08      	bgt.n	8004704 <__kernel_rem_pio2f+0x3bc>
 80046f2:	ecf0 6a01 	vldmia	r0!, {s13}
 80046f6:	ecb1 7a01 	vldmia	r1!, {s14}
 80046fa:	3201      	adds	r2, #1
 80046fc:	4295      	cmp	r5, r2
 80046fe:	eee6 7a87 	vfma.f32	s15, s13, s14
 8004702:	daf4      	bge.n	80046ee <__kernel_rem_pio2f+0x3a6>
 8004704:	aa56      	add	r2, sp, #344	; 0x158
 8004706:	eb02 0284 	add.w	r2, r2, r4, lsl #2
 800470a:	3401      	adds	r4, #1
 800470c:	42bc      	cmp	r4, r7
 800470e:	f1a6 0604 	sub.w	r6, r6, #4
 8004712:	ed42 7a28 	vstr	s15, [r2, #-160]	; 0xffffff60
 8004716:	d1de      	bne.n	80046d6 <__kernel_rem_pio2f+0x38e>
 8004718:	9a64      	ldr	r2, [sp, #400]	; 0x190
 800471a:	2a03      	cmp	r2, #3
 800471c:	d865      	bhi.n	80047ea <__kernel_rem_pio2f+0x4a2>
 800471e:	e8df f002 	tbb	[pc, r2]
 8004722:	3a6d      	.short	0x3a6d
 8004724:	b93a      	.short	0xb93a
 8004726:	d110      	bne.n	800474a <__kernel_rem_pio2f+0x402>
 8004728:	1e63      	subs	r3, r4, #1
 800472a:	aa06      	add	r2, sp, #24
 800472c:	f852 3023 	ldr.w	r3, [r2, r3, lsl #2]
 8004730:	ea4f 2c23 	mov.w	ip, r3, asr #8
 8004734:	e6c2      	b.n	80044bc <__kernel_rem_pio2f+0x174>
 8004736:	1e62      	subs	r2, r4, #1
 8004738:	ab06      	add	r3, sp, #24
 800473a:	a906      	add	r1, sp, #24
 800473c:	f853 3022 	ldr.w	r3, [r3, r2, lsl #2]
 8004740:	f003 037f 	and.w	r3, r3, #127	; 0x7f
 8004744:	f841 3022 	str.w	r3, [r1, r2, lsl #2]
 8004748:	e6f0      	b.n	800452c <__kernel_rem_pio2f+0x1e4>
 800474a:	eef6 7a00 	vmov.f32	s15, #96	; 0x60
 800474e:	eeb4 9ae7 	vcmpe.f32	s18, s15
 8004752:	eef1 fa10 	vmrs	APSR_nzcv, fpscr
 8004756:	da0b      	bge.n	8004770 <__kernel_rem_pio2f+0x428>
 8004758:	f04f 0c00 	mov.w	ip, #0
 800475c:	e6e9      	b.n	8004532 <__kernel_rem_pio2f+0x1ea>
 800475e:	eddf 7a83 	vldr	s15, [pc, #524]	; 800496c <__kernel_rem_pio2f+0x624>
 8004762:	3104      	adds	r1, #4
 8004764:	42a1      	cmp	r1, r4
 8004766:	ece0 7a01 	vstmia	r0!, {s15}
 800476a:	f47f ae27 	bne.w	80043bc <__kernel_rem_pio2f+0x74>
 800476e:	e639      	b.n	80043e4 <__kernel_rem_pio2f+0x9c>
 8004770:	ee19 3a90 	vmov	r3, s19
 8004774:	2c00      	cmp	r4, #0
 8004776:	f103 0301 	add.w	r3, r3, #1
 800477a:	ee09 3a90 	vmov	s19, r3
 800477e:	bfc8      	it	gt
 8004780:	f04f 0c02 	movgt.w	ip, #2
 8004784:	f73f aea6 	bgt.w	80044d4 <__kernel_rem_pio2f+0x18c>
 8004788:	eef7 7a00 	vmov.f32	s15, #112	; 0x70
 800478c:	ee37 9ac9 	vsub.f32	s18, s15, s18
 8004790:	f04f 0c02 	mov.w	ip, #2
 8004794:	e6cd      	b.n	8004532 <__kernel_rem_pio2f+0x1ea>
 8004796:	aa2e      	add	r2, sp, #184	; 0xb8
 8004798:	eddf 7a74 	vldr	s15, [pc, #464]	; 800496c <__kernel_rem_pio2f+0x624>
 800479c:	eb02 0787 	add.w	r7, r2, r7, lsl #2
 80047a0:	ed37 7a01 	vldmdb	r7!, {s14}
 80047a4:	4297      	cmp	r7, r2
 80047a6:	ee77 7a87 	vadd.f32	s15, s15, s14
 80047aa:	d1f9      	bne.n	80047a0 <__kernel_rem_pio2f+0x458>
 80047ac:	f1bc 0f00 	cmp.w	ip, #0
 80047b0:	d048      	beq.n	8004844 <__kernel_rem_pio2f+0x4fc>
 80047b2:	eddd 6a2e 	vldr	s13, [sp, #184]	; 0xb8
 80047b6:	9a01      	ldr	r2, [sp, #4]
 80047b8:	eeb1 7a67 	vneg.f32	s14, s15
 80047bc:	2b00      	cmp	r3, #0
 80047be:	ee76 7ae7 	vsub.f32	s15, s13, s15
 80047c2:	ed82 7a00 	vstr	s14, [r2]
 80047c6:	dd0b      	ble.n	80047e0 <__kernel_rem_pio2f+0x498>
 80047c8:	a92f      	add	r1, sp, #188	; 0xbc
 80047ca:	2201      	movs	r2, #1
 80047cc:	ecb1 7a01 	vldmia	r1!, {s14}
 80047d0:	3201      	adds	r2, #1
 80047d2:	4293      	cmp	r3, r2
 80047d4:	ee77 7a87 	vadd.f32	s15, s15, s14
 80047d8:	daf8      	bge.n	80047cc <__kernel_rem_pio2f+0x484>
 80047da:	f1bc 0f00 	cmp.w	ip, #0
 80047de:	d001      	beq.n	80047e4 <__kernel_rem_pio2f+0x49c>
 80047e0:	eef1 7a67 	vneg.f32	s15, s15
 80047e4:	9b01      	ldr	r3, [sp, #4]
 80047e6:	edc3 7a01 	vstr	s15, [r3, #4]
 80047ea:	ee19 3a90 	vmov	r3, s19
 80047ee:	f003 0007 	and.w	r0, r3, #7
 80047f2:	b057      	add	sp, #348	; 0x15c
 80047f4:	ecbd 8b04 	vpop	{d8-d9}
 80047f8:	e8bd 8ff0 	ldmia.w	sp!, {r4, r5, r6, r7, r8, r9, sl, fp, pc}
 80047fc:	aa2e      	add	r2, sp, #184	; 0xb8
 80047fe:	eddf 7a5b 	vldr	s15, [pc, #364]	; 800496c <__kernel_rem_pio2f+0x624>
 8004802:	eb02 0787 	add.w	r7, r2, r7, lsl #2
 8004806:	ed37 7a01 	vldmdb	r7!, {s14}
 800480a:	3b01      	subs	r3, #1
 800480c:	1c5a      	adds	r2, r3, #1
 800480e:	ee77 7a87 	vadd.f32	s15, s15, s14
 8004812:	d1f8      	bne.n	8004806 <__kernel_rem_pio2f+0x4be>
 8004814:	f1bc 0f00 	cmp.w	ip, #0
 8004818:	d001      	beq.n	800481e <__kernel_rem_pio2f+0x4d6>
 800481a:	eef1 7a67 	vneg.f32	s15, s15
 800481e:	9b01      	ldr	r3, [sp, #4]
 8004820:	edc3 7a00 	vstr	s15, [r3]
 8004824:	e7e1      	b.n	80047ea <__kernel_rem_pio2f+0x4a2>
 8004826:	eddf 7a51 	vldr	s15, [pc, #324]	; 800496c <__kernel_rem_pio2f+0x624>
 800482a:	e76b      	b.n	8004704 <__kernel_rem_pio2f+0x3bc>
 800482c:	9a64      	ldr	r2, [sp, #400]	; 0x190
 800482e:	2a03      	cmp	r2, #3
 8004830:	d8db      	bhi.n	80047ea <__kernel_rem_pio2f+0x4a2>
 8004832:	e8df f002 	tbb	[pc, r2]
 8004836:	0214      	.short	0x0214
 8004838:	8302      	.short	0x8302
 800483a:	eddf 7a4c 	vldr	s15, [pc, #304]	; 800496c <__kernel_rem_pio2f+0x624>
 800483e:	f1bc 0f00 	cmp.w	ip, #0
 8004842:	d1b6      	bne.n	80047b2 <__kernel_rem_pio2f+0x46a>
 8004844:	ed9d 7a2e 	vldr	s14, [sp, #184]	; 0xb8
 8004848:	9a01      	ldr	r2, [sp, #4]
 800484a:	2b00      	cmp	r3, #0
 800484c:	edc2 7a00 	vstr	s15, [r2]
 8004850:	ee77 7a67 	vsub.f32	s15, s14, s15
 8004854:	dcb8      	bgt.n	80047c8 <__kernel_rem_pio2f+0x480>
 8004856:	9b01      	ldr	r3, [sp, #4]
 8004858:	edc3 7a01 	vstr	s15, [r3, #4]
 800485c:	e7c5      	b.n	80047ea <__kernel_rem_pio2f+0x4a2>
 800485e:	eddf 7a43 	vldr	s15, [pc, #268]	; 800496c <__kernel_rem_pio2f+0x624>
 8004862:	e7d7      	b.n	8004814 <__kernel_rem_pio2f+0x4cc>
 8004864:	aa06      	add	r2, sp, #24
 8004866:	f1aa 0a08 	sub.w	sl, sl, #8
 800486a:	f852 2023 	ldr.w	r2, [r2, r3, lsl #2]
 800486e:	2a00      	cmp	r2, #0
 8004870:	f47f af0a 	bne.w	8004688 <__kernel_rem_pio2f+0x340>
 8004874:	aa06      	add	r2, sp, #24
 8004876:	eb02 0283 	add.w	r2, r2, r3, lsl #2
 800487a:	f852 1d04 	ldr.w	r1, [r2, #-4]!
 800487e:	3b01      	subs	r3, #1
 8004880:	f1aa 0a08 	sub.w	sl, sl, #8
 8004884:	2900      	cmp	r1, #0
 8004886:	d0f8      	beq.n	800487a <__kernel_rem_pio2f+0x532>
 8004888:	e6fe      	b.n	8004688 <__kernel_rem_pio2f+0x340>
 800488a:	f04f 0c01 	mov.w	ip, #1
 800488e:	e674      	b.n	800457a <__kernel_rem_pio2f+0x232>
 8004890:	2000      	movs	r0, #0
 8004892:	e638      	b.n	8004506 <__kernel_rem_pio2f+0x1be>
 8004894:	2b00      	cmp	r3, #0
 8004896:	dd51      	ble.n	800493c <__kernel_rem_pio2f+0x5f4>
 8004898:	009a      	lsls	r2, r3, #2
 800489a:	a956      	add	r1, sp, #344	; 0x158
 800489c:	4411      	add	r1, r2
 800489e:	ac2e      	add	r4, sp, #184	; 0xb8
 80048a0:	1d10      	adds	r0, r2, #4
 80048a2:	ed11 7a28 	vldr	s14, [r1, #-160]	; 0xffffff60
 80048a6:	4420      	add	r0, r4
 80048a8:	18a1      	adds	r1, r4, r2
 80048aa:	ed71 7a01 	vldmdb	r1!, {s15}
 80048ae:	ee77 6a27 	vadd.f32	s13, s14, s15
 80048b2:	42a1      	cmp	r1, r4
 80048b4:	ee77 7ae6 	vsub.f32	s15, s15, s13
 80048b8:	ee77 7a27 	vadd.f32	s15, s14, s15
 80048bc:	eeb0 7a66 	vmov.f32	s14, s13
 80048c0:	ed60 7a01 	vstmdb	r0!, {s15}
 80048c4:	edc1 6a00 	vstr	s13, [r1]
 80048c8:	d1ef      	bne.n	80048aa <__kernel_rem_pio2f+0x562>
 80048ca:	2b01      	cmp	r3, #1
 80048cc:	dd36      	ble.n	800493c <__kernel_rem_pio2f+0x5f4>
 80048ce:	1d13      	adds	r3, r2, #4
 80048d0:	a856      	add	r0, sp, #344	; 0x158
 80048d2:	4410      	add	r0, r2
 80048d4:	440b      	add	r3, r1
 80048d6:	ed10 7a28 	vldr	s14, [r0, #-160]	; 0xffffff60
 80048da:	440a      	add	r2, r1
 80048dc:	a82f      	add	r0, sp, #188	; 0xbc
 80048de:	4619      	mov	r1, r3
 80048e0:	ed72 7a01 	vldmdb	r2!, {s15}
 80048e4:	ee77 6a87 	vadd.f32	s13, s15, s14
 80048e8:	4282      	cmp	r2, r0
 80048ea:	ee77 7ae6 	vsub.f32	s15, s15, s13
 80048ee:	ee77 7a87 	vadd.f32	s15, s15, s14
 80048f2:	eeb0 7a66 	vmov.f32	s14, s13
 80048f6:	ed61 7a01 	vstmdb	r1!, {s15}
 80048fa:	edc2 6a00 	vstr	s13, [r2]
 80048fe:	d1ef      	bne.n	80048e0 <__kernel_rem_pio2f+0x598>
 8004900:	eddf 7a1a 	vldr	s15, [pc, #104]	; 800496c <__kernel_rem_pio2f+0x624>
 8004904:	aa30      	add	r2, sp, #192	; 0xc0
 8004906:	ed33 7a01 	vldmdb	r3!, {s14}
 800490a:	4293      	cmp	r3, r2
 800490c:	ee77 7a87 	vadd.f32	s15, s15, s14
 8004910:	d1f9      	bne.n	8004906 <__kernel_rem_pio2f+0x5be>
 8004912:	f1bc 0f00 	cmp.w	ip, #0
 8004916:	d016      	beq.n	8004946 <__kernel_rem_pio2f+0x5fe>
 8004918:	eddd 6a2e 	vldr	s13, [sp, #184]	; 0xb8
 800491c:	ed9d 7a2f 	vldr	s14, [sp, #188]	; 0xbc
 8004920:	9a01      	ldr	r2, [sp, #4]
 8004922:	eef1 7a67 	vneg.f32	s15, s15
 8004926:	eef1 6a66 	vneg.f32	s13, s13
 800492a:	eeb1 7a47 	vneg.f32	s14, s14
 800492e:	edc2 7a02 	vstr	s15, [r2, #8]
 8004932:	edc2 6a00 	vstr	s13, [r2]
 8004936:	ed82 7a01 	vstr	s14, [r2, #4]
 800493a:	e756      	b.n	80047ea <__kernel_rem_pio2f+0x4a2>
 800493c:	eddf 7a0b 	vldr	s15, [pc, #44]	; 800496c <__kernel_rem_pio2f+0x624>
 8004940:	f1bc 0f00 	cmp.w	ip, #0
 8004944:	d1e8      	bne.n	8004918 <__kernel_rem_pio2f+0x5d0>
 8004946:	9801      	ldr	r0, [sp, #4]
 8004948:	9a2e      	ldr	r2, [sp, #184]	; 0xb8
 800494a:	9b2f      	ldr	r3, [sp, #188]	; 0xbc
 800494c:	edc0 7a02 	vstr	s15, [r0, #8]
 8004950:	6002      	str	r2, [r0, #0]
 8004952:	6043      	str	r3, [r0, #4]
 8004954:	e749      	b.n	80047ea <__kernel_rem_pio2f+0x4a2>
 8004956:	eebd 7ac7 	vcvt.s32.f32	s14, s14
 800495a:	a906      	add	r1, sp, #24
 800495c:	ee17 2a10 	vmov	r2, s14
 8004960:	4623      	mov	r3, r4
 8004962:	f841 2024 	str.w	r2, [r1, r4, lsl #2]
 8004966:	e68f      	b.n	8004688 <__kernel_rem_pio2f+0x340>
 8004968:	080057fc 	.word	0x080057fc
 800496c:	00000000 	.word	0x00000000

08004970 <__kernel_sinf>:
 8004970:	f020 4300 	bic.w	r3, r0, #2147483648	; 0x80000000
 8004974:	f1b3 5f48 	cmp.w	r3, #838860800	; 0x32000000
 8004978:	ee07 0a90 	vmov	s15, r0
 800497c:	ee06 1a10 	vmov	s12, r1
 8004980:	da04      	bge.n	800498c <__kernel_sinf+0x1c>
 8004982:	eebd 7ae7 	vcvt.s32.f32	s14, s15
 8004986:	ee17 3a10 	vmov	r3, s14
 800498a:	b323      	cbz	r3, 80049d6 <__kernel_sinf+0x66>
 800498c:	ee27 7aa7 	vmul.f32	s14, s15, s15
 8004990:	ed9f 4a17 	vldr	s8, [pc, #92]	; 80049f0 <__kernel_sinf+0x80>
 8004994:	eddf 4a17 	vldr	s9, [pc, #92]	; 80049f4 <__kernel_sinf+0x84>
 8004998:	ed9f 5a17 	vldr	s10, [pc, #92]	; 80049f8 <__kernel_sinf+0x88>
 800499c:	eddf 5a17 	vldr	s11, [pc, #92]	; 80049fc <__kernel_sinf+0x8c>
 80049a0:	eddf 6a17 	vldr	s13, [pc, #92]	; 8004a00 <__kernel_sinf+0x90>
 80049a4:	eee7 4a04 	vfma.f32	s9, s14, s8
 80049a8:	ee27 4a27 	vmul.f32	s8, s14, s15
 80049ac:	eea4 5a87 	vfma.f32	s10, s9, s14
 80049b0:	eee5 5a07 	vfma.f32	s11, s10, s14
 80049b4:	eee5 6a87 	vfma.f32	s13, s11, s14
 80049b8:	b182      	cbz	r2, 80049dc <__kernel_sinf+0x6c>
 80049ba:	ee66 6ac4 	vnmul.f32	s13, s13, s8
 80049be:	eef6 5a00 	vmov.f32	s11, #96	; 0x60
 80049c2:	eee6 6a25 	vfma.f32	s13, s12, s11
 80049c6:	eddf 5a0f 	vldr	s11, [pc, #60]	; 8004a04 <__kernel_sinf+0x94>
 80049ca:	ee96 6a87 	vfnms.f32	s12, s13, s14
 80049ce:	eea4 6a25 	vfma.f32	s12, s8, s11
 80049d2:	ee77 7ac6 	vsub.f32	s15, s15, s12
 80049d6:	ee17 0a90 	vmov	r0, s15
 80049da:	4770      	bx	lr
 80049dc:	ed9f 6a0a 	vldr	s12, [pc, #40]	; 8004a08 <__kernel_sinf+0x98>
 80049e0:	eea7 6a26 	vfma.f32	s12, s14, s13
 80049e4:	eee6 7a04 	vfma.f32	s15, s12, s8
 80049e8:	ee17 0a90 	vmov	r0, s15
 80049ec:	4770      	bx	lr
 80049ee:	bf00      	nop
 80049f0:	2f2ec9d3 	.word	0x2f2ec9d3
 80049f4:	b2d72f34 	.word	0xb2d72f34
 80049f8:	3638ef1b 	.word	0x3638ef1b
 80049fc:	b9500d01 	.word	0xb9500d01
 8004a00:	3c088889 	.word	0x3c088889
 8004a04:	3e2aaaab 	.word	0x3e2aaaab
 8004a08:	be2aaaab 	.word	0xbe2aaaab

08004a0c <fabsf>:
 8004a0c:	f020 4000 	bic.w	r0, r0, #2147483648	; 0x80000000
 8004a10:	4770      	bx	lr
 8004a12:	bf00      	nop

08004a14 <floorf>:
 8004a14:	b410      	push	{r4}
 8004a16:	b083      	sub	sp, #12
 8004a18:	9001      	str	r0, [sp, #4]
 8004a1a:	9a01      	ldr	r2, [sp, #4]
 8004a1c:	f022 4100 	bic.w	r1, r2, #2147483648	; 0x80000000
 8004a20:	0dcb      	lsrs	r3, r1, #23
 8004a22:	3b7f      	subs	r3, #127	; 0x7f
 8004a24:	2b16      	cmp	r3, #22
 8004a26:	dc19      	bgt.n	8004a5c <floorf+0x48>
 8004a28:	2b00      	cmp	r3, #0
 8004a2a:	4614      	mov	r4, r2
 8004a2c:	db28      	blt.n	8004a80 <floorf+0x6c>
 8004a2e:	4824      	ldr	r0, [pc, #144]	; (8004ac0 <floorf+0xac>)
 8004a30:	4118      	asrs	r0, r3
 8004a32:	4210      	tst	r0, r2
 8004a34:	d015      	beq.n	8004a62 <floorf+0x4e>
 8004a36:	eddf 7a23 	vldr	s15, [pc, #140]	; 8004ac4 <floorf+0xb0>
 8004a3a:	ed9d 7a01 	vldr	s14, [sp, #4]
 8004a3e:	ee77 7a27 	vadd.f32	s15, s14, s15
 8004a42:	eef5 7ac0 	vcmpe.f32	s15, #0.0
 8004a46:	eef1 fa10 	vmrs	APSR_nzcv, fpscr
 8004a4a:	dd28      	ble.n	8004a9e <floorf+0x8a>
 8004a4c:	2a00      	cmp	r2, #0
 8004a4e:	db29      	blt.n	8004aa4 <floorf+0x90>
 8004a50:	ea24 0000 	bic.w	r0, r4, r0
 8004a54:	b003      	add	sp, #12
 8004a56:	f85d 4b04 	ldr.w	r4, [sp], #4
 8004a5a:	4770      	bx	lr
 8004a5c:	f1b1 4fff 	cmp.w	r1, #2139095040	; 0x7f800000
 8004a60:	d204      	bcs.n	8004a6c <floorf+0x58>
 8004a62:	9801      	ldr	r0, [sp, #4]
 8004a64:	b003      	add	sp, #12
 8004a66:	f85d 4b04 	ldr.w	r4, [sp], #4
 8004a6a:	4770      	bx	lr
 8004a6c:	eddd 7a01 	vldr	s15, [sp, #4]
 8004a70:	ee77 7aa7 	vadd.f32	s15, s15, s15
 8004a74:	ee17 0a90 	vmov	r0, s15
 8004a78:	b003      	add	sp, #12
 8004a7a:	f85d 4b04 	ldr.w	r4, [sp], #4
 8004a7e:	4770      	bx	lr
 8004a80:	eddf 7a10 	vldr	s15, [pc, #64]	; 8004ac4 <floorf+0xb0>
 8004a84:	ee07 0a10 	vmov	s14, r0
 8004a88:	ee77 7a27 	vadd.f32	s15, s14, s15
 8004a8c:	eef5 7ac0 	vcmpe.f32	s15, #0.0
 8004a90:	eef1 fa10 	vmrs	APSR_nzcv, fpscr
 8004a94:	dde5      	ble.n	8004a62 <floorf+0x4e>
 8004a96:	2a00      	cmp	r2, #0
 8004a98:	db0a      	blt.n	8004ab0 <floorf+0x9c>
 8004a9a:	2000      	movs	r0, #0
 8004a9c:	e7e2      	b.n	8004a64 <floorf+0x50>
 8004a9e:	ee17 0a10 	vmov	r0, s14
 8004aa2:	e7df      	b.n	8004a64 <floorf+0x50>
 8004aa4:	f44f 0200 	mov.w	r2, #8388608	; 0x800000
 8004aa8:	fa42 f303 	asr.w	r3, r2, r3
 8004aac:	441c      	add	r4, r3
 8004aae:	e7cf      	b.n	8004a50 <floorf+0x3c>
 8004ab0:	2900      	cmp	r1, #0
 8004ab2:	eeff 7a00 	vmov.f32	s15, #240	; 0xf0
 8004ab6:	bf18      	it	ne
 8004ab8:	ee17 0a90 	vmovne	r0, s15
 8004abc:	e7d2      	b.n	8004a64 <floorf+0x50>
 8004abe:	bf00      	nop
 8004ac0:	007fffff 	.word	0x007fffff
 8004ac4:	7149f2ca 	.word	0x7149f2ca

08004ac8 <scalbnf>:
 8004ac8:	b500      	push	{lr}
 8004aca:	ed2d 8b02 	vpush	{d8}
 8004ace:	b083      	sub	sp, #12
 8004ad0:	9001      	str	r0, [sp, #4]
 8004ad2:	9b01      	ldr	r3, [sp, #4]
 8004ad4:	f033 4200 	bics.w	r2, r3, #2147483648	; 0x80000000
 8004ad8:	d023      	beq.n	8004b22 <scalbnf+0x5a>
 8004ada:	f1b2 4fff 	cmp.w	r2, #2139095040	; 0x7f800000
 8004ade:	d215      	bcs.n	8004b0c <scalbnf+0x44>
 8004ae0:	f5b2 0f00 	cmp.w	r2, #8388608	; 0x800000
 8004ae4:	d326      	bcc.n	8004b34 <scalbnf+0x6c>
 8004ae6:	0dd2      	lsrs	r2, r2, #23
 8004ae8:	440a      	add	r2, r1
 8004aea:	2afe      	cmp	r2, #254	; 0xfe
 8004aec:	dc3c      	bgt.n	8004b68 <scalbnf+0xa0>
 8004aee:	2a00      	cmp	r2, #0
 8004af0:	dd30      	ble.n	8004b54 <scalbnf+0x8c>
 8004af2:	f023 43ff 	bic.w	r3, r3, #2139095040	; 0x7f800000
 8004af6:	ea43 53c2 	orr.w	r3, r3, r2, lsl #23
 8004afa:	ee07 3a90 	vmov	s15, r3
 8004afe:	ee17 0a90 	vmov	r0, s15
 8004b02:	b003      	add	sp, #12
 8004b04:	ecbd 8b02 	vpop	{d8}
 8004b08:	f85d fb04 	ldr.w	pc, [sp], #4
 8004b0c:	ee07 0a90 	vmov	s15, r0
 8004b10:	ee77 7aa7 	vadd.f32	s15, s15, s15
 8004b14:	ee17 0a90 	vmov	r0, s15
 8004b18:	b003      	add	sp, #12
 8004b1a:	ecbd 8b02 	vpop	{d8}
 8004b1e:	f85d fb04 	ldr.w	pc, [sp], #4
 8004b22:	eddd 7a01 	vldr	s15, [sp, #4]
 8004b26:	ee17 0a90 	vmov	r0, s15
 8004b2a:	b003      	add	sp, #12
 8004b2c:	ecbd 8b02 	vpop	{d8}
 8004b30:	f85d fb04 	ldr.w	pc, [sp], #4
 8004b34:	ed9d 7a01 	vldr	s14, [sp, #4]
 8004b38:	eddf 7a1e 	vldr	s15, [pc, #120]	; 8004bb4 <scalbnf+0xec>
 8004b3c:	4b1e      	ldr	r3, [pc, #120]	; (8004bb8 <scalbnf+0xf0>)
 8004b3e:	ee67 7a27 	vmul.f32	s15, s14, s15
 8004b42:	4299      	cmp	r1, r3
 8004b44:	edcd 7a01 	vstr	s15, [sp, #4]
 8004b48:	db20      	blt.n	8004b8c <scalbnf+0xc4>
 8004b4a:	9b01      	ldr	r3, [sp, #4]
 8004b4c:	f3c3 52c7 	ubfx	r2, r3, #23, #8
 8004b50:	3a19      	subs	r2, #25
 8004b52:	e7c9      	b.n	8004ae8 <scalbnf+0x20>
 8004b54:	f112 0f16 	cmn.w	r2, #22
 8004b58:	da1f      	bge.n	8004b9a <scalbnf+0xd2>
 8004b5a:	f24c 3350 	movw	r3, #50000	; 0xc350
 8004b5e:	4299      	cmp	r1, r3
 8004b60:	dc02      	bgt.n	8004b68 <scalbnf+0xa0>
 8004b62:	ed9f 8a16 	vldr	s16, [pc, #88]	; 8004bbc <scalbnf+0xf4>
 8004b66:	e001      	b.n	8004b6c <scalbnf+0xa4>
 8004b68:	ed9f 8a15 	vldr	s16, [pc, #84]	; 8004bc0 <scalbnf+0xf8>
 8004b6c:	9901      	ldr	r1, [sp, #4]
 8004b6e:	ee18 0a10 	vmov	r0, s16
 8004b72:	f000 f829 	bl	8004bc8 <copysignf>
 8004b76:	ee07 0a90 	vmov	s15, r0
 8004b7a:	ee67 7a88 	vmul.f32	s15, s15, s16
 8004b7e:	ee17 0a90 	vmov	r0, s15
 8004b82:	b003      	add	sp, #12
 8004b84:	ecbd 8b02 	vpop	{d8}
 8004b88:	f85d fb04 	ldr.w	pc, [sp], #4
 8004b8c:	eddf 7a0b 	vldr	s15, [pc, #44]	; 8004bbc <scalbnf+0xf4>
 8004b90:	ed9d 7a01 	vldr	s14, [sp, #4]
 8004b94:	ee67 7a27 	vmul.f32	s15, s14, s15
 8004b98:	e7bc      	b.n	8004b14 <scalbnf+0x4c>
 8004b9a:	3219      	adds	r2, #25
 8004b9c:	f023 43ff 	bic.w	r3, r3, #2139095040	; 0x7f800000
 8004ba0:	ea43 53c2 	orr.w	r3, r3, r2, lsl #23
 8004ba4:	ed9f 7a07 	vldr	s14, [pc, #28]	; 8004bc4 <scalbnf+0xfc>
 8004ba8:	ee07 3a90 	vmov	s15, r3
 8004bac:	ee67 7a87 	vmul.f32	s15, s15, s14
 8004bb0:	e7b0      	b.n	8004b14 <scalbnf+0x4c>
 8004bb2:	bf00      	nop
 8004bb4:	4c000000 	.word	0x4c000000
 8004bb8:	ffff3cb0 	.word	0xffff3cb0
 8004bbc:	0da24260 	.word	0x0da24260
 8004bc0:	7149f2ca 	.word	0x7149f2ca
 8004bc4:	33000000 	.word	0x33000000

08004bc8 <copysignf>:
 8004bc8:	f001 4100 	and.w	r1, r1, #2147483648	; 0x80000000
 8004bcc:	f020 4000 	bic.w	r0, r0, #2147483648	; 0x80000000
 8004bd0:	4308      	orrs	r0, r1
 8004bd2:	4770      	bx	lr

08004bd4 <__aeabi_drsub>:
 8004bd4:	f081 4100 	eor.w	r1, r1, #2147483648	; 0x80000000
 8004bd8:	e002      	b.n	8004be0 <__adddf3>
 8004bda:	bf00      	nop

08004bdc <__aeabi_dsub>:
 8004bdc:	f083 4300 	eor.w	r3, r3, #2147483648	; 0x80000000

08004be0 <__adddf3>:
 8004be0:	b530      	push	{r4, r5, lr}
 8004be2:	ea4f 0441 	mov.w	r4, r1, lsl #1
 8004be6:	ea4f 0543 	mov.w	r5, r3, lsl #1
 8004bea:	ea94 0f05 	teq	r4, r5
 8004bee:	bf08      	it	eq
 8004bf0:	ea90 0f02 	teqeq	r0, r2
 8004bf4:	bf1f      	itttt	ne
 8004bf6:	ea54 0c00 	orrsne.w	ip, r4, r0
 8004bfa:	ea55 0c02 	orrsne.w	ip, r5, r2
 8004bfe:	ea7f 5c64 	mvnsne.w	ip, r4, asr #21
 8004c02:	ea7f 5c65 	mvnsne.w	ip, r5, asr #21
 8004c06:	f000 80e2 	beq.w	8004dce <__adddf3+0x1ee>
 8004c0a:	ea4f 5454 	mov.w	r4, r4, lsr #21
 8004c0e:	ebd4 5555 	rsbs	r5, r4, r5, lsr #21
 8004c12:	bfb8      	it	lt
 8004c14:	426d      	neglt	r5, r5
 8004c16:	dd0c      	ble.n	8004c32 <__adddf3+0x52>
 8004c18:	442c      	add	r4, r5
 8004c1a:	ea80 0202 	eor.w	r2, r0, r2
 8004c1e:	ea81 0303 	eor.w	r3, r1, r3
 8004c22:	ea82 0000 	eor.w	r0, r2, r0
 8004c26:	ea83 0101 	eor.w	r1, r3, r1
 8004c2a:	ea80 0202 	eor.w	r2, r0, r2
 8004c2e:	ea81 0303 	eor.w	r3, r1, r3
 8004c32:	2d36      	cmp	r5, #54	; 0x36
 8004c34:	bf88      	it	hi
 8004c36:	bd30      	pophi	{r4, r5, pc}
 8004c38:	f011 4f00 	tst.w	r1, #2147483648	; 0x80000000
 8004c3c:	ea4f 3101 	mov.w	r1, r1, lsl #12
 8004c40:	f44f 1c80 	mov.w	ip, #1048576	; 0x100000
 8004c44:	ea4c 3111 	orr.w	r1, ip, r1, lsr #12
 8004c48:	d002      	beq.n	8004c50 <__adddf3+0x70>
 8004c4a:	4240      	negs	r0, r0
 8004c4c:	eb61 0141 	sbc.w	r1, r1, r1, lsl #1
 8004c50:	f013 4f00 	tst.w	r3, #2147483648	; 0x80000000
 8004c54:	ea4f 3303 	mov.w	r3, r3, lsl #12
 8004c58:	ea4c 3313 	orr.w	r3, ip, r3, lsr #12
 8004c5c:	d002      	beq.n	8004c64 <__adddf3+0x84>
 8004c5e:	4252      	negs	r2, r2
 8004c60:	eb63 0343 	sbc.w	r3, r3, r3, lsl #1
 8004c64:	ea94 0f05 	teq	r4, r5
 8004c68:	f000 80a7 	beq.w	8004dba <__adddf3+0x1da>
 8004c6c:	f1a4 0401 	sub.w	r4, r4, #1
 8004c70:	f1d5 0e20 	rsbs	lr, r5, #32
 8004c74:	db0d      	blt.n	8004c92 <__adddf3+0xb2>
 8004c76:	fa02 fc0e 	lsl.w	ip, r2, lr
 8004c7a:	fa22 f205 	lsr.w	r2, r2, r5
 8004c7e:	1880      	adds	r0, r0, r2
 8004c80:	f141 0100 	adc.w	r1, r1, #0
 8004c84:	fa03 f20e 	lsl.w	r2, r3, lr
 8004c88:	1880      	adds	r0, r0, r2
 8004c8a:	fa43 f305 	asr.w	r3, r3, r5
 8004c8e:	4159      	adcs	r1, r3
 8004c90:	e00e      	b.n	8004cb0 <__adddf3+0xd0>
 8004c92:	f1a5 0520 	sub.w	r5, r5, #32
 8004c96:	f10e 0e20 	add.w	lr, lr, #32
 8004c9a:	2a01      	cmp	r2, #1
 8004c9c:	fa03 fc0e 	lsl.w	ip, r3, lr
 8004ca0:	bf28      	it	cs
 8004ca2:	f04c 0c02 	orrcs.w	ip, ip, #2
 8004ca6:	fa43 f305 	asr.w	r3, r3, r5
 8004caa:	18c0      	adds	r0, r0, r3
 8004cac:	eb51 71e3 	adcs.w	r1, r1, r3, asr #31
 8004cb0:	f001 4500 	and.w	r5, r1, #2147483648	; 0x80000000
 8004cb4:	d507      	bpl.n	8004cc6 <__adddf3+0xe6>
 8004cb6:	f04f 0e00 	mov.w	lr, #0
 8004cba:	f1dc 0c00 	rsbs	ip, ip, #0
 8004cbe:	eb7e 0000 	sbcs.w	r0, lr, r0
 8004cc2:	eb6e 0101 	sbc.w	r1, lr, r1
 8004cc6:	f5b1 1f80 	cmp.w	r1, #1048576	; 0x100000
 8004cca:	d31b      	bcc.n	8004d04 <__adddf3+0x124>
 8004ccc:	f5b1 1f00 	cmp.w	r1, #2097152	; 0x200000
 8004cd0:	d30c      	bcc.n	8004cec <__adddf3+0x10c>
 8004cd2:	0849      	lsrs	r1, r1, #1
 8004cd4:	ea5f 0030 	movs.w	r0, r0, rrx
 8004cd8:	ea4f 0c3c 	mov.w	ip, ip, rrx
 8004cdc:	f104 0401 	add.w	r4, r4, #1
 8004ce0:	ea4f 5244 	mov.w	r2, r4, lsl #21
 8004ce4:	f512 0f80 	cmn.w	r2, #4194304	; 0x400000
 8004ce8:	f080 809a 	bcs.w	8004e20 <__adddf3+0x240>
 8004cec:	f1bc 4f00 	cmp.w	ip, #2147483648	; 0x80000000
 8004cf0:	bf08      	it	eq
 8004cf2:	ea5f 0c50 	movseq.w	ip, r0, lsr #1
 8004cf6:	f150 0000 	adcs.w	r0, r0, #0
 8004cfa:	eb41 5104 	adc.w	r1, r1, r4, lsl #20
 8004cfe:	ea41 0105 	orr.w	r1, r1, r5
 8004d02:	bd30      	pop	{r4, r5, pc}
 8004d04:	ea5f 0c4c 	movs.w	ip, ip, lsl #1
 8004d08:	4140      	adcs	r0, r0
 8004d0a:	eb41 0101 	adc.w	r1, r1, r1
 8004d0e:	f411 1f80 	tst.w	r1, #1048576	; 0x100000
 8004d12:	f1a4 0401 	sub.w	r4, r4, #1
 8004d16:	d1e9      	bne.n	8004cec <__adddf3+0x10c>
 8004d18:	f091 0f00 	teq	r1, #0
 8004d1c:	bf04      	itt	eq
 8004d1e:	4601      	moveq	r1, r0
 8004d20:	2000      	moveq	r0, #0
 8004d22:	fab1 f381 	clz	r3, r1
 8004d26:	bf08      	it	eq
 8004d28:	3320      	addeq	r3, #32
 8004d2a:	f1a3 030b 	sub.w	r3, r3, #11
 8004d2e:	f1b3 0220 	subs.w	r2, r3, #32
 8004d32:	da0c      	bge.n	8004d4e <__adddf3+0x16e>
 8004d34:	320c      	adds	r2, #12
 8004d36:	dd08      	ble.n	8004d4a <__adddf3+0x16a>
 8004d38:	f102 0c14 	add.w	ip, r2, #20
 8004d3c:	f1c2 020c 	rsb	r2, r2, #12
 8004d40:	fa01 f00c 	lsl.w	r0, r1, ip
 8004d44:	fa21 f102 	lsr.w	r1, r1, r2
 8004d48:	e00c      	b.n	8004d64 <__adddf3+0x184>
 8004d4a:	f102 0214 	add.w	r2, r2, #20
 8004d4e:	bfd8      	it	le
 8004d50:	f1c2 0c20 	rsble	ip, r2, #32
 8004d54:	fa01 f102 	lsl.w	r1, r1, r2
 8004d58:	fa20 fc0c 	lsr.w	ip, r0, ip
 8004d5c:	bfdc      	itt	le
 8004d5e:	ea41 010c 	orrle.w	r1, r1, ip
 8004d62:	4090      	lslle	r0, r2
 8004d64:	1ae4      	subs	r4, r4, r3
 8004d66:	bfa2      	ittt	ge
 8004d68:	eb01 5104 	addge.w	r1, r1, r4, lsl #20
 8004d6c:	4329      	orrge	r1, r5
 8004d6e:	bd30      	popge	{r4, r5, pc}
 8004d70:	ea6f 0404 	mvn.w	r4, r4
 8004d74:	3c1f      	subs	r4, #31
 8004d76:	da1c      	bge.n	8004db2 <__adddf3+0x1d2>
 8004d78:	340c      	adds	r4, #12
 8004d7a:	dc0e      	bgt.n	8004d9a <__adddf3+0x1ba>
 8004d7c:	f104 0414 	add.w	r4, r4, #20
 8004d80:	f1c4 0220 	rsb	r2, r4, #32
 8004d84:	fa20 f004 	lsr.w	r0, r0, r4
 8004d88:	fa01 f302 	lsl.w	r3, r1, r2
 8004d8c:	ea40 0003 	orr.w	r0, r0, r3
 8004d90:	fa21 f304 	lsr.w	r3, r1, r4
 8004d94:	ea45 0103 	orr.w	r1, r5, r3
 8004d98:	bd30      	pop	{r4, r5, pc}
 8004d9a:	f1c4 040c 	rsb	r4, r4, #12
 8004d9e:	f1c4 0220 	rsb	r2, r4, #32
 8004da2:	fa20 f002 	lsr.w	r0, r0, r2
 8004da6:	fa01 f304 	lsl.w	r3, r1, r4
 8004daa:	ea40 0003 	orr.w	r0, r0, r3
 8004dae:	4629      	mov	r1, r5
 8004db0:	bd30      	pop	{r4, r5, pc}
 8004db2:	fa21 f004 	lsr.w	r0, r1, r4
 8004db6:	4629      	mov	r1, r5
 8004db8:	bd30      	pop	{r4, r5, pc}
 8004dba:	f094 0f00 	teq	r4, #0
 8004dbe:	f483 1380 	eor.w	r3, r3, #1048576	; 0x100000
 8004dc2:	bf06      	itte	eq
 8004dc4:	f481 1180 	eoreq.w	r1, r1, #1048576	; 0x100000
 8004dc8:	3401      	addeq	r4, #1
 8004dca:	3d01      	subne	r5, #1
 8004dcc:	e74e      	b.n	8004c6c <__adddf3+0x8c>
 8004dce:	ea7f 5c64 	mvns.w	ip, r4, asr #21
 8004dd2:	bf18      	it	ne
 8004dd4:	ea7f 5c65 	mvnsne.w	ip, r5, asr #21
 8004dd8:	d029      	beq.n	8004e2e <__adddf3+0x24e>
 8004dda:	ea94 0f05 	teq	r4, r5
 8004dde:	bf08      	it	eq
 8004de0:	ea90 0f02 	teqeq	r0, r2
 8004de4:	d005      	beq.n	8004df2 <__adddf3+0x212>
 8004de6:	ea54 0c00 	orrs.w	ip, r4, r0
 8004dea:	bf04      	itt	eq
 8004dec:	4619      	moveq	r1, r3
 8004dee:	4610      	moveq	r0, r2
 8004df0:	bd30      	pop	{r4, r5, pc}
 8004df2:	ea91 0f03 	teq	r1, r3
 8004df6:	bf1e      	ittt	ne
 8004df8:	2100      	movne	r1, #0
 8004dfa:	2000      	movne	r0, #0
 8004dfc:	bd30      	popne	{r4, r5, pc}
 8004dfe:	ea5f 5c54 	movs.w	ip, r4, lsr #21
 8004e02:	d105      	bne.n	8004e10 <__adddf3+0x230>
 8004e04:	0040      	lsls	r0, r0, #1
 8004e06:	4149      	adcs	r1, r1
 8004e08:	bf28      	it	cs
 8004e0a:	f041 4100 	orrcs.w	r1, r1, #2147483648	; 0x80000000
 8004e0e:	bd30      	pop	{r4, r5, pc}
 8004e10:	f514 0480 	adds.w	r4, r4, #4194304	; 0x400000
 8004e14:	bf3c      	itt	cc
 8004e16:	f501 1180 	addcc.w	r1, r1, #1048576	; 0x100000
 8004e1a:	bd30      	popcc	{r4, r5, pc}
 8004e1c:	f001 4500 	and.w	r5, r1, #2147483648	; 0x80000000
 8004e20:	f045 41fe 	orr.w	r1, r5, #2130706432	; 0x7f000000
 8004e24:	f441 0170 	orr.w	r1, r1, #15728640	; 0xf00000
 8004e28:	f04f 0000 	mov.w	r0, #0
 8004e2c:	bd30      	pop	{r4, r5, pc}
 8004e2e:	ea7f 5c64 	mvns.w	ip, r4, asr #21
 8004e32:	bf1a      	itte	ne
 8004e34:	4619      	movne	r1, r3
 8004e36:	4610      	movne	r0, r2
 8004e38:	ea7f 5c65 	mvnseq.w	ip, r5, asr #21
 8004e3c:	bf1c      	itt	ne
 8004e3e:	460b      	movne	r3, r1
 8004e40:	4602      	movne	r2, r0
 8004e42:	ea50 3401 	orrs.w	r4, r0, r1, lsl #12
 8004e46:	bf06      	itte	eq
 8004e48:	ea52 3503 	orrseq.w	r5, r2, r3, lsl #12
 8004e4c:	ea91 0f03 	teqeq	r1, r3
 8004e50:	f441 2100 	orrne.w	r1, r1, #524288	; 0x80000
 8004e54:	bd30      	pop	{r4, r5, pc}
 8004e56:	bf00      	nop

08004e58 <__aeabi_ui2d>:
 8004e58:	f090 0f00 	teq	r0, #0
 8004e5c:	bf04      	itt	eq
 8004e5e:	2100      	moveq	r1, #0
 8004e60:	4770      	bxeq	lr
 8004e62:	b530      	push	{r4, r5, lr}
 8004e64:	f44f 6480 	mov.w	r4, #1024	; 0x400
 8004e68:	f104 0432 	add.w	r4, r4, #50	; 0x32
 8004e6c:	f04f 0500 	mov.w	r5, #0
 8004e70:	f04f 0100 	mov.w	r1, #0
 8004e74:	e750      	b.n	8004d18 <__adddf3+0x138>
 8004e76:	bf00      	nop

08004e78 <__aeabi_i2d>:
 8004e78:	f090 0f00 	teq	r0, #0
 8004e7c:	bf04      	itt	eq
 8004e7e:	2100      	moveq	r1, #0
 8004e80:	4770      	bxeq	lr
 8004e82:	b530      	push	{r4, r5, lr}
 8004e84:	f44f 6480 	mov.w	r4, #1024	; 0x400
 8004e88:	f104 0432 	add.w	r4, r4, #50	; 0x32
 8004e8c:	f010 4500 	ands.w	r5, r0, #2147483648	; 0x80000000
 8004e90:	bf48      	it	mi
 8004e92:	4240      	negmi	r0, r0
 8004e94:	f04f 0100 	mov.w	r1, #0
 8004e98:	e73e      	b.n	8004d18 <__adddf3+0x138>
 8004e9a:	bf00      	nop

08004e9c <__aeabi_f2d>:
 8004e9c:	0042      	lsls	r2, r0, #1
 8004e9e:	ea4f 01e2 	mov.w	r1, r2, asr #3
 8004ea2:	ea4f 0131 	mov.w	r1, r1, rrx
 8004ea6:	ea4f 7002 	mov.w	r0, r2, lsl #28
 8004eaa:	bf1f      	itttt	ne
 8004eac:	f012 437f 	andsne.w	r3, r2, #4278190080	; 0xff000000
 8004eb0:	f093 4f7f 	teqne	r3, #4278190080	; 0xff000000
 8004eb4:	f081 5160 	eorne.w	r1, r1, #939524096	; 0x38000000
 8004eb8:	4770      	bxne	lr
 8004eba:	f092 0f00 	teq	r2, #0
 8004ebe:	bf14      	ite	ne
 8004ec0:	f093 4f7f 	teqne	r3, #4278190080	; 0xff000000
 8004ec4:	4770      	bxeq	lr
 8004ec6:	b530      	push	{r4, r5, lr}
 8004ec8:	f44f 7460 	mov.w	r4, #896	; 0x380
 8004ecc:	f001 4500 	and.w	r5, r1, #2147483648	; 0x80000000
 8004ed0:	f021 4100 	bic.w	r1, r1, #2147483648	; 0x80000000
 8004ed4:	e720      	b.n	8004d18 <__adddf3+0x138>
 8004ed6:	bf00      	nop

08004ed8 <__aeabi_ul2d>:
 8004ed8:	ea50 0201 	orrs.w	r2, r0, r1
 8004edc:	bf08      	it	eq
 8004ede:	4770      	bxeq	lr
 8004ee0:	b530      	push	{r4, r5, lr}
 8004ee2:	f04f 0500 	mov.w	r5, #0
 8004ee6:	e00a      	b.n	8004efe <__aeabi_l2d+0x16>

08004ee8 <__aeabi_l2d>:
 8004ee8:	ea50 0201 	orrs.w	r2, r0, r1
 8004eec:	bf08      	it	eq
 8004eee:	4770      	bxeq	lr
 8004ef0:	b530      	push	{r4, r5, lr}
 8004ef2:	f011 4500 	ands.w	r5, r1, #2147483648	; 0x80000000
 8004ef6:	d502      	bpl.n	8004efe <__aeabi_l2d+0x16>
 8004ef8:	4240      	negs	r0, r0
 8004efa:	eb61 0141 	sbc.w	r1, r1, r1, lsl #1
 8004efe:	f44f 6480 	mov.w	r4, #1024	; 0x400
 8004f02:	f104 0432 	add.w	r4, r4, #50	; 0x32
 8004f06:	ea5f 5c91 	movs.w	ip, r1, lsr #22
 8004f0a:	f43f aedc 	beq.w	8004cc6 <__adddf3+0xe6>
 8004f0e:	f04f 0203 	mov.w	r2, #3
 8004f12:	ea5f 0cdc 	movs.w	ip, ip, lsr #3
 8004f16:	bf18      	it	ne
 8004f18:	3203      	addne	r2, #3
 8004f1a:	ea5f 0cdc 	movs.w	ip, ip, lsr #3
 8004f1e:	bf18      	it	ne
 8004f20:	3203      	addne	r2, #3
 8004f22:	eb02 02dc 	add.w	r2, r2, ip, lsr #3
 8004f26:	f1c2 0320 	rsb	r3, r2, #32
 8004f2a:	fa00 fc03 	lsl.w	ip, r0, r3
 8004f2e:	fa20 f002 	lsr.w	r0, r0, r2
 8004f32:	fa01 fe03 	lsl.w	lr, r1, r3
 8004f36:	ea40 000e 	orr.w	r0, r0, lr
 8004f3a:	fa21 f102 	lsr.w	r1, r1, r2
 8004f3e:	4414      	add	r4, r2
 8004f40:	e6c1      	b.n	8004cc6 <__adddf3+0xe6>
 8004f42:	bf00      	nop

08004f44 <__aeabi_dmul>:
 8004f44:	b570      	push	{r4, r5, r6, lr}
 8004f46:	f04f 0cff 	mov.w	ip, #255	; 0xff
 8004f4a:	f44c 6ce0 	orr.w	ip, ip, #1792	; 0x700
 8004f4e:	ea1c 5411 	ands.w	r4, ip, r1, lsr #20
 8004f52:	bf1d      	ittte	ne
 8004f54:	ea1c 5513 	andsne.w	r5, ip, r3, lsr #20
 8004f58:	ea94 0f0c 	teqne	r4, ip
 8004f5c:	ea95 0f0c 	teqne	r5, ip
 8004f60:	f000 f8de 	bleq	8005120 <__aeabi_dmul+0x1dc>
 8004f64:	442c      	add	r4, r5
 8004f66:	ea81 0603 	eor.w	r6, r1, r3
 8004f6a:	ea21 514c 	bic.w	r1, r1, ip, lsl #21
 8004f6e:	ea23 534c 	bic.w	r3, r3, ip, lsl #21
 8004f72:	ea50 3501 	orrs.w	r5, r0, r1, lsl #12
 8004f76:	bf18      	it	ne
 8004f78:	ea52 3503 	orrsne.w	r5, r2, r3, lsl #12
 8004f7c:	f441 1180 	orr.w	r1, r1, #1048576	; 0x100000
 8004f80:	f443 1380 	orr.w	r3, r3, #1048576	; 0x100000
 8004f84:	d038      	beq.n	8004ff8 <__aeabi_dmul+0xb4>
 8004f86:	fba0 ce02 	umull	ip, lr, r0, r2
 8004f8a:	f04f 0500 	mov.w	r5, #0
 8004f8e:	fbe1 e502 	umlal	lr, r5, r1, r2
 8004f92:	f006 4200 	and.w	r2, r6, #2147483648	; 0x80000000
 8004f96:	fbe0 e503 	umlal	lr, r5, r0, r3
 8004f9a:	f04f 0600 	mov.w	r6, #0
 8004f9e:	fbe1 5603 	umlal	r5, r6, r1, r3
 8004fa2:	f09c 0f00 	teq	ip, #0
 8004fa6:	bf18      	it	ne
 8004fa8:	f04e 0e01 	orrne.w	lr, lr, #1
 8004fac:	f1a4 04ff 	sub.w	r4, r4, #255	; 0xff
 8004fb0:	f5b6 7f00 	cmp.w	r6, #512	; 0x200
 8004fb4:	f564 7440 	sbc.w	r4, r4, #768	; 0x300
 8004fb8:	d204      	bcs.n	8004fc4 <__aeabi_dmul+0x80>
 8004fba:	ea5f 0e4e 	movs.w	lr, lr, lsl #1
 8004fbe:	416d      	adcs	r5, r5
 8004fc0:	eb46 0606 	adc.w	r6, r6, r6
 8004fc4:	ea42 21c6 	orr.w	r1, r2, r6, lsl #11
 8004fc8:	ea41 5155 	orr.w	r1, r1, r5, lsr #21
 8004fcc:	ea4f 20c5 	mov.w	r0, r5, lsl #11
 8004fd0:	ea40 505e 	orr.w	r0, r0, lr, lsr #21
 8004fd4:	ea4f 2ece 	mov.w	lr, lr, lsl #11
 8004fd8:	f1b4 0cfd 	subs.w	ip, r4, #253	; 0xfd
 8004fdc:	bf88      	it	hi
 8004fde:	f5bc 6fe0 	cmphi.w	ip, #1792	; 0x700
 8004fe2:	d81e      	bhi.n	8005022 <__aeabi_dmul+0xde>
 8004fe4:	f1be 4f00 	cmp.w	lr, #2147483648	; 0x80000000
 8004fe8:	bf08      	it	eq
 8004fea:	ea5f 0e50 	movseq.w	lr, r0, lsr #1
 8004fee:	f150 0000 	adcs.w	r0, r0, #0
 8004ff2:	eb41 5104 	adc.w	r1, r1, r4, lsl #20
 8004ff6:	bd70      	pop	{r4, r5, r6, pc}
 8004ff8:	f006 4600 	and.w	r6, r6, #2147483648	; 0x80000000
 8004ffc:	ea46 0101 	orr.w	r1, r6, r1
 8005000:	ea40 0002 	orr.w	r0, r0, r2
 8005004:	ea81 0103 	eor.w	r1, r1, r3
 8005008:	ebb4 045c 	subs.w	r4, r4, ip, lsr #1
 800500c:	bfc2      	ittt	gt
 800500e:	ebd4 050c 	rsbsgt	r5, r4, ip
 8005012:	ea41 5104 	orrgt.w	r1, r1, r4, lsl #20
 8005016:	bd70      	popgt	{r4, r5, r6, pc}
 8005018:	f441 1180 	orr.w	r1, r1, #1048576	; 0x100000
 800501c:	f04f 0e00 	mov.w	lr, #0
 8005020:	3c01      	subs	r4, #1
 8005022:	f300 80ab 	bgt.w	800517c <__aeabi_dmul+0x238>
 8005026:	f114 0f36 	cmn.w	r4, #54	; 0x36
 800502a:	bfde      	ittt	le
 800502c:	2000      	movle	r0, #0
 800502e:	f001 4100 	andle.w	r1, r1, #2147483648	; 0x80000000
 8005032:	bd70      	pople	{r4, r5, r6, pc}
 8005034:	f1c4 0400 	rsb	r4, r4, #0
 8005038:	3c20      	subs	r4, #32
 800503a:	da35      	bge.n	80050a8 <__aeabi_dmul+0x164>
 800503c:	340c      	adds	r4, #12
 800503e:	dc1b      	bgt.n	8005078 <__aeabi_dmul+0x134>
 8005040:	f104 0414 	add.w	r4, r4, #20
 8005044:	f1c4 0520 	rsb	r5, r4, #32
 8005048:	fa00 f305 	lsl.w	r3, r0, r5
 800504c:	fa20 f004 	lsr.w	r0, r0, r4
 8005050:	fa01 f205 	lsl.w	r2, r1, r5
 8005054:	ea40 0002 	orr.w	r0, r0, r2
 8005058:	f001 4200 	and.w	r2, r1, #2147483648	; 0x80000000
 800505c:	f021 4100 	bic.w	r1, r1, #2147483648	; 0x80000000
 8005060:	eb10 70d3 	adds.w	r0, r0, r3, lsr #31
 8005064:	fa21 f604 	lsr.w	r6, r1, r4
 8005068:	eb42 0106 	adc.w	r1, r2, r6
 800506c:	ea5e 0e43 	orrs.w	lr, lr, r3, lsl #1
 8005070:	bf08      	it	eq
 8005072:	ea20 70d3 	biceq.w	r0, r0, r3, lsr #31
 8005076:	bd70      	pop	{r4, r5, r6, pc}
 8005078:	f1c4 040c 	rsb	r4, r4, #12
 800507c:	f1c4 0520 	rsb	r5, r4, #32
 8005080:	fa00 f304 	lsl.w	r3, r0, r4
 8005084:	fa20 f005 	lsr.w	r0, r0, r5
 8005088:	fa01 f204 	lsl.w	r2, r1, r4
 800508c:	ea40 0002 	orr.w	r0, r0, r2
 8005090:	f001 4100 	and.w	r1, r1, #2147483648	; 0x80000000
 8005094:	eb10 70d3 	adds.w	r0, r0, r3, lsr #31
 8005098:	f141 0100 	adc.w	r1, r1, #0
 800509c:	ea5e 0e43 	orrs.w	lr, lr, r3, lsl #1
 80050a0:	bf08      	it	eq
 80050a2:	ea20 70d3 	biceq.w	r0, r0, r3, lsr #31
 80050a6:	bd70      	pop	{r4, r5, r6, pc}
 80050a8:	f1c4 0520 	rsb	r5, r4, #32
 80050ac:	fa00 f205 	lsl.w	r2, r0, r5
 80050b0:	ea4e 0e02 	orr.w	lr, lr, r2
 80050b4:	fa20 f304 	lsr.w	r3, r0, r4
 80050b8:	fa01 f205 	lsl.w	r2, r1, r5
 80050bc:	ea43 0302 	orr.w	r3, r3, r2
 80050c0:	fa21 f004 	lsr.w	r0, r1, r4
 80050c4:	f001 4100 	and.w	r1, r1, #2147483648	; 0x80000000
 80050c8:	fa21 f204 	lsr.w	r2, r1, r4
 80050cc:	ea20 0002 	bic.w	r0, r0, r2
 80050d0:	eb00 70d3 	add.w	r0, r0, r3, lsr #31
 80050d4:	ea5e 0e43 	orrs.w	lr, lr, r3, lsl #1
 80050d8:	bf08      	it	eq
 80050da:	ea20 70d3 	biceq.w	r0, r0, r3, lsr #31
 80050de:	bd70      	pop	{r4, r5, r6, pc}
 80050e0:	f094 0f00 	teq	r4, #0
 80050e4:	d10f      	bne.n	8005106 <__aeabi_dmul+0x1c2>
 80050e6:	f001 4600 	and.w	r6, r1, #2147483648	; 0x80000000
 80050ea:	0040      	lsls	r0, r0, #1
 80050ec:	eb41 0101 	adc.w	r1, r1, r1
 80050f0:	f411 1f80 	tst.w	r1, #1048576	; 0x100000
 80050f4:	bf08      	it	eq
 80050f6:	3c01      	subeq	r4, #1
 80050f8:	d0f7      	beq.n	80050ea <__aeabi_dmul+0x1a6>
 80050fa:	ea41 0106 	orr.w	r1, r1, r6
 80050fe:	f095 0f00 	teq	r5, #0
 8005102:	bf18      	it	ne
 8005104:	4770      	bxne	lr
 8005106:	f003 4600 	and.w	r6, r3, #2147483648	; 0x80000000
 800510a:	0052      	lsls	r2, r2, #1
 800510c:	eb43 0303 	adc.w	r3, r3, r3
 8005110:	f413 1f80 	tst.w	r3, #1048576	; 0x100000
 8005114:	bf08      	it	eq
 8005116:	3d01      	subeq	r5, #1
 8005118:	d0f7      	beq.n	800510a <__aeabi_dmul+0x1c6>
 800511a:	ea43 0306 	orr.w	r3, r3, r6
 800511e:	4770      	bx	lr
 8005120:	ea94 0f0c 	teq	r4, ip
 8005124:	ea0c 5513 	and.w	r5, ip, r3, lsr #20
 8005128:	bf18      	it	ne
 800512a:	ea95 0f0c 	teqne	r5, ip
 800512e:	d00c      	beq.n	800514a <__aeabi_dmul+0x206>
 8005130:	ea50 0641 	orrs.w	r6, r0, r1, lsl #1
 8005134:	bf18      	it	ne
 8005136:	ea52 0643 	orrsne.w	r6, r2, r3, lsl #1
 800513a:	d1d1      	bne.n	80050e0 <__aeabi_dmul+0x19c>
 800513c:	ea81 0103 	eor.w	r1, r1, r3
 8005140:	f001 4100 	and.w	r1, r1, #2147483648	; 0x80000000
 8005144:	f04f 0000 	mov.w	r0, #0
 8005148:	bd70      	pop	{r4, r5, r6, pc}
 800514a:	ea50 0641 	orrs.w	r6, r0, r1, lsl #1
 800514e:	bf06      	itte	eq
 8005150:	4610      	moveq	r0, r2
 8005152:	4619      	moveq	r1, r3
 8005154:	ea52 0643 	orrsne.w	r6, r2, r3, lsl #1
 8005158:	d019      	beq.n	800518e <__aeabi_dmul+0x24a>
 800515a:	ea94 0f0c 	teq	r4, ip
 800515e:	d102      	bne.n	8005166 <__aeabi_dmul+0x222>
 8005160:	ea50 3601 	orrs.w	r6, r0, r1, lsl #12
 8005164:	d113      	bne.n	800518e <__aeabi_dmul+0x24a>
 8005166:	ea95 0f0c 	teq	r5, ip
 800516a:	d105      	bne.n	8005178 <__aeabi_dmul+0x234>
 800516c:	ea52 3603 	orrs.w	r6, r2, r3, lsl #12
 8005170:	bf1c      	itt	ne
 8005172:	4610      	movne	r0, r2
 8005174:	4619      	movne	r1, r3
 8005176:	d10a      	bne.n	800518e <__aeabi_dmul+0x24a>
 8005178:	ea81 0103 	eor.w	r1, r1, r3
 800517c:	f001 4100 	and.w	r1, r1, #2147483648	; 0x80000000
 8005180:	f041 41fe 	orr.w	r1, r1, #2130706432	; 0x7f000000
 8005184:	f441 0170 	orr.w	r1, r1, #15728640	; 0xf00000
 8005188:	f04f 0000 	mov.w	r0, #0
 800518c:	bd70      	pop	{r4, r5, r6, pc}
 800518e:	f041 41fe 	orr.w	r1, r1, #2130706432	; 0x7f000000
 8005192:	f441 0178 	orr.w	r1, r1, #16252928	; 0xf80000
 8005196:	bd70      	pop	{r4, r5, r6, pc}

08005198 <__aeabi_ddiv>:
 8005198:	b570      	push	{r4, r5, r6, lr}
 800519a:	f04f 0cff 	mov.w	ip, #255	; 0xff
 800519e:	f44c 6ce0 	orr.w	ip, ip, #1792	; 0x700
 80051a2:	ea1c 5411 	ands.w	r4, ip, r1, lsr #20
 80051a6:	bf1d      	ittte	ne
 80051a8:	ea1c 5513 	andsne.w	r5, ip, r3, lsr #20
 80051ac:	ea94 0f0c 	teqne	r4, ip
 80051b0:	ea95 0f0c 	teqne	r5, ip
 80051b4:	f000 f8a7 	bleq	8005306 <__aeabi_ddiv+0x16e>
 80051b8:	eba4 0405 	sub.w	r4, r4, r5
 80051bc:	ea81 0e03 	eor.w	lr, r1, r3
 80051c0:	ea52 3503 	orrs.w	r5, r2, r3, lsl #12
 80051c4:	ea4f 3101 	mov.w	r1, r1, lsl #12
 80051c8:	f000 8088 	beq.w	80052dc <__aeabi_ddiv+0x144>
 80051cc:	ea4f 3303 	mov.w	r3, r3, lsl #12
 80051d0:	f04f 5580 	mov.w	r5, #268435456	; 0x10000000
 80051d4:	ea45 1313 	orr.w	r3, r5, r3, lsr #4
 80051d8:	ea43 6312 	orr.w	r3, r3, r2, lsr #24
 80051dc:	ea4f 2202 	mov.w	r2, r2, lsl #8
 80051e0:	ea45 1511 	orr.w	r5, r5, r1, lsr #4
 80051e4:	ea45 6510 	orr.w	r5, r5, r0, lsr #24
 80051e8:	ea4f 2600 	mov.w	r6, r0, lsl #8
 80051ec:	f00e 4100 	and.w	r1, lr, #2147483648	; 0x80000000
 80051f0:	429d      	cmp	r5, r3
 80051f2:	bf08      	it	eq
 80051f4:	4296      	cmpeq	r6, r2
 80051f6:	f144 04fd 	adc.w	r4, r4, #253	; 0xfd
 80051fa:	f504 7440 	add.w	r4, r4, #768	; 0x300
 80051fe:	d202      	bcs.n	8005206 <__aeabi_ddiv+0x6e>
 8005200:	085b      	lsrs	r3, r3, #1
 8005202:	ea4f 0232 	mov.w	r2, r2, rrx
 8005206:	1ab6      	subs	r6, r6, r2
 8005208:	eb65 0503 	sbc.w	r5, r5, r3
 800520c:	085b      	lsrs	r3, r3, #1
 800520e:	ea4f 0232 	mov.w	r2, r2, rrx
 8005212:	f44f 1080 	mov.w	r0, #1048576	; 0x100000
 8005216:	f44f 2c00 	mov.w	ip, #524288	; 0x80000
 800521a:	ebb6 0e02 	subs.w	lr, r6, r2
 800521e:	eb75 0e03 	sbcs.w	lr, r5, r3
 8005222:	bf22      	ittt	cs
 8005224:	1ab6      	subcs	r6, r6, r2
 8005226:	4675      	movcs	r5, lr
 8005228:	ea40 000c 	orrcs.w	r0, r0, ip
 800522c:	085b      	lsrs	r3, r3, #1
 800522e:	ea4f 0232 	mov.w	r2, r2, rrx
 8005232:	ebb6 0e02 	subs.w	lr, r6, r2
 8005236:	eb75 0e03 	sbcs.w	lr, r5, r3
 800523a:	bf22      	ittt	cs
 800523c:	1ab6      	subcs	r6, r6, r2
 800523e:	4675      	movcs	r5, lr
 8005240:	ea40 005c 	orrcs.w	r0, r0, ip, lsr #1
 8005244:	085b      	lsrs	r3, r3, #1
 8005246:	ea4f 0232 	mov.w	r2, r2, rrx
 800524a:	ebb6 0e02 	subs.w	lr, r6, r2
 800524e:	eb75 0e03 	sbcs.w	lr, r5, r3
 8005252:	bf22      	ittt	cs
 8005254:	1ab6      	subcs	r6, r6, r2
 8005256:	4675      	movcs	r5, lr
 8005258:	ea40 009c 	orrcs.w	r0, r0, ip, lsr #2
 800525c:	085b      	lsrs	r3, r3, #1
 800525e:	ea4f 0232 	mov.w	r2, r2, rrx
 8005262:	ebb6 0e02 	subs.w	lr, r6, r2
 8005266:	eb75 0e03 	sbcs.w	lr, r5, r3
 800526a:	bf22      	ittt	cs
 800526c:	1ab6      	subcs	r6, r6, r2
 800526e:	4675      	movcs	r5, lr
 8005270:	ea40 00dc 	orrcs.w	r0, r0, ip, lsr #3
 8005274:	ea55 0e06 	orrs.w	lr, r5, r6
 8005278:	d018      	beq.n	80052ac <__aeabi_ddiv+0x114>
 800527a:	ea4f 1505 	mov.w	r5, r5, lsl #4
 800527e:	ea45 7516 	orr.w	r5, r5, r6, lsr #28
 8005282:	ea4f 1606 	mov.w	r6, r6, lsl #4
 8005286:	ea4f 03c3 	mov.w	r3, r3, lsl #3
 800528a:	ea43 7352 	orr.w	r3, r3, r2, lsr #29
 800528e:	ea4f 02c2 	mov.w	r2, r2, lsl #3
 8005292:	ea5f 1c1c 	movs.w	ip, ip, lsr #4
 8005296:	d1c0      	bne.n	800521a <__aeabi_ddiv+0x82>
 8005298:	f411 1f80 	tst.w	r1, #1048576	; 0x100000
 800529c:	d10b      	bne.n	80052b6 <__aeabi_ddiv+0x11e>
 800529e:	ea41 0100 	orr.w	r1, r1, r0
 80052a2:	f04f 0000 	mov.w	r0, #0
 80052a6:	f04f 4c00 	mov.w	ip, #2147483648	; 0x80000000
 80052aa:	e7b6      	b.n	800521a <__aeabi_ddiv+0x82>
 80052ac:	f411 1f80 	tst.w	r1, #1048576	; 0x100000
 80052b0:	bf04      	itt	eq
 80052b2:	4301      	orreq	r1, r0
 80052b4:	2000      	moveq	r0, #0
 80052b6:	f1b4 0cfd 	subs.w	ip, r4, #253	; 0xfd
 80052ba:	bf88      	it	hi
 80052bc:	f5bc 6fe0 	cmphi.w	ip, #1792	; 0x700
 80052c0:	f63f aeaf 	bhi.w	8005022 <__aeabi_dmul+0xde>
 80052c4:	ebb5 0c03 	subs.w	ip, r5, r3
 80052c8:	bf04      	itt	eq
 80052ca:	ebb6 0c02 	subseq.w	ip, r6, r2
 80052ce:	ea5f 0c50 	movseq.w	ip, r0, lsr #1
 80052d2:	f150 0000 	adcs.w	r0, r0, #0
 80052d6:	eb41 5104 	adc.w	r1, r1, r4, lsl #20
 80052da:	bd70      	pop	{r4, r5, r6, pc}
 80052dc:	f00e 4e00 	and.w	lr, lr, #2147483648	; 0x80000000
 80052e0:	ea4e 3111 	orr.w	r1, lr, r1, lsr #12
 80052e4:	eb14 045c 	adds.w	r4, r4, ip, lsr #1
 80052e8:	bfc2      	ittt	gt
 80052ea:	ebd4 050c 	rsbsgt	r5, r4, ip
 80052ee:	ea41 5104 	orrgt.w	r1, r1, r4, lsl #20
 80052f2:	bd70      	popgt	{r4, r5, r6, pc}
 80052f4:	f441 1180 	orr.w	r1, r1, #1048576	; 0x100000
 80052f8:	f04f 0e00 	mov.w	lr, #0
 80052fc:	3c01      	subs	r4, #1
 80052fe:	e690      	b.n	8005022 <__aeabi_dmul+0xde>
 8005300:	ea45 0e06 	orr.w	lr, r5, r6
 8005304:	e68d      	b.n	8005022 <__aeabi_dmul+0xde>
 8005306:	ea0c 5513 	and.w	r5, ip, r3, lsr #20
 800530a:	ea94 0f0c 	teq	r4, ip
 800530e:	bf08      	it	eq
 8005310:	ea95 0f0c 	teqeq	r5, ip
 8005314:	f43f af3b 	beq.w	800518e <__aeabi_dmul+0x24a>
 8005318:	ea94 0f0c 	teq	r4, ip
 800531c:	d10a      	bne.n	8005334 <__aeabi_ddiv+0x19c>
 800531e:	ea50 3401 	orrs.w	r4, r0, r1, lsl #12
 8005322:	f47f af34 	bne.w	800518e <__aeabi_dmul+0x24a>
 8005326:	ea95 0f0c 	teq	r5, ip
 800532a:	f47f af25 	bne.w	8005178 <__aeabi_dmul+0x234>
 800532e:	4610      	mov	r0, r2
 8005330:	4619      	mov	r1, r3
 8005332:	e72c      	b.n	800518e <__aeabi_dmul+0x24a>
 8005334:	ea95 0f0c 	teq	r5, ip
 8005338:	d106      	bne.n	8005348 <__aeabi_ddiv+0x1b0>
 800533a:	ea52 3503 	orrs.w	r5, r2, r3, lsl #12
 800533e:	f43f aefd 	beq.w	800513c <__aeabi_dmul+0x1f8>
 8005342:	4610      	mov	r0, r2
 8005344:	4619      	mov	r1, r3
 8005346:	e722      	b.n	800518e <__aeabi_dmul+0x24a>
 8005348:	ea50 0641 	orrs.w	r6, r0, r1, lsl #1
 800534c:	bf18      	it	ne
 800534e:	ea52 0643 	orrsne.w	r6, r2, r3, lsl #1
 8005352:	f47f aec5 	bne.w	80050e0 <__aeabi_dmul+0x19c>
 8005356:	ea50 0441 	orrs.w	r4, r0, r1, lsl #1
 800535a:	f47f af0d 	bne.w	8005178 <__aeabi_dmul+0x234>
 800535e:	ea52 0543 	orrs.w	r5, r2, r3, lsl #1
 8005362:	f47f aeeb 	bne.w	800513c <__aeabi_dmul+0x1f8>
 8005366:	e712      	b.n	800518e <__aeabi_dmul+0x24a>

08005368 <__aeabi_d2f>:
 8005368:	ea4f 0241 	mov.w	r2, r1, lsl #1
 800536c:	f1b2 43e0 	subs.w	r3, r2, #1879048192	; 0x70000000
 8005370:	bf24      	itt	cs
 8005372:	f5b3 1c00 	subscs.w	ip, r3, #2097152	; 0x200000
 8005376:	f1dc 5cfe 	rsbscs	ip, ip, #532676608	; 0x1fc00000
 800537a:	d90d      	bls.n	8005398 <__aeabi_d2f+0x30>
 800537c:	f001 4c00 	and.w	ip, r1, #2147483648	; 0x80000000
 8005380:	ea4f 02c0 	mov.w	r2, r0, lsl #3
 8005384:	ea4c 7050 	orr.w	r0, ip, r0, lsr #29
 8005388:	f1b2 4f00 	cmp.w	r2, #2147483648	; 0x80000000
 800538c:	eb40 0083 	adc.w	r0, r0, r3, lsl #2
 8005390:	bf08      	it	eq
 8005392:	f020 0001 	biceq.w	r0, r0, #1
 8005396:	4770      	bx	lr
 8005398:	f011 4f80 	tst.w	r1, #1073741824	; 0x40000000
 800539c:	d121      	bne.n	80053e2 <__aeabi_d2f+0x7a>
 800539e:	f113 7238 	adds.w	r2, r3, #48234496	; 0x2e00000
 80053a2:	bfbc      	itt	lt
 80053a4:	f001 4000 	andlt.w	r0, r1, #2147483648	; 0x80000000
 80053a8:	4770      	bxlt	lr
 80053aa:	f441 1180 	orr.w	r1, r1, #1048576	; 0x100000
 80053ae:	ea4f 5252 	mov.w	r2, r2, lsr #21
 80053b2:	f1c2 0218 	rsb	r2, r2, #24
 80053b6:	f1c2 0c20 	rsb	ip, r2, #32
 80053ba:	fa10 f30c 	lsls.w	r3, r0, ip
 80053be:	fa20 f002 	lsr.w	r0, r0, r2
 80053c2:	bf18      	it	ne
 80053c4:	f040 0001 	orrne.w	r0, r0, #1
 80053c8:	ea4f 23c1 	mov.w	r3, r1, lsl #11
 80053cc:	ea4f 23d3 	mov.w	r3, r3, lsr #11
 80053d0:	fa03 fc0c 	lsl.w	ip, r3, ip
 80053d4:	ea40 000c 	orr.w	r0, r0, ip
 80053d8:	fa23 f302 	lsr.w	r3, r3, r2
 80053dc:	ea4f 0343 	mov.w	r3, r3, lsl #1
 80053e0:	e7cc      	b.n	800537c <__aeabi_d2f+0x14>
 80053e2:	ea7f 5362 	mvns.w	r3, r2, asr #21
 80053e6:	d107      	bne.n	80053f8 <__aeabi_d2f+0x90>
 80053e8:	ea50 3301 	orrs.w	r3, r0, r1, lsl #12
 80053ec:	bf1e      	ittt	ne
 80053ee:	f04f 40fe 	movne.w	r0, #2130706432	; 0x7f000000
 80053f2:	f440 0040 	orrne.w	r0, r0, #12582912	; 0xc00000
 80053f6:	4770      	bxne	lr
 80053f8:	f001 4000 	and.w	r0, r1, #2147483648	; 0x80000000
 80053fc:	f040 40fe 	orr.w	r0, r0, #2130706432	; 0x7f000000
 8005400:	f440 0000 	orr.w	r0, r0, #8388608	; 0x800000
 8005404:	4770      	bx	lr
 8005406:	bf00      	nop

08005408 <__libc_init_array>:
 8005408:	b570      	push	{r4, r5, r6, lr}
 800540a:	4e0f      	ldr	r6, [pc, #60]	; (8005448 <__libc_init_array+0x40>)
 800540c:	4d0f      	ldr	r5, [pc, #60]	; (800544c <__libc_init_array+0x44>)
 800540e:	1b76      	subs	r6, r6, r5
 8005410:	10b6      	asrs	r6, r6, #2
 8005412:	bf18      	it	ne
 8005414:	2400      	movne	r4, #0
 8005416:	d005      	beq.n	8005424 <__libc_init_array+0x1c>
 8005418:	3401      	adds	r4, #1
 800541a:	f855 3b04 	ldr.w	r3, [r5], #4
 800541e:	4798      	blx	r3
 8005420:	42a6      	cmp	r6, r4
 8005422:	d1f9      	bne.n	8005418 <__libc_init_array+0x10>
 8005424:	4e0a      	ldr	r6, [pc, #40]	; (8005450 <__libc_init_array+0x48>)
 8005426:	4d0b      	ldr	r5, [pc, #44]	; (8005454 <__libc_init_array+0x4c>)
 8005428:	1b76      	subs	r6, r6, r5
 800542a:	f7fb f977 	bl	800071c <_init>
 800542e:	10b6      	asrs	r6, r6, #2
 8005430:	bf18      	it	ne
 8005432:	2400      	movne	r4, #0
 8005434:	d006      	beq.n	8005444 <__libc_init_array+0x3c>
 8005436:	3401      	adds	r4, #1
 8005438:	f855 3b04 	ldr.w	r3, [r5], #4
 800543c:	4798      	blx	r3
 800543e:	42a6      	cmp	r6, r4
 8005440:	d1f9      	bne.n	8005436 <__libc_init_array+0x2e>
 8005442:	bd70      	pop	{r4, r5, r6, pc}
 8005444:	bd70      	pop	{r4, r5, r6, pc}
 8005446:	bf00      	nop
 8005448:	1ffe8820 	.word	0x1ffe8820
 800544c:	1ffe8820 	.word	0x1ffe8820
 8005450:	1ffe8820 	.word	0x1ffe8820
 8005454:	1ffe8820 	.word	0x1ffe8820

08005458 <npio2_hw>:
 8005458:	3fc90f00 40490f00 4096cb00 40c90f00     ...?..I@...@...@
 8005468:	40fb5300 4116cb00 412fed00 41490f00     .S.@...A../A..IA
 8005478:	41623100 417b5300 418a3a00 4196cb00     .1bA.S{A.:.A...A
 8005488:	41a35c00 41afed00 41bc7e00 41c90f00     .\.A...A.~.A...A
 8005498:	41d5a000 41e23100 41eec200 41fb5300     ...A.1.A...A.S.A
 80054a8:	4203f200 420a3a00 42108300 4216cb00     ...B.:.B...B...B
 80054b8:	421d1400 42235c00 4229a500 422fed00     ...B.\#B..)B../B
 80054c8:	42363600 423c7e00 4242c700 42490f00     .66B.~<B..BB..IB

080054d8 <two_over_pi>:
 80054d8:	000000a2 000000f9 00000083 0000006e     ............n...
 80054e8:	0000004e 00000044 00000015 00000029     N...D.......)...
 80054f8:	000000fc 00000027 00000057 000000d1     ....'...W.......
 8005508:	000000f5 00000034 000000dd 000000c0     ....4...........
 8005518:	000000db 00000062 00000095 00000099     ....b...........
 8005528:	0000003c 00000043 00000090 00000041     <...C.......A...
 8005538:	000000fe 00000051 00000063 000000ab     ....Q...c.......
 8005548:	000000de 000000bb 000000c5 00000061     ............a...
 8005558:	000000b7 00000024 0000006e 0000003a     ....$...n...:...
 8005568:	00000042 0000004d 000000d2 000000e0     B...M...........
 8005578:	00000006 00000049 0000002e 000000ea     ....I...........
 8005588:	00000009 000000d1 00000092 0000001c     ................
 8005598:	000000fe 0000001d 000000eb 0000001c     ................
 80055a8:	000000b1 00000029 000000a7 0000003e     ....).......>...
 80055b8:	000000e8 00000082 00000035 000000f5     ........5.......
 80055c8:	0000002e 000000bb 00000044 00000084     ........D.......
 80055d8:	000000e9 0000009c 00000070 00000026     ........p...&...
 80055e8:	000000b4 0000005f 0000007e 00000041     ...._...~...A...
 80055f8:	00000039 00000091 000000d6 00000039     9...........9...
 8005608:	00000083 00000053 00000039 000000f4     ....S...9.......
 8005618:	0000009c 00000084 0000005f 0000008b     ........_.......
 8005628:	000000bd 000000f9 00000028 0000003b     ........(...;...
 8005638:	0000001f 000000f8 00000097 000000ff     ................
 8005648:	000000de 00000005 00000098 0000000f     ................
 8005658:	000000ef 0000002f 00000011 0000008b     ..../...........
 8005668:	0000005a 0000000a 0000006d 0000001f     Z.......m.......
 8005678:	0000006d 00000036 0000007e 000000cf     m...6...~.......
 8005688:	00000027 000000cb 00000009 000000b7     '...............
 8005698:	0000004f 00000046 0000003f 00000066     O...F...?...f...
 80056a8:	0000009e 0000005f 000000ea 0000002d     ...._.......-...
 80056b8:	00000075 00000027 000000ba 000000c7     u...'...........
 80056c8:	000000eb 000000e5 000000f1 0000007b     ............{...
 80056d8:	0000003d 00000007 00000039 000000f7     =.......9.......
 80056e8:	0000008a 00000052 00000092 000000ea     ....R...........
 80056f8:	0000006b 000000fb 0000005f 000000b1     k......._.......
 8005708:	0000001f 0000008d 0000005d 00000008     ........].......
 8005718:	00000056 00000003 00000030 00000046     V.......0...F...
 8005728:	000000fc 0000007b 0000006b 000000ab     ....{...k.......
 8005738:	000000f0 000000cf 000000bc 00000020     ............ ...
 8005748:	0000009a 000000f4 00000036 0000001d     ........6.......
 8005758:	000000a9 000000e3 00000091 00000061     ............a...
 8005768:	0000005e 000000e6 0000001b 00000008     ^...............
 8005778:	00000065 00000099 00000085 0000005f     e..........._...
 8005788:	00000014 000000a0 00000068 00000040     ........h...@...
 8005798:	0000008d 000000ff 000000d8 00000080     ................
 80057a8:	0000004d 00000073 00000027 00000031     M...s...'...1...
 80057b8:	00000006 00000006 00000015 00000056     ............V...
 80057c8:	000000ca 00000073 000000a8 000000c9     ....s...........
 80057d8:	00000060 000000e2 0000007b 000000c0     `.......{.......
 80057e8:	0000008c 0000006b                       ....k...

080057f0 <init_jk>:
 80057f0:	00000004 00000007 00000009              ............

080057fc <PIo2>:
 80057fc:	3fc90000 39f00000 37da0000 33a20000     ...?...9...7...3
 800580c:	2e840000 2b500000 27c20000 22d00000     ......P+...'..."
 800581c:	1fc40000 1bc60000 17440000              ..........D.
